 sakura

 Timestamp is 6530dd5f (Thu Oct 19 16:40:15 2023)

 Preferred load address is 0000000140000000

 Start         Length     Name                   Class
 0001:00000000 00001f70H .text$di                CODE
 0001:00001f70 0016ea90H .text$mn                CODE
 0001:00170a00 00000040H .text$mn$00             CODE
 0001:00170a40 00006fb8H .text$x                 CODE
 0001:001779f8 000008ccH .text$yd                CODE
 0002:00000000 00001058H .idata$5                DATA
 0002:00001058 00000038H .00cfg                  DATA
 0002:00001090 00000008H .CRT$XCA                DATA
 0002:00001098 00000008H .CRT$XCAA               DATA
 0002:000010a0 00000038H .CRT$XCC                DATA
 0002:000010d8 00000010H .CRT$XCL                DATA
 0002:000010e8 00000100H .CRT$XCU                DATA
 0002:000011e8 00000008H .CRT$XCZ                DATA
 0002:000011f0 00000008H .CRT$XIA                DATA
 0002:000011f8 00000008H .CRT$XIAA               DATA
 0002:00001200 00000008H .CRT$XIAC               DATA
 0002:00001208 00000030H .CRT$XIC                DATA
 0002:00001238 00000008H .CRT$XIZ                DATA
 0002:00001240 00000008H .CRT$XLA                DATA
 0002:00001248 00000008H .CRT$XLZ                DATA
 0002:00001250 00000008H .CRT$XPA                DATA
 0002:00001258 00000018H .CRT$XPX                DATA
 0002:00001270 00000008H .CRT$XPXA               DATA
 0002:00001278 00000008H .CRT$XPZ                DATA
 0002:00001280 00000008H .CRT$XTA                DATA
 0002:00001288 00000018H .CRT$XTZ                DATA
 0002:00001290 00000000H .gehcont$y              DATA
 0002:00001290 00000000H .gfids$y                DATA
 0002:00001290 00000000H .giats$y                DATA
 0002:000012a0 00030160H .rdata                  DATA
 0002:00031400 00000000H .rdata$CastGuardVftablesA DATA
 0002:00031400 00000000H .rdata$CastGuardVftablesC DATA
 0002:00031400 00000030H .rdata$T                DATA
 0002:00031430 0000b834H .rdata$r                DATA
 0002:0003cc64 00000158H .rdata$voltmd           DATA
 0002:0003cdbc 00000454H .rdata$zzzdbg           DATA
 0002:0003d210 00000008H .rtc$IAA                DATA
 0002:0003d218 00000008H .rtc$IZZ                DATA
 0002:0003d220 00000008H .rtc$TAA                DATA
 0002:0003d228 00000008H .rtc$TZZ                DATA
 0002:0003d230 00000004H .tls                    DATA
 0002:0003d234 00000004H .tls$                   DATA
 0002:0003d238 00000008H .tls$ZZZ                DATA
 0002:0003d240 00013108H .xdata                  DATA
 0002:00050348 000008f0H .xdata$x                DATA
 0002:00050c38 00000000H minATL$__a              DATA
 0002:00050c38 00000000H minATL$__m              DATA
 0002:00050c38 00000000H minATL$__z              DATA
 0002:00050c38 00000000H .edata                  DATA
 0002:00050c38 00000140H .idata$2                DATA
 0002:00050d78 00000018H .idata$3                DATA
 0002:00050d90 00001058H .idata$4                DATA
 0002:00051de8 000022beH .idata$6                DATA
 0003:00000000 00009f00H .data                   DATA
 0003:00009f00 000004b0H .data$r                 DATA
 0003:0000a3b0 000038b0H .data$rs                DATA
 0003:0000dc60 00052a8cH .bss                    DATA
 0004:00000000 0000d8b4H .pdata                  DATA
 0005:00000000 0000015cH _RDATA                  DATA
 0006:00000000 00002fc0H .rsrc$01                DATA
 0006:00002fc0 0002cf48H .rsrc$02                DATA

  Address         Publics by Value              Rva+Base               Lib:Object

 0000:00000000       __AbsoluteZero             0000000000000000     <absolute>
 0000:00000000       ___safe_se_handler_count   0000000000000000     <absolute>
 0000:00000000       ___safe_se_handler_table   0000000000000000     <absolute>
 0000:00000000       __arm64x_extra_rfe_table   0000000000000000     <absolute>
 0000:00000000       __arm64x_extra_rfe_table_size 0000000000000000     <absolute>
 0000:00000000       __arm64x_native_entrypoint 0000000000000000     <absolute>
 0000:00000000       __arm64x_redirection_metadata 0000000000000000     <absolute>
 0000:00000000       __arm64x_redirection_metadata_count 0000000000000000     <absolute>
 0000:00000000       __dynamic_value_reloc_table 0000000000000000     <absolute>
 0000:00000000       __enclave_config           0000000000000000     <absolute>
 0000:00000000       __guard_check_icall_a64n_fptr 0000000000000000     <absolute>
 0000:00000000       __guard_eh_cont_count      0000000000000000     <absolute>
 0000:00000000       __guard_eh_cont_table      0000000000000000     <absolute>
 0000:00000000       __guard_fids_count         0000000000000000     <absolute>
 0000:00000000       __guard_fids_table         0000000000000000     <absolute>
 0000:00000000       __guard_iat_count          0000000000000000     <absolute>
 0000:00000000       __guard_iat_table          0000000000000000     <absolute>
 0000:00000000       __guard_longjmp_count      0000000000000000     <absolute>
 0000:00000000       __guard_longjmp_table      0000000000000000     <absolute>
 0000:00000000       __hybrid_auxiliary_delayload_iat 0000000000000000     <absolute>
 0000:00000000       __hybrid_auxiliary_delayload_iat_copy 0000000000000000     <absolute>
 0000:00000000       __hybrid_auxiliary_iat     0000000000000000     <absolute>
 0000:00000000       __hybrid_auxiliary_iat_copy 0000000000000000     <absolute>
 0000:00000000       __hybrid_code_map          0000000000000000     <absolute>
 0000:00000000       __hybrid_code_map_count    0000000000000000     <absolute>
 0000:00000000       __hybrid_image_info_bitfield 0000000000000000     <absolute>
 0000:00000000       __x64_code_ranges_to_entry_points 0000000000000000     <absolute>
 0000:00000000       __x64_code_ranges_to_entry_points_count 0000000000000000     <absolute>
 0000:00000100       __guard_flags              0000000000000100     <absolute>
 0000:00000000       __ImageBase                0000000140000000     <linker-defined>
 0001:00001f70       ?MakeSureDirectoryPathExistsW@ApiWrap@@YAHPEB_W@Z 0000000140002f70 f   StdApi.obj
 0001:00002010       ?Wnd_GetText@ApiWrap@@YA_NPEAUHWND__@@AEAV?$basic_string@_WU?$char_traits@_W@std@@V?$allocator@_W@2@@std@@@Z 0000000140003010 f   StdControl.obj
 0001:00002130       ?List_GetText@ApiWrap@@YA_NPEAUHWND__@@HAEAV?$basic_string@_WU?$char_traits@_W@std@@V?$allocator@_W@2@@std@@@Z 0000000140003130 f   StdControl.obj
 0001:00002250       ?List_GetText@ApiWrap@@YA_JPEAUHWND__@@HPEA_W_K@Z 0000000140003250 f   StdControl.obj
 0001:000022c4       ?DlgItem_GetText@ApiWrap@@YA_NPEAUHWND__@@HAEAV?$basic_string@_WU?$char_traits@_W@std@@V?$allocator@_W@2@@std@@@Z 00000001400032c4 f   StdControl.obj
 0001:00002308       ?DlgItem_GetText@ApiWrap@@YAIPEAUHWND__@@HPEA_WH@Z 0000000140003308 f   StdControl.obj
 0001:00002310       ?TreeView_GetItemTextVector@ApiWrap@@YA_NPEAUHWND__@@AEAUtagTVITEMW@@AEAV?$vector@_WV?$allocator@_W@std@@@std@@@Z 0000000140003310 f   StdControl.obj
 0001:000023d0       ?TreeView_ExpandAll@ApiWrap@@YAXPEAUHWND__@@_NH@Z 00000001400033d0 f   StdControl.obj
 0001:0000263c       ??1?$_Hash_vec@V?$allocator@V?$_List_unchecked_iterator@V?$_List_val@U?$_List_simple_types@U?$pair@$$CBV?$basic_string@DU?$char_traits@D@std@@V?$allocator@D@2@@std@@G@std@@@std@@@std@@@std@@@std@@@std@@QEAA@XZ 000000014000363c f i CharsetDetector.obj
 0001:0000263c       ??1?$vector@PEAUHMENU__@@V?$allocator@PEAUHMENU__@@@std@@@std@@QEAA@XZ 000000014000363c f i CMacro.obj
 0001:0000263c       ??1?$vector@PEAUHWND__@@V?$allocator@PEAUHWND__@@@std@@@std@@QEAA@XZ 000000014000363c f i CDlgWindowList.obj
 0001:0000263c       ??1?$vector@PEAUSORTDATA@@V?$allocator@PEAUSORTDATA@@@std@@@std@@QEAA@XZ 000000014000363c f i CViewCommander_Edit_advanced.obj
 0001:0000263c       ??1?$vector@PEAU_TREEITEM@@V?$allocator@PEAU_TREEITEM@@@std@@@std@@QEAA@XZ 000000014000363c f i StdControl.obj
 0001:0000263c       ??1?$vector@PEAVCColorStrategy@@V?$allocator@PEAVCColorStrategy@@@std@@@std@@QEAA@XZ 000000014000363c f i CColorStrategy.obj
 0001:0000263c       ??1?$vector@PEAVCFigure@@V?$allocator@PEAVCFigure@@@std@@@std@@QEAA@XZ 000000014000363c f i CFigureManager.obj
 0001:0000263c       ??1?$vector@PEAVCIfObj@@V?$allocator@PEAVCIfObj@@@std@@@std@@QEAA@XZ 000000014000363c f i CWSH.obj
 0001:0000263c       ??1?$vector@PEAVCPlug@@V?$allocator@PEAVCPlug@@@std@@@std@@QEAA@XZ 000000014000363c f i CHokanMgr.obj
 0001:0000263c       ??1?$vector@PEB_WV?$allocator@PEB_W@std@@@std@@QEAA@XZ 000000014000363c f i CGrepAgent.obj
 0001:0000263c       ??1?$vector@USCommentBlock@@V?$allocator@USCommentBlock@@@std@@@std@@QEAA@XZ 000000014000363c f i CType_Cpp.obj
 0001:00002698       ??$_Emplace_reallocate@AEBQEAU_TREEITEM@@@?$vector@PEAU_TREEITEM@@V?$allocator@PEAU_TREEITEM@@@std@@@std@@AEAAPEAPEAU_TREEITEM@@QEAPEAU2@AEBQEAU2@@Z 0000000140003698 f i StdControl.obj
 0001:00002698       ??$_Emplace_reallocate@AEBQEB_W@?$vector@PEB_WV?$allocator@PEB_W@std@@@std@@AEAAPEAPEB_WQEAPEB_WAEBQEB_W@Z 0000000140003698 f i CGrepAgent.obj
 0001:00002698       ??$_Emplace_reallocate@PEAU_TREEITEM@@@?$vector@PEAU_TREEITEM@@V?$allocator@PEAU_TREEITEM@@@std@@@std@@AEAAPEAPEAU_TREEITEM@@QEAPEAU2@$$QEAPEAU2@@Z 0000000140003698 f i CDlgFileTree.obj
 0001:00002698       ??$_Emplace_reallocate@PEB_W@?$vector@PEB_WV?$allocator@PEB_W@std@@@std@@AEAAPEAPEB_WQEAPEB_W$$QEAPEB_W@Z 0000000140003698 f i CMRUFile.obj
 0001:000027b0       ??$_Resize_reallocate@U_Value_init_tag@std@@@?$vector@_WV?$allocator@_W@std@@@std@@AEAAX_KAEBU_Value_init_tag@1@@Z 00000001400037b0 f i StdControl.obj
 0001:00002894       ?_Xlength@?$vector@HV?$allocator@H@std@@@std@@CAXXZ 0000000140003894 f i CDlgFavorite.obj
 0001:00002894       ?_Xlength@?$vector@IV?$allocator@I@std@@@std@@CAXXZ 0000000140003894 f i file.obj
 0001:00002894       ?_Xlength@?$vector@KV?$allocator@K@std@@@std@@CAXXZ 0000000140003894 f i CGraphics.obj
 0001:00002894       ?_Xlength@?$vector@NV?$allocator@N@std@@@std@@CAXXZ 0000000140003894 f i CViewCommander_Settings.obj
 0001:00002894       ?_Xlength@?$vector@PEAUHBRUSH__@@V?$allocator@PEAUHBRUSH__@@@std@@@std@@CAXXZ 0000000140003894 f i CGraphics.obj
 0001:00002894       ?_Xlength@?$vector@PEAUHMENU__@@V?$allocator@PEAUHMENU__@@@std@@@std@@CAXXZ 0000000140003894 f i CMacro.obj
 0001:00002894       ?_Xlength@?$vector@PEAUHPEN__@@V?$allocator@PEAUHPEN__@@@std@@@std@@CAXXZ 0000000140003894 f i CGraphics.obj
 0001:00002894       ?_Xlength@?$vector@PEAUHRGN__@@V?$allocator@PEAUHRGN__@@@std@@@std@@CAXXZ 0000000140003894 f i CGraphics.obj
 0001:00002894       ?_Xlength@?$vector@PEAUHWND__@@V?$allocator@PEAUHWND__@@@std@@@std@@CAXXZ 0000000140003894 f i CDlgWindowList.obj
 0001:00002894       ?_Xlength@?$vector@PEAUSORTDATA@@V?$allocator@PEAUSORTDATA@@@std@@@std@@CAXXZ 0000000140003894 f i CViewCommander_Edit_advanced.obj
 0001:00002894       ?_Xlength@?$vector@PEAUSSelLangInfo@CSelectLang@@V?$allocator@PEAUSSelLangInfo@CSelectLang@@@std@@@std@@CAXXZ 0000000140003894 f i CSelectLang.obj
 0001:00002894       ?_Xlength@?$vector@PEAUSTypeConfig@@V?$allocator@PEAUSTypeConfig@@@std@@@std@@CAXXZ 0000000140003894 f i CShareData_IO.obj
 0001:00002894       ?_Xlength@?$vector@PEAU_TREEITEM@@V?$allocator@PEAU_TREEITEM@@@std@@@std@@CAXXZ 0000000140003894 f i StdControl.obj
 0001:00002894       ?_Xlength@?$vector@PEAVCColorStrategy@@V?$allocator@PEAVCColorStrategy@@@std@@@std@@CAXXZ 0000000140003894 f i CColorStrategy.obj
 0001:00002894       ?_Xlength@?$vector@PEAVCCommandLine@@V?$allocator@PEAVCCommandLine@@@std@@@std@@CAXXZ 0000000140003894 f i CCommandLine.obj
 0001:00002894       ?_Xlength@?$vector@PEAVCEditDoc@@V?$allocator@PEAVCEditDoc@@@std@@@std@@CAXXZ 0000000140003894 f i CEditDoc.obj
 0001:00002894       ?_Xlength@?$vector@PEAVCFigure@@V?$allocator@PEAVCFigure@@@std@@@std@@CAXXZ 0000000140003894 f i CFigureManager.obj
 0001:00002894       ?_Xlength@?$vector@PEAVCIfObj@@V?$allocator@PEAVCIfObj@@@std@@@std@@CAXXZ 0000000140003894 f i CWSH.obj
 0001:00002894       ?_Xlength@?$vector@PEAVCListener@@V?$allocator@PEAVCListener@@@std@@@std@@CAXXZ 0000000140003894 f i relation_tool.obj
 0001:00002894       ?_Xlength@?$vector@PEAVCOpe@@V?$allocator@PEAVCOpe@@@std@@@std@@CAXXZ 0000000140003894 f i COpeBlk.obj
 0001:00002894       ?_Xlength@?$vector@PEAVCOpeBlk@@V?$allocator@PEAVCOpeBlk@@@std@@@std@@CAXXZ 0000000140003894 f i COpeBuf.obj
 0001:00002894       ?_Xlength@?$vector@PEAVCPlug@@V?$allocator@PEAVCPlug@@@std@@@std@@CAXXZ 0000000140003894 f i CHokanMgr.obj
 0001:00002894       ?_Xlength@?$vector@PEAVCPluginOption@@V?$allocator@PEAVCPluginOption@@@std@@@std@@CAXXZ 0000000140003894 f i CPlugin.obj
 0001:00002894       ?_Xlength@?$vector@PEAXV?$allocator@PEAX@std@@@std@@CAXXZ 0000000140003894 f i CGraphics.obj
 0001:00002894       ?_Xlength@?$vector@PEB_WV?$allocator@PEB_W@std@@@std@@CAXXZ 0000000140003894 f i CGrepAgent.obj
 0001:00002894       ?_Xlength@?$vector@U?$TYPE_NAME_ID2@W4EOutlineType@@@@V?$allocator@U?$TYPE_NAME_ID2@W4EOutlineType@@@@@std@@@std@@CAXXZ 0000000140003894 f i CPropTypesScreen.obj
 0001:00002894       ?_Xlength@?$vector@U?$TYPE_NAME_ID2@W4ESmartIndentType@@@@V?$allocator@U?$TYPE_NAME_ID2@W4ESmartIndentType@@@@@std@@@std@@CAXXZ 0000000140003894 f i CPropTypesScreen.obj
 0001:00002894       ?_Xlength@?$vector@U?$pair@HV?$basic_string@_WU?$char_traits@_W@std@@V?$allocator@_W@2@@std@@@std@@V?$allocator@U?$pair@HV?$basic_string@_WU?$char_traits@_W@std@@V?$allocator@_W@2@@std@@@std@@@2@@std@@CAXXZ 0000000140003894 f i CCodePage.obj
 0001:00002894       ?_Xlength@?$vector@U?$pair@PEA_WK@std@@V?$allocator@U?$pair@PEA_WK@std@@@2@@std@@CAXXZ 0000000140003894 f i CGrepAgent.obj
 0001:00002894       ?_Xlength@?$vector@U?$pair@PEB_WH@std@@V?$allocator@U?$pair@PEB_WH@std@@@2@@std@@CAXXZ 0000000140003894 f i CSearchAgent.obj
 0001:00002894       ?_Xlength@?$vector@UCMethodInfo@CIfObj@@V?$allocator@UCMethodInfo@CIfObj@@@std@@@std@@CAXXZ 0000000140003894 f i CIfObj.obj
 0001:00002894       ?_Xlength@?$vector@UMyMenuItemInfo@CMenuDrawer@@V?$allocator@UMyMenuItemInfo@CMenuDrawer@@@std@@@std@@CAXXZ 0000000140003894 f i CMenuDrawer.obj
 0001:00002894       ?_Xlength@?$vector@USCommentBlock@@V?$allocator@USCommentBlock@@@std@@@std@@CAXXZ 0000000140003894 f i CType_Cpp.obj
 0001:00002894       ?_Xlength@?$vector@USFONT@@V?$allocator@USFONT@@@std@@@std@@CAXXZ 0000000140003894 f i CGraphics.obj
 0001:00002894       ?_Xlength@?$vector@USFileExtInfo@CFileExt@@V?$allocator@USFileExtInfo@CFileExt@@@std@@@std@@CAXXZ 0000000140003894 f i CFileExt.obj
 0001:00002894       ?_Xlength@?$vector@USFileTreeItem@@V?$allocator@USFileTreeItem@@@std@@@std@@CAXXZ 0000000140003894 f i CDlgFileTree.obj
 0001:00002894       ?_Xlength@?$vector@USHokanMethod@@V?$allocator@USHokanMethod@@@std@@@std@@CAXXZ 0000000140003894 f i CPropTypesSupport.obj
 0001:00002894       ?_Xlength@?$vector@USKeywordSetIndex@CPropCommon@@V?$allocator@USKeywordSetIndex@CPropCommon@@@std@@@std@@CAXXZ 0000000140003894 f i CPropCommon.obj
 0001:00002894       ?_Xlength@?$vector@USection@CProfile@@V?$allocator@USection@CProfile@@@std@@@std@@CAXXZ 0000000140003894 f i CProfile.obj
 0001:00002894       ?_Xlength@?$vector@UWorkData@@V?$allocator@UWorkData@@@std@@@std@@CAXXZ 0000000140003894 f i CMenuDrawer.obj
 0001:00002894       ?_Xlength@?$vector@U_COMDLG_FILTERSPEC@@V?$allocator@U_COMDLG_FILTERSPEC@@@std@@@std@@CAXXZ 0000000140003894 f i CDlgOpenFile_CommonItemDialog.obj
 0001:00002894       ?_Xlength@?$vector@U_Grp_t@?$_Tgt_state_t@PEB_W@std@@V?$allocator@U_Grp_t@?$_Tgt_state_t@PEB_W@std@@@3@@std@@CAXXZ 0000000140003894 f i file.obj
 0001:00002894       ?_Xlength@?$vector@U_Grp_t@?$_Tgt_state_t@V?$_String_const_iterator@V?$_String_val@U?$_Simple_types@_W@std@@@std@@@std@@@std@@V?$allocator@U_Grp_t@?$_Tgt_state_t@V?$_String_const_iterator@V?$_String_val@U?$_Simple_types@_W@std@@@std@@@std@@@std@@@3@@std@@CAXXZ 0000000140003894 f i shell.obj
 0001:00002894       ?_Xlength@?$vector@U_Loop_vals_t@std@@V?$allocator@U_Loop_vals_t@std@@@2@@std@@CAXXZ 0000000140003894 f i file.obj
 0001:00002894       ?_Xlength@?$vector@U_TBBUTTON@@V?$allocator@U_TBBUTTON@@@std@@@std@@CAXXZ 0000000140003894 f i CMenuDrawer.obj
 0001:00002894       ?_Xlength@?$vector@UtagJackDef@@V?$allocator@UtagJackDef@@@std@@@std@@CAXXZ 0000000140003894 f i CJackManager.obj
 0001:00002894       ?_Xlength@?$vector@UtagPOINT@@V?$allocator@UtagPOINT@@@std@@@std@@CAXXZ 0000000140003894 f i CRuler.obj
 0001:00002894       ?_Xlength@?$vector@V?$basic_string@_WU?$char_traits@_W@std@@V?$allocator@_W@2@@std@@V?$allocator@V?$basic_string@_WU?$char_traits@_W@std@@V?$allocator@_W@2@@std@@@2@@std@@CAXXZ 0000000140003894 f i CDicMgr.obj
 0001:00002894       ?_Xlength@?$vector@V?$sub_match@PEB_W@std@@V?$allocator@V?$sub_match@PEB_W@std@@@2@@std@@CAXXZ 0000000140003894 f i file.obj
 0001:00002894       ?_Xlength@?$vector@V?$sub_match@V?$_String_const_iterator@V?$_String_val@U?$_Simple_types@_W@std@@@std@@@std@@@std@@V?$allocator@V?$sub_match@V?$_String_const_iterator@V?$_String_val@U?$_Simple_types@_W@std@@@std@@@std@@@std@@@2@@std@@CAXXZ 0000000140003894 f i shell.obj
 0001:00002894       ?_Xlength@?$vector@VCLineData@@V?$allocator@VCLineData@@@std@@@std@@CAXXZ 0000000140003894 f i CViewCommander_Edit_advanced.obj
 0001:00002894       ?_Xlength@?$vector@VCMark@CMarkMgr@@V?$allocator@VCMark@CMarkMgr@@@std@@@std@@CAXXZ 0000000140003894 f i CMarkMgr.obj
 0001:00002894       ?_Xlength@?$vector@VCMyRect@@V?$allocator@VCMyRect@@@std@@@std@@CAXXZ 0000000140003894 f i CEditView_Paint.obj
 0001:00002894       ?_Xlength@?$vector@VCStringRef@@V?$allocator@VCStringRef@@@std@@@std@@CAXXZ 0000000140003894 f i CViewCommander_Edit_advanced.obj
 0001:00002894       ?_Xlength@?$vector@W4ECodeType@@V?$allocator@W4ECodeType@@@std@@@std@@CAXXZ 0000000140003894 f i charset.obj
 0001:00002894       ?_Xlength@?$vector@_WV?$allocator@_W@std@@@std@@CAXXZ 0000000140003894 f i StdControl.obj
 0001:000028a8       ?_Change_array@?$vector@PEAU_TREEITEM@@V?$allocator@PEAU_TREEITEM@@@std@@@std@@AEAAXQEAPEAU_TREEITEM@@_K1@Z 00000001400038a8 f i StdControl.obj
 0001:000028a8       ?_Change_array@?$vector@PEB_WV?$allocator@PEB_W@std@@@std@@AEAAXQEAPEB_W_K1@Z 00000001400038a8 f i CGrepAgent.obj
 0001:00002930       ?_Change_array@?$vector@_WV?$allocator@_W@std@@@std@@AEAAXQEA_W_K1@Z 0000000140003930 f i StdControl.obj
 0001:000029bc       ??$_Zero_range@PEAH@std@@YAPEAHQEAH0@Z 00000001400039bc f i CType_Java.obj
 0001:000029bc       ??$_Zero_range@PEAPEAUHBRUSH__@@@std@@YAPEAPEAUHBRUSH__@@QEAPEAU1@0@Z 00000001400039bc f i CGraphics.obj
 0001:000029bc       ??$_Zero_range@PEAPEAUHMENU__@@@std@@YAPEAPEAUHMENU__@@QEAPEAU1@0@Z 00000001400039bc f i CMacro.obj
 0001:000029bc       ??$_Zero_range@PEAPEAUSTypeConfig@@@std@@YAPEAPEAUSTypeConfig@@QEAPEAU1@0@Z 00000001400039bc f i CShareData_IO.obj
 0001:000029bc       ??$_Zero_range@PEAPEAU_TREEITEM@@@std@@YAPEAPEAU_TREEITEM@@QEAPEAU1@0@Z 00000001400039bc f i CDlgFileTree.obj
 0001:000029bc       ??$_Zero_range@PEAPEAVCNativeW@@@std@@YAPEAPEAVCNativeW@@QEAPEAV1@0@Z 00000001400039bc f i CGrepAgent.obj
 0001:000029bc       ??$_Zero_range@PEAPEAVCOpeBlk@@@std@@YAPEAPEAVCOpeBlk@@QEAPEAV1@0@Z 00000001400039bc f i COpeBuf.obj
 0001:000029bc       ??$_Zero_range@PEA_W@std@@YAPEA_WQEA_W0@Z 00000001400039bc f i StdControl.obj
 0001:000029dc       ??$_Copy_memmove@PEAHPEAH@std@@YAPEAHPEAH00@Z 00000001400039dc f i CDlgFavorite.obj
 0001:000029dc       ??$_Copy_memmove@PEAIPEAI@std@@YAPEAIPEAI00@Z 00000001400039dc f i file.obj
 0001:000029dc       ??$_Copy_memmove@PEAKPEAK@std@@YAPEAKPEAK00@Z 00000001400039dc f i CGraphics.obj
 0001:000029dc       ??$_Copy_memmove@PEAPEAUHBRUSH__@@PEAPEAU1@@std@@YAPEAPEAUHBRUSH__@@PEAPEAU1@00@Z 00000001400039dc f i CGraphics.obj
 0001:000029dc       ??$_Copy_memmove@PEAPEAUHMENU__@@PEAPEAU1@@std@@YAPEAPEAUHMENU__@@PEAPEAU1@00@Z 00000001400039dc f i CMacro.obj
 0001:000029dc       ??$_Copy_memmove@PEAPEAUHPEN__@@PEAPEAU1@@std@@YAPEAPEAUHPEN__@@PEAPEAU1@00@Z 00000001400039dc f i CGraphics.obj
 0001:000029dc       ??$_Copy_memmove@PEAPEAUHRGN__@@PEAPEAU1@@std@@YAPEAPEAUHRGN__@@PEAPEAU1@00@Z 00000001400039dc f i CGraphics.obj
 0001:000029dc       ??$_Copy_memmove@PEAPEAUHWND__@@PEAPEAU1@@std@@YAPEAPEAUHWND__@@PEAPEAU1@00@Z 00000001400039dc f i CDlgWindowList.obj
 0001:000029dc       ??$_Copy_memmove@PEAPEAUSORTDATA@@PEAPEAU1@@std@@YAPEAPEAUSORTDATA@@PEAPEAU1@00@Z 00000001400039dc f i CViewCommander_Edit_advanced.obj
 0001:000029dc       ??$_Copy_memmove@PEAPEAUSSelLangInfo@CSelectLang@@PEAPEAU12@@std@@YAPEAPEAUSSelLangInfo@CSelectLang@@PEAPEAU12@00@Z 00000001400039dc f i CSelectLang.obj
 0001:000029dc       ??$_Copy_memmove@PEAPEAUSTypeConfig@@PEAPEAU1@@std@@YAPEAPEAUSTypeConfig@@PEAPEAU1@00@Z 00000001400039dc f i CShareData_IO.obj
 0001:000029dc       ??$_Copy_memmove@PEAPEAU_TREEITEM@@PEAPEAU1@@std@@YAPEAPEAU_TREEITEM@@PEAPEAU1@00@Z 00000001400039dc f i StdControl.obj
 0001:000029dc       ??$_Copy_memmove@PEAPEAVCColorStrategy@@PEAPEAV1@@std@@YAPEAPEAVCColorStrategy@@PEAPEAV1@00@Z 00000001400039dc f i CColorStrategy.obj
 0001:000029dc       ??$_Copy_memmove@PEAPEAVCCommandLine@@PEAPEAV1@@std@@YAPEAPEAVCCommandLine@@PEAPEAV1@00@Z 00000001400039dc f i CCommandLine.obj
 0001:000029dc       ??$_Copy_memmove@PEAPEAVCEditDoc@@PEAPEAV1@@std@@YAPEAPEAVCEditDoc@@PEAPEAV1@00@Z 00000001400039dc f i CEditDoc.obj
 0001:000029dc       ??$_Copy_memmove@PEAPEAVCFigure@@PEAPEAV1@@std@@YAPEAPEAVCFigure@@PEAPEAV1@00@Z 00000001400039dc f i CFigureManager.obj
 0001:000029dc       ??$_Copy_memmove@PEAPEAVCIfObj@@PEAPEAV1@@std@@YAPEAPEAVCIfObj@@PEAPEAV1@00@Z 00000001400039dc f i CWSH.obj
 0001:000029dc       ??$_Copy_memmove@PEAPEAVCListener@@PEAPEAV1@@std@@YAPEAPEAVCListener@@PEAPEAV1@00@Z 00000001400039dc f i relation_tool.obj
 0001:000029dc       ??$_Copy_memmove@PEAPEAVCNativeW@@PEAPEAV1@@std@@YAPEAPEAVCNativeW@@PEAPEAV1@00@Z 00000001400039dc f i CGrepAgent.obj
 0001:000029dc       ??$_Copy_memmove@PEAPEAVCOpe@@PEAPEAV1@@std@@YAPEAPEAVCOpe@@PEAPEAV1@00@Z 00000001400039dc f i COpeBlk.obj
 0001:000029dc       ??$_Copy_memmove@PEAPEAVCOpeBlk@@PEAPEAV1@@std@@YAPEAPEAVCOpeBlk@@PEAPEAV1@00@Z 00000001400039dc f i COpeBuf.obj
 0001:000029dc       ??$_Copy_memmove@PEAPEAVCPlug@@PEAPEAV1@@std@@YAPEAPEAVCPlug@@PEAPEAV1@00@Z 00000001400039dc f i CHokanMgr.obj
 0001:000029dc       ??$_Copy_memmove@PEAPEAVCPluginOption@@PEAPEAV1@@std@@YAPEAPEAVCPluginOption@@PEAPEAV1@00@Z 00000001400039dc f i CPlugin.obj
 0001:000029dc       ??$_Copy_memmove@PEAPEAXPEAPEAX@std@@YAPEAPEAXPEAPEAX00@Z 00000001400039dc f i CGraphics.obj
 0001:000029dc       ??$_Copy_memmove@PEAPEB_WPEAPEB_W@std@@YAPEAPEB_WPEAPEB_W00@Z 00000001400039dc f i CGrepAgent.obj
 0001:000029dc       ??$_Copy_memmove@PEAU?$TYPE_NAME_ID2@W4EOutlineType@@@@PEAU1@@std@@YAPEAU?$TYPE_NAME_ID2@W4EOutlineType@@@@PEAU1@00@Z 00000001400039dc f i CPropTypesScreen.obj
 0001:000029dc       ??$_Copy_memmove@PEAU?$TYPE_NAME_ID2@W4ESmartIndentType@@@@PEAU1@@std@@YAPEAU?$TYPE_NAME_ID2@W4ESmartIndentType@@@@PEAU1@00@Z 00000001400039dc f i CPropTypesScreen.obj
 0001:000029dc       ??$_Copy_memmove@PEAU?$pair@PEA_WK@std@@PEAU12@@std@@YAPEAU?$pair@PEA_WK@0@PEAU10@00@Z 00000001400039dc f i CGrepAgent.obj
 0001:000029dc       ??$_Copy_memmove@PEAU?$pair@PEB_WH@std@@PEAU12@@std@@YAPEAU?$pair@PEB_WH@0@PEAU10@00@Z 00000001400039dc f i CSearchAgent.obj
 0001:000029dc       ??$_Copy_memmove@PEAUCMethodInfo@CIfObj@@PEAU12@@std@@YAPEAUCMethodInfo@CIfObj@@PEAU12@00@Z 00000001400039dc f i CIfObj.obj
 0001:000029dc       ??$_Copy_memmove@PEAUSCommentBlock@@PEAU1@@std@@YAPEAUSCommentBlock@@PEAU1@00@Z 00000001400039dc f i CType_Cpp.obj
 0001:000029dc       ??$_Copy_memmove@PEAUSFONT@@PEAU1@@std@@YAPEAUSFONT@@PEAU1@00@Z 00000001400039dc f i CGraphics.obj
 0001:000029dc       ??$_Copy_memmove@PEAUSFileTreeItem@@PEAU1@@std@@YAPEAUSFileTreeItem@@PEAU1@00@Z 00000001400039dc f i CDlgFileTree.obj
 0001:000029dc       ??$_Copy_memmove@PEAUSKeywordSetIndex@CPropCommon@@PEAU12@@std@@YAPEAUSKeywordSetIndex@CPropCommon@@PEAU12@00@Z 00000001400039dc f i CPropCommon.obj
 0001:000029dc       ??$_Copy_memmove@PEAUWorkData@@PEAU1@@std@@YAPEAUWorkData@@PEAU1@00@Z 00000001400039dc f i CMenuDrawer.obj
 0001:000029dc       ??$_Copy_memmove@PEAU_COMDLG_FILTERSPEC@@PEAU1@@std@@YAPEAU_COMDLG_FILTERSPEC@@PEAU1@00@Z 00000001400039dc f i CDlgOpenFile_CommonItemDialog.obj
 0001:000029dc       ??$_Copy_memmove@PEAU_Grp_t@?$_Tgt_state_t@PEB_W@std@@PEAU123@@std@@YAPEAU_Grp_t@?$_Tgt_state_t@PEB_W@0@PEAU120@00@Z 00000001400039dc f i file.obj
 0001:000029dc       ??$_Copy_memmove@PEAU_Grp_t@?$_Tgt_state_t@V?$_String_const_iterator@V?$_String_val@U?$_Simple_types@_W@std@@@std@@@std@@@std@@PEAU123@@std@@YAPEAU_Grp_t@?$_Tgt_state_t@V?$_String_const_iterator@V?$_String_val@U?$_Simple_types@_W@std@@@std@@@std@@@0@PEAU120@00@Z 00000001400039dc f i shell.obj
 0001:000029dc       ??$_Copy_memmove@PEAU_Loop_vals_t@std@@PEAU12@@std@@YAPEAU_Loop_vals_t@0@PEAU10@00@Z 00000001400039dc f i file.obj
 0001:000029dc       ??$_Copy_memmove@PEAU_TBBUTTON@@PEAU1@@std@@YAPEAU_TBBUTTON@@PEAU1@00@Z 00000001400039dc f i CMenuDrawer.obj
 0001:000029dc       ??$_Copy_memmove@PEAUtagPOINT@@PEAU1@@std@@YAPEAUtagPOINT@@PEAU1@00@Z 00000001400039dc f i CRuler.obj
 0001:000029dc       ??$_Copy_memmove@PEAV?$sub_match@PEB_W@std@@PEAV12@@std@@YAPEAV?$sub_match@PEB_W@0@PEAV10@00@Z 00000001400039dc f i file.obj
 0001:000029dc       ??$_Copy_memmove@PEAV?$sub_match@V?$_String_const_iterator@V?$_String_val@U?$_Simple_types@_W@std@@@std@@@std@@@std@@PEAV12@@std@@YAPEAV?$sub_match@V?$_String_const_iterator@V?$_String_val@U?$_Simple_types@_W@std@@@std@@@std@@@0@PEAV10@00@Z 00000001400039dc f i shell.obj
 0001:000029dc       ??$_Copy_memmove@PEAVCMark@CMarkMgr@@PEAV12@@std@@YAPEAVCMark@CMarkMgr@@PEAV12@00@Z 00000001400039dc f i CMarkMgr.obj
 0001:000029dc       ??$_Copy_memmove@PEAVCMyRect@@PEAV1@@std@@YAPEAVCMyRect@@PEAV1@00@Z 00000001400039dc f i CEditView_Paint.obj
 0001:000029dc       ??$_Copy_memmove@PEAVCStringRef@@PEAV1@@std@@YAPEAVCStringRef@@PEAV1@00@Z 00000001400039dc f i CViewCommander_Edit_advanced.obj
 0001:000029dc       ??$_Copy_memmove@PEAW4ECodeType@@PEAW41@@std@@YAPEAW4ECodeType@@PEAW41@00@Z 00000001400039dc f i charset.obj
 0001:000029dc       ??$_Copy_memmove@PEA_WPEA_W@std@@YAPEA_WPEA_W00@Z 00000001400039dc f i StdControl.obj
 0001:000029dc       ??$_Copy_memmove@PEBNPEAN@std@@YAPEANPEBN0PEAN@Z 00000001400039dc f i CViewCommander_Settings.obj
 0001:000029dc       ??$_Copy_memmove@PEBQEB_WPEAPEB_W@std@@YAPEAPEB_WPEBQEB_W0PEAPEB_W@Z 00000001400039dc f i CGrepAgent.obj
 0001:000029dc       ??$_Copy_memmove@PEB_WPEA_W@std@@YAPEA_WPEB_W0PEA_W@Z 00000001400039dc f i CImpExpManager.obj
 0001:00002a0c       ??$_Reallocate_for@V<lambda_1>@?1??assign@?$basic_string@_WU?$char_traits@_W@std@@V?$allocator@_W@2@@std@@QEAAAEAV34@QEB_W_K@Z@PEB_W@?$basic_string@_WU?$char_traits@_W@std@@V?$allocator@_W@2@@std@@AEAAAEAV01@_KV<lambda_1>@?1??assign@01@QEAAAEAV01@QEB_W0@Z@PEB_W@Z 0000000140003a0c f i StdControl.obj
 0001:00002b30       ?_Xlen_string@std@@YAXXZ   0000000140003b30 f i StdControl.obj
 0001:00002b44       ??$_Allocate_manually_vector_aligned@U_Default_allocate_traits@std@@@std@@YAPEAX_K@Z 0000000140003b44 f i StdControl.obj
 0001:00002b80       ??0bad_array_new_length@std@@QEAA@XZ 0000000140003b80 f i StdControl.obj
 0001:00002ba0       ??1CAppExitException@@UEAA@XZ 0000000140003ba0 f i CReadManager.obj
 0001:00002ba0       ??1CFlowInterruption@@UEAA@XZ 0000000140003ba0 f i CDocFileOperation.obj
 0001:00002ba0       ??1__non_rtti_object@std@@UEAA@XZ 0000000140003ba0 f i libvcruntime:rtti.obj
 0001:00002ba0       ??1bad_alloc@std@@UEAA@XZ  0000000140003ba0 f i StdControl.obj
 0001:00002ba0       ??1bad_array_new_length@std@@UEAA@XZ 0000000140003ba0 f i StdControl.obj
 0001:00002ba0       ??1bad_cast@std@@UEAA@XZ   0000000140003ba0 f i file.obj
 0001:00002ba0       ??1bad_exception@std@@UEAA@XZ 0000000140003ba0 f i libvcruntime:frame.obj
 0001:00002ba0       ??1bad_typeid@std@@UEAA@XZ 0000000140003ba0 f i libvcruntime:rtti.obj
 0001:00002ba0       ??1exception@std@@UEAA@XZ  0000000140003ba0 f i StdControl.obj
 0001:00002ba0       ??1failure@ios_base@std@@UEAA@XZ 0000000140003ba0 f i MessageBoxF.obj
 0001:00002ba0       ??1invalid_argument@std@@UEAA@XZ 0000000140003ba0 f i CDataProfile.obj
 0001:00002ba0       ??1length_error@std@@UEAA@XZ 0000000140003ba0 f i libcpmt:xthrow.obj
 0001:00002ba0       ??1multi_instance_not_allowed@@UEAA@XZ 0000000140003ba0 f i CShareData.obj
 0001:00002ba0       ??1out_of_range@std@@UEAA@XZ 0000000140003ba0 f i CDlgGrep.obj
 0001:00002ba0       ??1regex_error@std@@UEAA@XZ 0000000140003ba0 f i libcpmt:xthrow.obj
 0001:00002ba0       ??1runtime_error@std@@UEAA@XZ 0000000140003ba0 f i MessageBoxF.obj
 0001:00002ba0       ??1system_error@std@@UEAA@XZ 0000000140003ba0 f i MessageBoxF.obj
 0001:00002bb4       ??_ECAppExitException@@UEAAPEAXI@Z 0000000140003bb4 f i * CIL library *:* CIL module *
 0001:00002bb4       ??_ECFlowInterruption@@UEAAPEAXI@Z 0000000140003bb4 f i * CIL library *:* CIL module *
 0001:00002bb4       ??_E__non_rtti_object@std@@UEAAPEAXI@Z 0000000140003bb4 f i libvcruntime:rtti.obj
 0001:00002bb4       ??_Ebad_alloc@std@@UEAAPEAXI@Z 0000000140003bb4 f i * CIL library *:* CIL module *
 0001:00002bb4       ??_Ebad_array_new_length@std@@UEAAPEAXI@Z 0000000140003bb4 f i * CIL library *:* CIL module *
 0001:00002bb4       ??_Ebad_cast@std@@UEAAPEAXI@Z 0000000140003bb4 f i * CIL library *:* CIL module *
 0001:00002bb4       ??_Ebad_exception@std@@UEAAPEAXI@Z 0000000140003bb4 f i libvcruntime:frame.obj
 0001:00002bb4       ??_Ebad_typeid@std@@UEAAPEAXI@Z 0000000140003bb4 f i libvcruntime:rtti.obj
 0001:00002bb4       ??_Edomain_error@std@@UEAAPEAXI@Z 0000000140003bb4 f i * CIL library *:* CIL module *
 0001:00002bb4       ??_Eexception@std@@UEAAPEAXI@Z 0000000140003bb4 f i * CIL library *:* CIL module *
 0001:00002bb4       ??_Einvalid_argument@std@@UEAAPEAXI@Z 0000000140003bb4 f i * CIL library *:* CIL module *
 0001:00002bb4       ??_Elength_error@std@@UEAAPEAXI@Z 0000000140003bb4 f i libcpmt:xthrow.obj
 0001:00002bb4       ??_Elogic_error@std@@UEAAPEAXI@Z 0000000140003bb4 f i * CIL library *:* CIL module *
 0001:00002bb4       ??_Emulti_instance_not_allowed@@UEAAPEAXI@Z 0000000140003bb4 f i * CIL library *:* CIL module *
 0001:00002bb4       ??_Eout_of_range@std@@UEAAPEAXI@Z 0000000140003bb4 f i * CIL library *:* CIL module *
 0001:00002bb4       ??_Eruntime_error@std@@UEAAPEAXI@Z 0000000140003bb4 f i * CIL library *:* CIL module *
 0001:00002bb4       ??_GCAppExitException@@UEAAPEAXI@Z 0000000140003bb4 f i CReadManager.obj
 0001:00002bb4       ??_GCFlowInterruption@@UEAAPEAXI@Z 0000000140003bb4 f i CDocFileOperation.obj
 0001:00002bb4       ??_G__non_rtti_object@std@@UEAAPEAXI@Z 0000000140003bb4 f i libvcruntime:rtti.obj
 0001:00002bb4       ??_Gbad_alloc@std@@UEAAPEAXI@Z 0000000140003bb4 f i StdControl.obj
 0001:00002bb4       ??_Gbad_array_new_length@std@@UEAAPEAXI@Z 0000000140003bb4 f i StdControl.obj
 0001:00002bb4       ??_Gbad_cast@std@@UEAAPEAXI@Z 0000000140003bb4 f i file.obj
 0001:00002bb4       ??_Gbad_exception@std@@UEAAPEAXI@Z 0000000140003bb4 f i libvcruntime:frame.obj
 0001:00002bb4       ??_Gbad_typeid@std@@UEAAPEAXI@Z 0000000140003bb4 f i libvcruntime:rtti.obj
 0001:00002bb4       ??_Gdomain_error@std@@UEAAPEAXI@Z 0000000140003bb4 f i CShareData.obj
 0001:00002bb4       ??_Gexception@std@@UEAAPEAXI@Z 0000000140003bb4 f i StdControl.obj
 0001:00002bb4       ??_Ginvalid_argument@std@@UEAAPEAXI@Z 0000000140003bb4 f i CDataProfile.obj
 0001:00002bb4       ??_Glength_error@std@@UEAAPEAXI@Z 0000000140003bb4 f i libcpmt:xthrow.obj
 0001:00002bb4       ??_Glogic_error@std@@UEAAPEAXI@Z 0000000140003bb4 f i CDataProfile.obj
 0001:00002bb4       ??_Gmulti_instance_not_allowed@@UEAAPEAXI@Z 0000000140003bb4 f i CShareData.obj
 0001:00002bb4       ??_Gout_of_range@std@@UEAAPEAXI@Z 0000000140003bb4 f i CDlgGrep.obj
 0001:00002bb4       ??_Gruntime_error@std@@UEAAPEAXI@Z 0000000140003bb4 f i MessageBoxF.obj
 0001:00002bf8       ??0bad_array_new_length@std@@QEAA@AEBV01@@Z 0000000140003bf8 f i StdControl.obj
 0001:00002c34       ??0bad_alloc@std@@QEAA@AEBV01@@Z 0000000140003c34 f i StdControl.obj
 0001:00002c70       ?what@exception@std@@UEBAPEBDXZ 0000000140003c70 f i StdControl.obj
 0001:00002c84       ??0exception@std@@QEAA@AEBV01@@Z 0000000140003c84 f i StdControl.obj
 0001:00002cb8       ?_Throw_bad_array_new_length@std@@YAXXZ 0000000140003cb8 f i StdControl.obj
 0001:00002cb8       ?__scrt_throw_std_bad_array_new_length@@YAXXZ 0000000140003cb8 f i LIBCMT:throw_bad_alloc.obj
 0001:00002cd8       ??$_Reallocate_grow_by@V<lambda_1>@?1??append@?$basic_string@_WU?$char_traits@_W@std@@V?$allocator@_W@2@@std@@QEAAAEAV34@_K_W@Z@_K_W@?$basic_string@_WU?$char_traits@_W@std@@V?$allocator@_W@2@@std@@AEAAAEAV01@_KV<lambda_1>@?1??append@01@QEAAAEAV01@0_W@Z@_K_W@Z 0000000140003cd8 f i StdControl.obj
 0001:00002e58       ?append@?$basic_string@_WU?$char_traits@_W@std@@V?$allocator@_W@2@@std@@QEAAAEAV12@_K_W@Z 0000000140003e58 f i StdControl.obj
 0001:00002ed0       ??0_bstr_t@@QEAA@PEB_W@Z   0000000140003ed0 f i CErrorInfo.obj
 0001:00002f60       ??1_bstr_t@@QEAA@XZ        0000000140003f60 f i CErrorInfo.obj
 0001:00002fc4       ??0CErrorInfo@@QEAA@V?$basic_string_view@_WU?$char_traits@_W@std@@@std@@0@Z 0000000140003fc4 f   CErrorInfo.obj
 0001:00003010       ?GetGUID@CErrorInfo@@UEAAJPEAU_GUID@@@Z 0000000140004010 f   CErrorInfo.obj
 0001:0000302c       ?GetSource@CErrorInfo@@UEAAJPEAPEA_W@Z 000000014000402c f   CErrorInfo.obj
 0001:0000308c       ?GetDescription@CErrorInfo@@UEAAJPEAPEA_W@Z 000000014000408c f   CErrorInfo.obj
 0001:000030ec       ?GetHelpFile@CErrorInfo@@UEAAJPEAPEA_W@Z 00000001400040ec f   CErrorInfo.obj
 0001:00003124       ?GetHelpContext@CErrorInfo@@UEAAJPEAK@Z 0000000140004124 f   CErrorInfo.obj
 0001:00003138       ?Release@?$TComImpl@UIErrorInfo@@U?$default_delete@UIErrorInfo@@@std@@$0A@@@UEAAKXZ 0000000140004138 f i CErrorInfo.obj
 0001:0000315c       ?AddRef@?$TComImpl@UIErrorInfo@@U?$default_delete@UIErrorInfo@@@std@@$0A@@@UEAAKXZ 000000014000415c f i CErrorInfo.obj
 0001:0000315c       ?AddRef@CEnumFORMATETC@@UEAAKXZ 000000014000415c f i CDropTarget.obj
 0001:0000316c       ?QueryInterface@?$TComImpl@UIErrorInfo@@U?$default_delete@UIErrorInfo@@@std@@$0A@@@UEAAJAEBU_GUID@@PEAPEAX@Z 000000014000416c f i CErrorInfo.obj
 0001:000031e8       ?MergeRect@@YA?AVCMyRect@@AEBV1@0@Z 00000001400041e8 f   CMyRect.obj
 0001:0000322c       ?DragLeave@CEditWnd@@QEAAJXZ 000000014000422c f i CEditWnd.obj
 0001:0000322c       ?EnableModeless@CWSHSite@@UEAAJH@Z 000000014000422c f i CWSH.obj
 0001:0000322c       ?GetFirstPane@CSplitterWnd@@QEAAHXZ 000000014000422c f i CSplitterWnd.obj
 0001:0000322c       ?GetStrategyColorInfo@CColorStrategy@@UEBAPEAVCLayoutColorInfo@@XZ 000000014000422c f i CColorStrategy.obj
 0001:0000322c       ?OnActivate@CDialog@@UEAAH_K_J@Z 000000014000422c f i CAutoReloadAgent.obj
 0001:0000322c       ?OnBeforeClose@CDocListener@@UEAA?AW4ECallbackResult@@XZ 000000014000422c f i CAutoReloadAgent.obj
 0001:0000322c       ?OnCbnEditChange@CDialog@@UEAAHPEAUHWND__@@H@Z 000000014000422c f i CAutoReloadAgent.obj
 0001:0000322c       ?OnCbnSelChange@CDialog@@UEAAHPEAUHWND__@@H@Z 000000014000422c f i CAutoReloadAgent.obj
 0001:0000322c       ?OnCheckLoad@CDocListener@@UEAA?AW4ECallbackResult@@PEAUSLoadInfo@@@Z 000000014000422c f i CAutoReloadAgent.obj
 0001:0000322c       ?OnCheckSave@CDocListener@@UEAA?AW4ECallbackResult@@PEAUSSaveInfo@@@Z 000000014000422c f i CAutoReloadAgent.obj
 0001:0000322c       ?OnEnChange@CDialog@@UEAAHPEAUHWND__@@H@Z 000000014000422c f i CAutoReloadAgent.obj
 0001:0000322c       ?OnEnKillFocus@CDialog@@UEAAHPEAUHWND__@@H@Z 000000014000422c f i CAutoReloadAgent.obj
 0001:0000322c       ?OnEnSetFocus@CDialog@@UEAAHPEAUHWND__@@H@Z 000000014000422c f i CAutoReloadAgent.obj
 0001:0000322c       ?OnEnterScript@CWSHSite@@UEAAJXZ 000000014000422c f i CWSH.obj
 0001:0000322c       ?OnKillFocus@CDialog@@UEAAH_K_J@Z 000000014000422c f i CAutoReloadAgent.obj
 0001:0000322c       ?OnLbnDblclk@CDialog@@UEAAHH@Z 000000014000422c f i CAutoReloadAgent.obj
 0001:0000322c       ?OnLbnSelChange@CDialog@@UEAAHPEAUHWND__@@H@Z 000000014000422c f i CAutoReloadAgent.obj
 0001:0000322c       ?OnLeaveScript@CWSHSite@@UEAAJXZ 000000014000422c f i CWSH.obj
 0001:0000322c       ?OnNotify@CDialog@@UEAAHPEAUtagNMHDR@@@Z 000000014000422c f i CAutoReloadAgent.obj
 0001:0000322c       ?OnPreBeforeSave@CDocListener@@UEAA?AW4ECallbackResult@@PEAUSSaveInfo@@@Z 000000014000422c f i CAutoReloadAgent.obj
 0001:0000322c       ?OnScriptTerminate@CWSHSite@@UEAAJPEBUtagVARIANT@@PEBUtagEXCEPINFO@@@Z 000000014000422c f i CWSH.obj
 0001:0000322c       ?OnStateChange@CWSHSite@@UEAAJW4tagSCRIPTSTATE@@@Z 000000014000422c f i CWSH.obj
 0001:0000322c       ?OnStnClicked@CDialog@@UEAAHH@Z 000000014000422c f i CAutoReloadAgent.obj
 0001:0000322c       ?Release@?$CYbInterfaceImpl@UIDataObject@@@@UEAAKXZ 000000014000422c f i CEditView_Mouse.obj
 0001:0000322c       ?Release@?$CYbInterfaceImpl@UIDropSource@@@@UEAAKXZ 000000014000422c f i CEditWnd.obj
 0001:0000322c       ?Release@?$CYbInterfaceImpl@UIDropTarget@@@@UEAAKXZ 000000014000422c f i CDropTarget.obj
 0001:0000322c       ?_Get_deleter@_Ref_count_base@std@@UEBAPEAXAEBVtype_info@@@Z 000000014000422c f i CDlgOpenFile_CommonFileDialog.obj
 0001:0000322c       ?getIndentOffset_Normal@CLayoutMgr@@AEAAHPEAVCLayout@@@Z 000000014000422c f i CLayoutMgr_New.obj
 0001:0000322c       ?showmanyc@?$basic_streambuf@DU?$char_traits@D@std@@@std@@MEAA_JXZ 000000014000422c f i libcpmt:clog.obj
 0001:0000322c       ?showmanyc@?$basic_streambuf@_WU?$char_traits@_W@std@@@std@@MEAA_JXZ 000000014000422c f i window.obj
 0001:0000322c       ?sync@?$basic_streambuf@DU?$char_traits@D@std@@@std@@MEAAHXZ 000000014000422c f i libcpmt:clog.obj
 0001:0000322c       ?sync@?$basic_streambuf@_WU?$char_traits@_W@std@@@std@@MEAAHXZ 000000014000422c f i window.obj
 0001:0000322c       __scrt_exe_initialize_mta  000000014000422c f i LIBCMT:utility_desktop.obj
 0001:0000322c       __scrt_initialize_winrt    000000014000422c f i LIBCMT:utility_desktop.obj
 0001:0000322c       __scrt_stub_for_initialize_mta 000000014000422c f i LIBCMT:utility_desktop.obj
 0001:0000322c       _get_startup_commit_mode   000000014000422c f i LIBCMT:commit_mode.obj
 0001:0000322c       _get_startup_new_mode      000000014000422c f i LIBCMT:new_mode.obj
 0001:0000322c       _get_startup_thread_locale_mode 000000014000422c f i LIBCMT:thread_locale.obj
 0001:0000322c       _matherr                   000000014000422c f i LIBCMT:matherr.obj
 0001:00003230       ??1COleLibrary@@QEAA@XZ    0000000140004230 f i CDropTarget.obj
 0001:00003230       ?DUMP@CDeleteOpe@@UEAAXXZ  0000000140004230 f i COpe.obj
 0001:00003230       ?DUMP@CInsertOpe@@UEAAXXZ  0000000140004230 f i COpe.obj
 0001:00003230       ?DUMP@COpe@@UEAAXXZ        0000000140004230 f i COpe.obj
 0001:00003230       ?DispSpace@CFigure_CtrlCode@@UEBAXAEAVCGraphics@@PEAUDispPos@@PEAVCEditView@@_N@Z 0000000140004230 f i CFigureManager.obj
 0001:00003230       ?DispSpace@CFigure_Eol@@UEBAXAEAVCGraphics@@PEAUDispPos@@PEAVCEditView@@_N@Z 0000000140004230 f i CFigureManager.obj
 0001:00003230       ?InitStrategyStatus@CColor_Found@@UEAAXXZ 0000000140004230 f i CColor_Found.obj
 0001:00003230       ?InitStrategyStatus@CColor_LineComment@@UEAAXXZ 0000000140004230 f i CColorStrategy.obj
 0001:00003230       ?InitStrategyStatus@CColor_Select@@UEAAXXZ 0000000140004230 f i CColorStrategy.obj
 0001:00003230       ?OnAfterLoad@CAutoReloadAgent@@UEAAXAEBUSLoadInfo@@@Z 0000000140004230 f i CAutoReloadAgent.obj
 0001:00003230       ?OnAfterLoad@CDocListener@@UEAAXAEBUSLoadInfo@@@Z 0000000140004230 f i CAutoReloadAgent.obj
 0001:00003230       ?OnAfterSave@CDocListener@@UEAAXAEBUSSaveInfo@@@Z 0000000140004230 f i CAutoReloadAgent.obj
 0001:00003230       ?OnBeforeLoad@CDocListener@@UEAAXPEAUSLoadInfo@@@Z 0000000140004230 f i CAutoReloadAgent.obj
 0001:00003230       ?OnBeforeLoad@CLoadAgent@@UEAAXPEAUSLoadInfo@@@Z 0000000140004230 f i CLoadAgent.obj
 0001:00003230       ?OnBeforeSave@CDocListener@@UEAAXAEBUSSaveInfo@@@Z 0000000140004230 f i CAutoReloadAgent.obj
 0001:00003230       ?OnFinalLoad@CDocListener@@UEAAXW4ELoadResult@@@Z 0000000140004230 f i CAutoReloadAgent.obj
 0001:00003230       ?OnFinalSave@CDocListener@@UEAAXW4ESaveResult@@@Z 0000000140004230 f i CAutoReloadAgent.obj
 0001:00003230       ?OnFinalSave@CSaveAgent@@UEAAXW4ESaveResult@@@Z 0000000140004230 f i CSaveAgent.obj
 0001:00003230       ?OnLoading@CDocListener@@UEAAXH@Z 0000000140004230 f i CAutoReloadAgent.obj
 0001:00003230       ?OnSave@CDocListener@@UEAAXAEBUSSaveInfo@@@Z 0000000140004230 f i CAutoReloadAgent.obj
 0001:00003230       ?OnSaving@CDocListener@@UEAAXH@Z 0000000140004230 f i CAutoReloadAgent.obj
 0001:00003230       ?OnStartScanLogic@CColorStrategy@@UEAAXXZ 0000000140004230 f i CColorStrategy.obj
 0001:00003230       ?ReleaseFuncDesc@CIfObjTypeInfo@@UEAAXPEAUtagFUNCDESC@@@Z 0000000140004230 f i CIfObj.obj
 0001:00003230       ?ReleaseTypeAttr@CIfObjTypeInfo@@UEAAXPEAUtagTYPEATTR@@@Z 0000000140004230 f i CIfObj.obj
 0001:00003230       ?ReleaseVarDesc@CIfObjTypeInfo@@UEAAXPEAUtagVARDESC@@@Z 0000000140004230 f i CIfObj.obj
 0001:00003230       ?SetData@CDialog@@UEAAXXZ  0000000140004230 f i CAutoReloadAgent.obj
 0001:00003230       ?SetStrategyColorInfo@CColorStrategy@@UEAAXPEBVCLayoutColorInfo@@@Z 0000000140004230 f i CColorStrategy.obj
 0001:00003230       ?_Lock@?$basic_streambuf@DU?$char_traits@D@std@@@std@@UEAAXXZ 0000000140004230 f i libcpmt:clog.obj
 0001:00003230       ?_Lock@?$basic_streambuf@_WU?$char_traits@_W@std@@@std@@UEAAXXZ 0000000140004230 f i window.obj
 0001:00003230       ?_Unlock@?$basic_streambuf@DU?$char_traits@D@std@@@std@@UEAAXXZ 0000000140004230 f i libcpmt:clog.obj
 0001:00003230       ?_Unlock@?$basic_streambuf@_WU?$char_traits@_W@std@@@std@@UEAAXXZ 0000000140004230 f i window.obj
 0001:00003230       ?destroy@stl_condition_variable_win7@details@Concurrency@@UEAAXXZ 0000000140004230 f i libcpmt:cond.obj
 0001:00003230       ?destroy@stl_critical_section_win7@details@Concurrency@@UEAAXXZ 0000000140004230 f i libcpmt:mutex.obj
 0001:00003230       ?imbue@?$basic_streambuf@DU?$char_traits@D@std@@@std@@MEAAXAEBVlocale@2@@Z 0000000140004230 f i libcpmt:clog.obj
 0001:00003230       ?imbue@?$basic_streambuf@_WU?$char_traits@_W@std@@@std@@MEAAXAEBVlocale@2@@Z 0000000140004230 f i window.obj
 0001:00003230       ?stdFinishProc@CPPA@@CAXXZ 0000000140004230 f i CPPA.obj
 0001:00003230       __sanitizer_annotate_contiguous_container 0000000140004230 f i libcpmt:asan_noop.obj
 0001:00003230       __sanitizer_annotate_contiguous_container_default 0000000140004230 f i libcpmt:asan_noop.obj
 0001:00003230       _guard_check_icall_nop     0000000140004230 f i LIBCMT:guard_support.obj
 0001:00003230       _initialize_denormal_control 0000000140004230 f i LIBCMT:denormal_control.obj
 0001:00003230       _initialize_invalid_parameter_handler 0000000140004230 f i LIBCMT:invalid_parameter_handler.obj
 0001:00003234       ?OnLoad@CDocListener@@UEAA?AW4ELoadResult@@AEBUSLoadInfo@@@Z 0000000140004234 f i CAutoReloadAgent.obj
 0001:0000323c       ??1CAutoReloadAgent@@UEAA@XZ 000000014000423c f i CAutoReloadAgent.obj
 0001:0000323c       ??1CAutoSaveAgent@@UEAA@XZ 000000014000423c f i CEditDoc.obj
 0001:0000323c       ??1CBackupAgent@@UEAA@XZ   000000014000423c f i CEditDoc.obj
 0001:0000323c       ??1CDocListenerEx@@UEAA@XZ 000000014000423c f i CAutoReloadAgent.obj
 0001:0000323c       ??1CDocLocker@@UEAA@XZ     000000014000423c f i CDocLocker.obj
 0001:0000323c       ??1CMainStatusBar@@UEAA@XZ 000000014000423c f i CEditWnd.obj
 0001:00003244       ?AddRef@?$CYbInterfaceImpl@UIDataObject@@@@UEAAKXZ 0000000140004244 f i CEditView_Mouse.obj
 0001:00003244       ?AddRef@?$CYbInterfaceImpl@UIDropSource@@@@UEAAKXZ 0000000140004244 f i CEditWnd.obj
 0001:00003244       ?AddRef@?$CYbInterfaceImpl@UIDropTarget@@@@UEAAKXZ 0000000140004244 f i CDropTarget.obj
 0001:00003244       ?GetData@CDialog@@UEAAHXZ  0000000140004244 f i CAutoReloadAgent.obj
 0001:00003244       ?GetData@CDlgWindowList@@MEAAHXZ 0000000140004244 f i CDlgWindowList.obj
 0001:00003244       ?OnDeviceChange@CDialog@@UEAAH_K_J@Z 0000000140004244 f i CAutoReloadAgent.obj
 0001:00003244       ?OnDrawItem@CDialog@@UEAAH_K_J@Z 0000000140004244 f i CAutoReloadAgent.obj
 0001:00003244       ?OnKeyDown@CDialog@@UEAAH_K_J@Z 0000000140004244 f i CAutoReloadAgent.obj
 0001:00003244       ?OnMove@CDialog@@UEAAH_K_J@Z 0000000140004244 f i CDialog.obj
 0001:00003244       ?OnTabNotify@CTabWnd@@IEAA_J_K_J@Z 0000000140004244 f i CTabWnd.obj
 0001:00003244       ?OnTimer@CDialog@@UEAAH_K@Z 0000000140004244 f i CAutoReloadAgent.obj
 0001:00003244       ?do_encoding@codecvt_base@std@@MEBAHXZ 0000000140004244 f i libcpmt:clog.obj
 0001:00003244       ?do_max_length@codecvt_base@std@@MEBAHXZ 0000000140004244 f i libcpmt:clog.obj
 0001:00003244       _get_startup_argv_mode     0000000140004244 f i LIBCMT:argv_mode.obj
 0001:0000324c       ?OnVKeyToItem@CDialog@@UEAAH_K_J@Z 000000014000424c f i CAutoReloadAgent.obj
 0001:0000324c       ?overflow@?$basic_streambuf@DU?$char_traits@D@std@@@std@@MEAAHH@Z 000000014000424c f i libcpmt:clog.obj
 0001:0000324c       ?pbackfail@?$basic_streambuf@DU?$char_traits@D@std@@@std@@MEAAHH@Z 000000014000424c f i libcpmt:clog.obj
 0001:0000324c       ?underflow@?$basic_streambuf@DU?$char_traits@D@std@@@std@@MEAAHXZ 000000014000424c f i libcpmt:clog.obj
 0001:00003250       ?GetLimitSize@CFileLoad@@SA_KXZ 0000000140004250 f i CFileLoad.obj
 0001:00003250       ?OnCharToItem@CDialog@@UEAA_J_K_J@Z 0000000140004250 f i CAutoReloadAgent.obj
 0001:00003258       ?GetData@CWSHClient@@UEBAPEAXXZ 0000000140004258 f i CWSH.obj
 0001:00003258       ?GetHwnd@CEditWnd@@QEBAPEAUHWND__@@XZ 0000000140004258 f i CAutoReloadAgent.obj
 0001:00003260       ??_ECDlgFileUpdateQuery@@UEAAPEAXI@Z 0000000140004260 f i * CIL library *:* CIL module *
 0001:00003260       ??_ECDlgJump@@UEAAPEAXI@Z  0000000140004260 f i * CIL library *:* CIL module *
 0001:00003260       ??_GCDlgFileUpdateQuery@@UEAAPEAXI@Z 0000000140004260 f i CAutoReloadAgent.obj
 0001:00003260       ??_GCDlgJump@@UEAAPEAXI@Z  0000000140004260 f i CDlgJump.obj
 0001:00003294       ??1CDlgCancel@@UEAA@XZ     0000000140004294 f i CGrepAgent.obj
 0001:00003294       ??1CDlgCompare@@UEAA@XZ    0000000140004294 f i CViewCommander_Diff.obj
 0001:00003294       ??1CDlgCtrlCode@@UEAA@XZ   0000000140004294 f i CViewCommander_Insert.obj
 0001:00003294       ??1CDlgDiff@@UEAA@XZ       0000000140004294 f i CViewCommander_Diff.obj
 0001:00003294       ??1CDlgFileUpdateQuery@@UEAA@XZ 0000000140004294 f i CAutoReloadAgent.obj
 0001:00003294       ??1CDlgJump@@UEAA@XZ       0000000140004294 f i CDlgJump.obj
 0001:00003294       ??1CDlgPrintSetting@@UEAA@XZ 0000000140004294 f i CEditWnd.obj
 0001:00003294       ??1CDlgSetCharSet@@UEAA@XZ 0000000140004294 f i CDlgSetCharSet.obj
 0001:00003294       ??1CDlgTagsMake@@UEAA@XZ   0000000140004294 f i CViewCommander_TagJump.obj
 0001:00003294       ??1CDlgTypeAscertain@@UEAA@XZ 0000000140004294 f i CDlgTypeAscertain.obj
 0001:00003294       ??1CDlgTypeList@@UEAA@XZ   0000000140004294 f i CViewCommander_Settings.obj
 0001:0000329c       ??0CAutoReloadAgent@@QEAA@XZ 000000014000429c f   CAutoReloadAgent.obj
 0001:000032c8       ??_ECAutoReloadAgent@@UEAAPEAXI@Z 00000001400042c8 f i * CIL library *:* CIL module *
 0001:000032c8       ??_ECAutoSaveAgent@@UEAAPEAXI@Z 00000001400042c8 f i * CIL library *:* CIL module *
 0001:000032c8       ??_ECGrepAgent@@UEAAPEAXI@Z 00000001400042c8 f i * CIL library *:* CIL module *
 0001:000032c8       ??_GCAutoReloadAgent@@UEAAPEAXI@Z 00000001400042c8 f i CAutoReloadAgent.obj
 0001:000032c8       ??_GCAutoSaveAgent@@UEAAPEAXI@Z 00000001400042c8 f i CEditDoc.obj
 0001:000032c8       ??_GCGrepAgent@@UEAAPEAXI@Z 00000001400042c8 f i CGrepAgent.obj
 0001:000032fc       ?OnBeforeSave@CAutoReloadAgent@@UEAAXAEBUSSaveInfo@@@Z 00000001400042fc f   CAutoReloadAgent.obj
 0001:00003300       ?OnAfterSave@CAutoReloadAgent@@UEAAXAEBUSSaveInfo@@@Z 0000000140004300 f   CAutoReloadAgent.obj
 0001:00003314       ?_ToDoChecking@CAutoReloadAgent@@QEBA_NXZ 0000000140004314 f   CAutoReloadAgent.obj
 0001:000033b0       ?_IsFileUpdatedByOther@CAutoReloadAgent@@QEBA_NPEAU_FILETIME@@@Z 00000001400043b0 f   CAutoReloadAgent.obj
 0001:0000343c       ?CheckFileTimeStamp@CAutoReloadAgent@@QEAAXXZ 000000014000443c f   CAutoReloadAgent.obj
 0001:00003670       ?getInstance@?$TSingleton@VCEditWnd@@@@SAPEAVCEditWnd@@XZ 0000000140004670 f i CAutoReloadAgent.obj
 0001:000036e4       __local_stdio_printf_options 00000001400046e4 f i CAutoReloadAgent.obj
 0001:000036ec       ?auto_sprintf@@YAHPEA_WPEB_WZZ 00000001400046ec f i CAutoReloadAgent.obj
 0001:000036ec       _swprintf                  00000001400046ec f i CViewCommander_Clipboard.obj
 0001:00003740       ?GetSYSTEMTIME@CFileTime@@QEBAAEBU_SYSTEMTIME@@XZ 0000000140004740 f i CAutoReloadAgent.obj
 0001:000037b4       ?CheckAutoSave@CAutoSaveAgent@@QEAAXXZ 00000001400047b4 f   CAutoSaveAgent.obj
 0001:00003828       ?ReloadAutoSaveParam@CAutoSaveAgent@@QEAAXXZ 0000000140004828 f   CAutoSaveAgent.obj
 0001:0000385c       ?SetInterval@CPassiveTimer@@QEAAXH@Z 000000014000485c f   CAutoSaveAgent.obj
 0001:0000387c       ?Enable@CPassiveTimer@@QEAAX_N@Z 000000014000487c f   CAutoSaveAgent.obj
 0001:000038a0       ?CheckAction@CPassiveTimer@@QEAA_NXZ 00000001400048a0 f   CAutoSaveAgent.obj
 0001:000038d0       ?OnPreBeforeSave@CBackupAgent@@UEAA?AW4ECallbackResult@@PEAUSSaveInfo@@@Z 00000001400048d0 f   CBackupAgent.obj
 0001:0000397c       ?MakeBackUp@CBackupAgent@@IEAAHPEB_W@Z 000000014000497c f   CBackupAgent.obj
 0001:00003d78       ?FormatBackUpPath@CBackupAgent@@IEAA_NPEA_W_KPEB_W@Z 0000000140004d78 f   CBackupAgent.obj
 0001:00004470       ?_Tidy_deallocate@?$basic_string@_WU?$char_traits@_W@std@@V?$allocator@_W@2@@std@@AEAAXXZ 0000000140005470 f i CBackupAgent.obj
 0001:000044d4       ??1?$basic_string@_WU?$char_traits@_W@std@@V?$allocator@_W@2@@std@@QEAA@XZ 00000001400054d4 f i CBackupAgent.obj
 0001:000044d4       ??1path@filesystem@std@@QEAA@XZ 00000001400054d4 f i CViewCommander_File.obj
 0001:000044dc       ?_Getal@?$_Tree@V?$_Tmap_traits@V?$basic_string@_WU?$char_traits@_W@std@@V?$allocator@_W@2@@std@@V12@U?$less@V?$basic_string@_WU?$char_traits@_W@std@@V?$allocator@_W@2@@std@@@2@V?$allocator@U?$pair@$$CBV?$basic_string@_WU?$char_traits@_W@std@@V?$allocator@_W@2@@std@@V12@@std@@@2@$0A@@std@@@std@@IEAAAEAV?$allocator@U?$_Tree_node@U?$pair@$$CBV?$basic_string@_WU?$char_traits@_W@std@@V?$allocator@_W@2@@std@@V12@@std@@PEAX@std@@@2@XZ 00000001400054dc f i CProfile.obj
 0001:000044dc       ?c_str@?$StaticString@_W$0BAE@@@QEBAPEB_WXZ 00000001400054dc f i CBackupAgent.obj
 0001:000044dc       ?setbuf@?$basic_streambuf@DU?$char_traits@D@std@@@std@@MEAAPEAV12@PEAD_J@Z 00000001400054dc f i libcpmt:clog.obj
 0001:000044dc       ?setbuf@?$basic_streambuf@_WU?$char_traits@_W@std@@@std@@MEAAPEAV12@PEA_W_J@Z 00000001400054dc f i window.obj
 0001:000044e0       ??0?$basic_string_view@_WU?$char_traits@_W@std@@@std@@QEAA@QEB_W@Z 00000001400054e0 f i CBackupAgent.obj
 0001:000044fc       _snwprintf_s               00000001400054fc f i CBackupAgent.obj
 0001:00004558       ??1CLineData@@QEAA@XZ      0000000140005558 f i CViewCommander_Edit.obj
 0001:00004558       ??1CNative@@QEAA@XZ        0000000140005558 f i CCodeChecker.obj
 0001:00004558       ??1CNativeA@@QEAA@XZ       0000000140005558 f i CDlgTagJumpList.obj
 0001:00004558       ??1CNativeW@@QEAA@XZ       0000000140005558 f i CCodeChecker.obj
 0001:00004560       ?CodeToUnicode@CCodeBase@@UEAA?AVCNativeW@@V?$basic_string_view@W4byte@std@@U?$char_traits@W4byte@std@@@2@@std@@PEA_N@Z 0000000140005560 f i CCodeChecker.obj
 0001:00004604       ?UnicodeToCode@CCodeBase@@UEAA?AV?$basic_string@W4byte@std@@U?$char_traits@W4byte@std@@@2@V?$allocator@W4byte@std@@@2@@std@@AEBVCNativeW@@PEA_N@Z 0000000140005604 f i CCodeChecker.obj
 0001:00004748       ?UnicodeToCode@CCodeBase@@UEAA?AW4EConvertResult@@AEBVCStringRef@@PEAVCMemory@@@Z 0000000140005748 f i CCodeChecker.obj
 0001:000047b8       ??0CMemory@@QEAA@XZ        00000001400057b8 f i CCodeChecker.obj
 0001:000047c8       ?CodeToUnicode@CUnicode@@UEAA?AW4EConvertResult@@AEBVCMemory@@PEAVCNativeW@@@Z 00000001400057c8 f i CCodeChecker.obj
 0001:000047dc       ?UnicodeToCode@CUnicode@@UEAA?AW4EConvertResult@@AEBVCNativeW@@PEAVCMemory@@@Z 00000001400057dc f i CCodeChecker.obj
 0001:00004ae4       ?OnCheckSave@CCodeChecker@@UEAA?AW4ECallbackResult@@PEAUSSaveInfo@@@Z 0000000140005ae4 f   CCodeChecker.obj
 0001:00004d78       ??_ECCesu8@@UEAAPEAXI@Z    0000000140005d78 f i * CIL library *:* CIL module *
 0001:00004d78       ??_ECEuc@@UEAAPEAXI@Z      0000000140005d78 f i * CIL library *:* CIL module *
 0001:00004d78       ??_ECLatin1@@UEAAPEAXI@Z   0000000140005d78 f i * CIL library *:* CIL module *
 0001:00004d78       ??_ECShiftJis@@UEAAPEAXI@Z 0000000140005d78 f i * CIL library *:* CIL module *
 0001:00004d78       ??_ECUnicode@@UEAAPEAXI@Z  0000000140005d78 f i * CIL library *:* CIL module *
 0001:00004d78       ??_ECUnicodeBe@@UEAAPEAXI@Z 0000000140005d78 f i * CIL library *:* CIL module *
 0001:00004d78       ??_ECUtf7@@UEAAPEAXI@Z     0000000140005d78 f i * CIL library *:* CIL module *
 0001:00004d78       ??_ECUtf8@@UEAAPEAXI@Z     0000000140005d78 f i * CIL library *:* CIL module *
 0001:00004d78       ??_GCCesu8@@UEAAPEAXI@Z    0000000140005d78 f i CCodeFactory.obj
 0001:00004d78       ??_GCEuc@@UEAAPEAXI@Z      0000000140005d78 f i CCodeFactory.obj
 0001:00004d78       ??_GCLatin1@@UEAAPEAXI@Z   0000000140005d78 f i CCodeFactory.obj
 0001:00004d78       ??_GCShiftJis@@UEAAPEAXI@Z 0000000140005d78 f i CCodeFactory.obj
 0001:00004d78       ??_GCUnicode@@UEAAPEAXI@Z  0000000140005d78 f i CCodeChecker.obj
 0001:00004d78       ??_GCUnicodeBe@@UEAAPEAXI@Z 0000000140005d78 f i CCodeFactory.obj
 0001:00004d78       ??_GCUtf7@@UEAAPEAXI@Z     0000000140005d78 f i CCodeFactory.obj
 0001:00004d78       ??_GCUtf8@@UEAAPEAXI@Z     0000000140005d78 f i CCodeFactory.obj
 0001:00004d9c       ?OnFinalSave@CCodeChecker@@UEAAXW4ESaveResult@@@Z 0000000140005d9c f   CCodeChecker.obj
 0001:00004dcc       ?OnFinalLoad@CCodeChecker@@UEAAXW4ELoadResult@@@Z 0000000140005dcc f   CCodeChecker.obj
 0001:00004dfc       ??1?$basic_string@DU?$char_traits@D@std@@V?$allocator@D@2@@std@@QEAA@XZ 0000000140005dfc f i CharsetDetector.obj
 0001:00004dfc       ??1?$basic_string@W4byte@std@@U?$char_traits@W4byte@std@@@2@V?$allocator@W4byte@std@@@2@@std@@QEAA@XZ 0000000140005dfc f i CCodeChecker.obj
 0001:00004dfc       ??1?$pair@$$CBV?$basic_string@DU?$char_traits@D@std@@V?$allocator@D@2@@std@@G@std@@QEAA@XZ 0000000140005dfc f i CharsetDetector.obj
 0001:00004dfc       ?_Tidy_deallocate@?$basic_string@DU?$char_traits@D@std@@V?$allocator@D@2@@std@@AEAAXXZ 0000000140005dfc f i CharsetDetector.obj
 0001:00004e58       ??0StringBufferW@@QEAA@PEA_W_K@Z 0000000140005e58 f   CDataProfile.obj
 0001:00004ebc       ??0invalid_argument@std@@QEAA@AEBV01@@Z 0000000140005ebc f i CDataProfile.obj
 0001:00004ef8       ??0logic_error@std@@QEAA@AEBV01@@Z 0000000140005ef8 f i CDataProfile.obj
 0001:00004f34       ??4StringBufferW@@QEAAAEAV0@V?$basic_string_view@_WU?$char_traits@_W@std@@@std@@@Z 0000000140005f34 f   CDataProfile.obj
 0001:00004f5c       ?ToString@profile_data@@YA?AV?$basic_string@_WU?$char_traits@_W@std@@V?$allocator@_W@2@@std@@AEBVStringBufferW@@@Z 0000000140005f5c f   CDataProfile.obj
 0001:00004f94       ?IOProfileData@CDataProfile@@QEAA_NV?$basic_string_view@_WU?$char_traits@_W@std@@@std@@0$$QEAVStringBufferW@@@Z 0000000140005f94 f   CDataProfile.obj
 0001:000050f4       ??$_Construct@$00PEB_W@?$basic_string@_WU?$char_traits@_W@std@@V?$allocator@_W@2@@std@@AEAAXQEB_W_K@Z 00000001400060f4 f i CDataProfile.obj
 0001:000051ec       ??0invalid_argument@std@@QEAA@PEBD@Z 00000001400061ec f i CDataProfile.obj
 0001:00005250       ??0?$basic_string@_WU?$char_traits@_W@std@@V?$allocator@_W@2@@std@@QEAA@XZ 0000000140006250 f i CDataProfile.obj
 0001:0000526c       ?Search@CDicMgr@@SAHPEB_WHPEAPEAVCNativeW@@10PEAH@Z 000000014000626c f   CDicMgr.obj
 0001:0000549c       ??1CTextInputStream_AbsIni@@UEAA@XZ 000000014000649c f i CDicMgr.obj
 0001:000054a4       ?HokanSearch@CDicMgr@@SAHPEB_W_NAEAV?$vector_ex@V?$basic_string@_WU?$char_traits@_W@std@@V?$allocator@_W@2@@std@@@@H0@Z 00000001400064a4 f   CDicMgr.obj
 0001:000056cc       ??$_Emplace_reallocate@AEAV?$basic_string@_WU?$char_traits@_W@std@@V?$allocator@_W@2@@std@@@?$vector@V?$basic_string@_WU?$char_traits@_W@std@@V?$allocator@_W@2@@std@@V?$allocator@V?$basic_string@_WU?$char_traits@_W@std@@V?$allocator@_W@2@@std@@@2@@std@@AEAAPEAV?$basic_string@_WU?$char_traits@_W@std@@V?$allocator@_W@2@@1@QEAV21@AEAV21@@Z 00000001400066cc f i CGrepAgent.obj
 0001:000056cc       ??$_Emplace_reallocate@AEBV?$basic_string@_WU?$char_traits@_W@std@@V?$allocator@_W@2@@std@@@?$vector@V?$basic_string@_WU?$char_traits@_W@std@@V?$allocator@_W@2@@std@@V?$allocator@V?$basic_string@_WU?$char_traits@_W@std@@V?$allocator@_W@2@@std@@@2@@std@@AEAAPEAV?$basic_string@_WU?$char_traits@_W@std@@V?$allocator@_W@2@@1@QEAV21@AEBV21@@Z 00000001400066cc f i CDicMgr.obj
 0001:00005844       ?_Change_array@?$vector@V?$basic_string@_WU?$char_traits@_W@std@@V?$allocator@_W@2@@std@@V?$allocator@V?$basic_string@_WU?$char_traits@_W@std@@V?$allocator@_W@2@@std@@@2@@std@@AEAAXQEAV?$basic_string@_WU?$char_traits@_W@std@@V?$allocator@_W@2@@2@_K1@Z 0000000140006844 f i CDicMgr.obj
 0001:000058f4       ?deallocate@?$allocator@V?$basic_string@_WU?$char_traits@_W@std@@V?$allocator@_W@2@@std@@@std@@QEAAXQEAV?$basic_string@_WU?$char_traits@_W@std@@V?$allocator@_W@2@@2@_K@Z 00000001400068f4 f i CDicMgr.obj
 0001:00005938       ??$_Uninitialized_move@PEAV?$basic_string@_WU?$char_traits@_W@std@@V?$allocator@_W@2@@std@@V?$allocator@V?$basic_string@_WU?$char_traits@_W@std@@V?$allocator@_W@2@@std@@@2@@std@@YAPEAV?$basic_string@_WU?$char_traits@_W@std@@V?$allocator@_W@2@@0@QEAV10@0PEAV10@AEAV?$allocator@V?$basic_string@_WU?$char_traits@_W@std@@V?$allocator@_W@2@@std@@@0@@Z 0000000140006938 f i CDicMgr.obj
 0001:000059c8       ??$_Destroy_range@V?$allocator@V?$basic_string@_WU?$char_traits@_W@std@@V?$allocator@_W@2@@std@@@std@@@std@@YAXPEAV?$basic_string@_WU?$char_traits@_W@std@@V?$allocator@_W@2@@0@QEAV10@AEAV?$allocator@V?$basic_string@_WU?$char_traits@_W@std@@V?$allocator@_W@2@@std@@@0@@Z 00000001400069c8 f i CDicMgr.obj
 0001:000059fc       ??$_Construct@$01PEB_W@?$basic_string@_WU?$char_traits@_W@std@@V?$allocator@_W@2@@std@@AEAAXQEB_W_K@Z 00000001400069fc f i CDicMgr.obj
 0001:00005ad4       ??_ECEditApp@@EEAAPEAXI@Z  0000000140006ad4 f i * CIL library *:* CIL module *
 0001:00005ad4       ??_GCEditApp@@EEAAPEAXI@Z  0000000140006ad4 f i CEditApp.obj
 0001:00005b08       ??_ECAppMode@@UEAAPEAXI@Z  0000000140006b08 f i * CIL library *:* CIL module *
 0001:00005b08       ??_GCAppMode@@UEAAPEAXI@Z  0000000140006b08 f i CEditApp.obj
 0001:00005b3c       ?Create@CEditApp@@QEAAXPEAUHINSTANCE__@@H@Z 0000000140006b3c f   CEditApp.obj
 0001:00005d10       ??_ECBackupAgent@@UEAAPEAXI@Z 0000000140006d10 f i * CIL library *:* CIL module *
 0001:00005d10       ??_ECCodeChecker@@UEAAPEAXI@Z 0000000140006d10 f i * CIL library *:* CIL module *
 0001:00005d10       ??_ECDocListener@@UEAAPEAXI@Z 0000000140006d10 f i * CIL library *:* CIL module *
 0001:00005d10       ??_ECLoadAgent@@UEAAPEAXI@Z 0000000140006d10 f i * CIL library *:* CIL module *
 0001:00005d10       ??_ECModifyManager@@UEAAPEAXI@Z 0000000140006d10 f i * CIL library *:* CIL module *
 0001:00005d10       ??_ECMruListener@@UEAAPEAXI@Z 0000000140006d10 f i * CIL library *:* CIL module *
 0001:00005d10       ??_GCBackupAgent@@UEAAPEAXI@Z 0000000140006d10 f i CEditDoc.obj
 0001:00005d10       ??_GCCodeChecker@@UEAAPEAXI@Z 0000000140006d10 f i CEditDoc.obj
 0001:00005d10       ??_GCDocListener@@UEAAPEAXI@Z 0000000140006d10 f i CDocListener.obj
 0001:00005d10       ??_GCLoadAgent@@UEAAPEAXI@Z 0000000140006d10 f i CEditApp.obj
 0001:00005d10       ??_GCModifyManager@@UEAAPEAXI@Z 0000000140006d10 f i CEditDoc.obj
 0001:00005d10       ??_GCMruListener@@UEAAPEAXI@Z 0000000140006d10 f i CEditApp.obj
 0001:00005d44       ??1CEditApp@@EEAA@XZ       0000000140006d44 f   CEditApp.obj
 0001:00005e18       ??_ECVisualProgress@@UEAAPEAXI@Z 0000000140006e18 f i * CIL library *:* CIL module *
 0001:00005e18       ??_GCVisualProgress@@UEAAPEAXI@Z 0000000140006e18 f i CEditApp.obj
 0001:00005e4c       ?OpenPropertySheet@CEditApp@@QEAA_NH@Z 0000000140006e4c f   CEditApp.obj
 0001:00005e90       ?OpenPropertySheetTypes@CEditApp@@QEAA_NHVCTypeConfig@@@Z 0000000140006e90 f   CEditApp.obj
 0001:00005ea4       ?getInstance@?$TSingleton@VCAppMode@@@@SAPEAVCAppMode@@XZ 0000000140006ea4 f i CEditApp.obj
 0001:00005f34       ?_GetEOLType_uni@@YA?AW4EEolType@@PEBDH@Z 0000000140006f34 f   CEol.obj
 0001:00005fb0       ?_GetEOLType_unibe@@YA?AW4EEolType@@PEBDH@Z 0000000140006fb0 f   CEol.obj
 0001:0000602c       ?GetName@CEol@@QEBAPEB_WXZ 000000014000702c f   CEol.obj
 0001:00006040       ?GetValue2@CEol@@QEBAPEB_WXZ 0000000140007040 f   CEol.obj
 0001:00006054       ?GetLen@CEol@@QEBAHXZ      0000000140007054 f   CEol.obj
 0001:00006068       ?SetTypeByString@CEol@@QEAAXPEB_WH@Z 0000000140007068 f   CEol.obj
 0001:0000609c       ?SetTypeByString@CEol@@QEAAXPEBDH@Z 000000014000709c f   CEol.obj
 0001:000060d0       ?SetTypeByStringForFile_uni@CEol@@QEAAXPEBDH@Z 00000001400070d0 f   CEol.obj
 0001:00006104       ?SetTypeByStringForFile_unibe@CEol@@QEAAXPEBDH@Z 0000000140007104 f   CEol.obj
 0001:00006138       ??8@YA_NAEBVCEol@@0@Z      0000000140007138 f   CEol.obj
 0001:00006140       ??9@YA_NAEBVCEol@@0@Z      0000000140007140 f   CEol.obj
 0001:00006150       ??8@YA_NW4EEolType@@AEBVCEol@@@Z 0000000140007150 f   CEol.obj
 0001:00006158       ??$GetEOLType@_W@@YA?AW4EEolType@@PEB_WH@Z 0000000140007158 f i CEol.obj
 0001:000061b8       ??$GetEOLType@D@@YA?AW4EEolType@@PEBDH@Z 00000001400071b8 f i CEol.obj
 0001:00006224       ?AppendExt@CFileExt@@QEAA_NPEB_W0@Z 0000000140007224 f   CFileExt.obj
 0001:000062a0       ?AppendExtRaw@CFileExt@@QEAA_NPEB_W0@Z 00000001400072a0 f   CFileExt.obj
 0001:000063e0       ??1SFileExtInfo@CFileExt@@QEAA@XZ 00000001400073e0 f i CFileExt.obj
 0001:00006400       ?GetExtFilter@CFileExt@@QEAAPEB_WXZ 0000000140007400 f   CFileExt.obj
 0001:0000641c       ?CreateExtFilter@CFileExt@@AEBAXAEAV?$vector@_WV?$allocator@_W@std@@@std@@@Z 000000014000741c f   CFileExt.obj
 0001:00006664       ?assign@?$basic_string@_WU?$char_traits@_W@std@@V?$allocator@_W@2@@std@@QEAAAEAV12@QEB_W@Z 0000000140007664 f i CFileExt.obj
 0001:000066e0       ??$_Emplace_reallocate@AEB_W@?$vector@_WV?$allocator@_W@std@@@std@@AEAAPEA_WQEA_WAEB_W@Z 00000001400076e0 f i CLayoutMgr.obj
 0001:000066e0       ??$_Emplace_reallocate@_W@?$vector@_WV?$allocator@_W@std@@@std@@AEAAPEA_WQEA_W$$QEA_W@Z 00000001400076e0 f i CFileExt.obj
 0001:000067f0       ??$_Emplace_reallocate@USFileExtInfo@CFileExt@@@?$vector@USFileExtInfo@CFileExt@@V?$allocator@USFileExtInfo@CFileExt@@@std@@@std@@AEAAPEAUSFileExtInfo@CFileExt@@QEAU23@$$QEAU23@@Z 00000001400077f0 f i CFileExt.obj
 0001:000069d4       ??$_Uninitialized_move@PEAUSFileExtInfo@CFileExt@@V?$allocator@USFileExtInfo@CFileExt@@@std@@@std@@YAPEAUSFileExtInfo@CFileExt@@QEAU12@0PEAU12@AEAV?$allocator@USFileExtInfo@CFileExt@@@0@@Z 00000001400079d4 f i CFileExt.obj
 0001:00006aa0       ??$_Reallocate_grow_by@V<lambda_1>@?1??append@?$basic_string@_WU?$char_traits@_W@std@@V?$allocator@_W@2@@std@@QEAAAEAV34@QEB_W_K@Z@PEB_W_K@?$basic_string@_WU?$char_traits@_W@std@@V?$allocator@_W@2@@std@@AEAAAEAV01@_KV<lambda_1>@?1??append@01@QEAAAEAV01@QEB_W0@Z@PEB_W_K@Z 0000000140007aa0 f i CFileExt.obj
 0001:00006c20       ?append@?$basic_string@_WU?$char_traits@_W@std@@V?$allocator@_W@2@@std@@QEAAAEAV12@QEB_W_K@Z 0000000140007c20 f i CFileExt.obj
 0001:00006c9c       ??4?$basic_string@_WU?$char_traits@_W@std@@V?$allocator@_W@2@@std@@QEAAAEAV01@AEBV01@@Z 0000000140007c9c f i CFileExt.obj
 0001:00006d10       ??1CGrepEnumKeys@@QEAA@XZ  0000000140007d10 f i CGrepAgent.obj
 0001:00006ee8       ?GetExcludeFiles@CGrepEnumKeys@@QEBA?AV?$vector@PEB_WV?$allocator@PEB_W@std@@@std@@XZ 0000000140007ee8 f i CGrepAgent.obj
 0001:00006f60       ?GetExcludeFolders@CGrepEnumKeys@@QEBA?AV?$vector@PEB_WV?$allocator@PEB_W@std@@@std@@XZ 0000000140007f60 f i CGrepAgent.obj
 0001:00006fdc       ?SetFileKeys@CGrepEnumKeys@@QEAAHPEB_W@Z 0000000140007fdc f i CGrepAgent.obj
 0001:000071a4       ?SplitPattern@CGrepEnumKeys@@SA?AV?$vector@V?$basic_string@_WU?$char_traits@_W@std@@V?$allocator@_W@2@@std@@V?$allocator@V?$basic_string@_WU?$char_traits@_W@std@@V?$allocator@_W@2@@std@@@2@@std@@PEB_W@Z 00000001400081a4 f i CGrepAgent.obj
 0001:00007330       ?ClearItems@CGrepEnumKeys@@AEAAXXZ 0000000140008330 f i CGrepAgent.obj
 0001:00007480       ?push_back_unique@CGrepEnumKeys@@AEAAXAEAV?$vector@PEB_WV?$allocator@PEB_W@std@@@std@@PEB_W@Z 0000000140008480 f i CGrepAgent.obj
 0001:0000754c       ??1CGrepEnumFileBase@@UEAA@XZ 000000014000854c f i CGrepAgent.obj
 0001:00007618       ?IsValid@CGrepEnumFileBase@@UEAAHAEAU_WIN32_FIND_DATAW@@PEB_W@Z 0000000140008618 f i CGrepAgent.obj
 0001:00007698       ?Enumerates@CGrepEnumFileBase@@QEAAHPEB_WAEAV?$vector@PEB_WV?$allocator@PEB_W@std@@@std@@AEAVCGrepEnumOptions@@PEAV1@@Z 0000000140008698 f i CGrepAgent.obj
 0001:00007ac0       ??_ECGrepEnumFileBase@@UEAAPEAXI@Z 0000000140008ac0 f i * CIL library *:* CIL module *
 0001:00007ac0       ??_GCGrepEnumFileBase@@UEAAPEAXI@Z 0000000140008ac0 f i CGrepAgent.obj
 0001:00007af4       ??1CGrepEnumFiles@@UEAA@XZ 0000000140008af4 f i CGrepAgent.obj
 0001:00007b04       ?IsValid@CGrepEnumFiles@@UEAAHAEAU_WIN32_FIND_DATAW@@PEB_W@Z 0000000140008b04 f i CGrepAgent.obj
 0001:00007b24       ??_ECGrepEnumFiles@@UEAAPEAXI@Z 0000000140008b24 f i * CIL library *:* CIL module *
 0001:00007b24       ??_GCGrepEnumFiles@@UEAAPEAXI@Z 0000000140008b24 f i CGrepAgent.obj
 0001:00007b64       ??1CGrepEnumFilterFiles@@UEAA@XZ 0000000140008b64 f i CGrepAgent.obj
 0001:00007ba4       ?IsValid@CGrepEnumFilterFiles@@UEAAHAEAU_WIN32_FIND_DATAW@@PEB_W@Z 0000000140008ba4 f i CGrepAgent.obj
 0001:00007c08       ??_ECGrepEnumFilterFiles@@UEAAPEAXI@Z 0000000140008c08 f i * CIL library *:* CIL module *
 0001:00007c08       ??_GCGrepEnumFilterFiles@@UEAAPEAXI@Z 0000000140008c08 f i CGrepAgent.obj
 0001:00007c6c       ??1CGrepEnumFolders@@UEAA@XZ 0000000140008c6c f i CGrepAgent.obj
 0001:00007c7c       ?IsValid@CGrepEnumFolders@@UEAAHAEAU_WIN32_FIND_DATAW@@PEB_W@Z 0000000140008c7c f i CGrepAgent.obj
 0001:00007d04       ??_ECGrepEnumFolders@@UEAAPEAXI@Z 0000000140008d04 f i * CIL library *:* CIL module *
 0001:00007d04       ??_GCGrepEnumFolders@@UEAAPEAXI@Z 0000000140008d04 f i CGrepAgent.obj
 0001:00007d44       ??1CGrepEnumFilterFolders@@UEAA@XZ 0000000140008d44 f i CGrepAgent.obj
 0001:00007d84       ?IsValid@CGrepEnumFilterFolders@@UEAAHAEAU_WIN32_FIND_DATAW@@PEB_W@Z 0000000140008d84 f i CGrepAgent.obj
 0001:00007de0       ??_ECGrepEnumFilterFolders@@UEAAPEAXI@Z 0000000140008de0 f i * CIL library *:* CIL module *
 0001:00007de0       ??_GCGrepEnumFilterFolders@@UEAAPEAXI@Z 0000000140008de0 f i CGrepAgent.obj
 0001:00007e44       ??0CError_FileOpen@@QEAA@XZ 0000000140008e44 f i CGrepAgent.obj
 0001:00007e4c       ??1CBinaryInputStream@@UEAA@XZ 0000000140008e4c f i CCodeMediator.obj
 0001:00007e4c       ??1CBinaryOutputStream@@UEAA@XZ 0000000140008e4c f i CGrepAgent.obj
 0001:00007e4c       ??1COutputStream@@UEAA@XZ  0000000140008e4c f i CGrepAgent.obj
 0001:00007e54       ?EscapeStringLiteral@@YA?AVCNativeW@@AEBUSTypeConfig@@AEBV1@@Z 0000000140008e54 f i CGrepAgent.obj
 0001:00007fe4       ??0CGrepAgent@@QEAA@XZ     0000000140008fe4 f   CGrepAgent.obj
 0001:00008014       ?OnBeforeClose@CGrepAgent@@UEAA?AW4ECallbackResult@@XZ 0000000140009014 f   CGrepAgent.obj
 0001:0000805c       ?OnAfterSave@CGrepAgent@@UEAAXAEBUSSaveInfo@@@Z 000000014000905c f   CGrepAgent.obj
 0001:00008078       ?CreateFolders@CGrepAgent@@SAXPEB_WAEAV?$vector@V?$basic_string@_WU?$char_traits@_W@std@@V?$allocator@_W@2@@std@@V?$allocator@V?$basic_string@_WU?$char_traits@_W@std@@V?$allocator@_W@2@@std@@@2@@std@@@Z 0000000140009078 f   CGrepAgent.obj
 0001:00008314       ?ChopYen@CGrepAgent@@SA?AV?$basic_string@_WU?$char_traits@_W@std@@V?$allocator@_W@2@@std@@AEBV23@@Z 0000000140009314 f   CGrepAgent.obj
 0001:000083c8       ?AddTail@CGrepAgent@@QEAAXPEAVCEditView@@AEBVCNativeW@@_N@Z 00000001400093c8 f   CGrepAgent.obj
 0001:00008508       ?GetHwndTitle@@YAHAEAPEAUHWND__@@PEAVCNativeW@@PEA_W2PEB_W@Z 0000000140009508 f   CGrepAgent.obj
 0001:00008794       ?DoGrep@CGrepAgent@@QEAAKPEAVCEditView@@_NPEBVCNativeW@@2221H11AEBUSSearchOption@@W4ECodeType@@HH11111@Z 0000000140009794 f   CGrepAgent.obj
 0001:00009eb0       ?DoGrepTree@CGrepAgent@@AEAAHPEAVCEditView@@PEAVCDlgCancel@@PEB_WAEBVCNativeW@@AEAVCGrepEnumKeys@@AEAVCGrepEnumFiles@@AEAVCGrepEnumFolders@@22AEBUSSearchOption@@AEBUSGrepOption@@AEBVCSearchStringPattern@@PEAVCBregexp@@HAEA_NPEAHAEAV4@AEAV4@@Z 000000014000aeb0 f   CGrepAgent.obj
 0001:0000a854       ?SetGrepResult@CGrepAgent@@AEAAXAEAVCNativeW@@PEB_W1_JH1HH1HAEBUSGrepOption@@@Z 000000014000b854 f   CGrepAgent.obj
 0001:0000ae70       ?DoGrepFile@CGrepAgent@@AEAAHPEAVCEditView@@PEAVCDlgCancel@@PEAUHWND__@@PEB_W3AEBUSSearchOption@@AEBUSGrepOption@@AEBVCSearchStringPattern@@PEAVCBregexp@@PEAH3333AEA_N9AEAVCNativeW@@AEAV9@@Z 000000014000be70 f   CGrepAgent.obj
 0001:0000c2c0       ??1CFileLoadOrWnd@@QEAA@XZ 000000014000d2c0 f i CGrepAgent.obj
 0001:0000c2c8       ??1CError_WriteFileOpen@@UEAA@XZ 000000014000d2c8 f i CGrepAgent.obj
 0001:0000c2d4       ??_ECError_WriteFileOpen@@UEAAPEAXI@Z 000000014000d2d4 f i * CIL library *:* CIL module *
 0001:0000c2d4       ??_GCError_WriteFileOpen@@UEAAPEAXI@Z 000000014000d2d4 f i CGrepAgent.obj
 0001:0000c300       ?AppendBuffer@CWriteData@@QEAAXAEBVCNativeW@@@Z 000000014000d300 f i CGrepAgent.obj
 0001:0000c4f0       ?OutputHead@CWriteData@@QEAAXXZ 000000014000d4f0 f i CGrepAgent.obj
 0001:0000c704       ?Output@CWriteData@@QEAAXAEBVCNativeW@@@Z 000000014000d704 f i CGrepAgent.obj
 0001:0000c7a8       ?Close@CWriteData@@QEAAXXZ 000000014000d7a8 f i CGrepAgent.obj
 0001:0000ca20       ??1CWriteData@@QEAA@XZ     000000014000da20 f i CGrepAgent.obj
 0001:0000cabc       ??0CError_WriteFileOpen@@QEAA@AEBV0@@Z 000000014000dabc f i CGrepAgent.obj
 0001:0000cabc       ??0CError_WriteFileOpen@@QEAA@XZ 000000014000dabc f i CGrepAgent.obj
 0001:0000cacc       ??_ECBinaryInputStream@@UEAAPEAXI@Z 000000014000dacc f i * CIL library *:* CIL module *
 0001:0000cacc       ??_ECBinaryOutputStream@@UEAAPEAXI@Z 000000014000dacc f i * CIL library *:* CIL module *
 0001:0000cacc       ??_ECStream@@UEAAPEAXI@Z   000000014000dacc f i * CIL library *:* CIL module *
 0001:0000cacc       ??_GCBinaryInputStream@@UEAAPEAXI@Z 000000014000dacc f i CBinaryStream.obj
 0001:0000cacc       ??_GCBinaryOutputStream@@UEAAPEAXI@Z 000000014000dacc f i CGrepAgent.obj
 0001:0000cacc       ??_GCStream@@UEAAPEAXI@Z   000000014000dacc f i CStream.obj
 0001:0000cb00       ?DoGrepReplaceFile@CGrepAgent@@AEAAHPEAVCEditView@@PEAVCDlgCancel@@PEB_WAEBVCNativeW@@2AEBUSSearchOption@@AEBUSGrepOption@@AEBVCSearchStringPattern@@PEAVCBregexp@@PEAH2222AEA_N9AEAV4@AEAV4@@Z 000000014000db00 f   CGrepAgent.obj
 0001:0000db14       ??1?$deque@VCNativeW@@V?$allocator@VCNativeW@@@std@@@std@@QEAA@XZ 000000014000eb14 f i CGrepAgent.obj
 0001:0000db38       ??1?$vector@U?$pair@PEB_WH@std@@V?$allocator@U?$pair@PEB_WH@std@@@2@@std@@QEAA@XZ 000000014000eb38 f i CGrepAgent.obj
 0001:0000db38       ??1?$vector@U_COMDLG_FILTERSPEC@@V?$allocator@U_COMDLG_FILTERSPEC@@@std@@@std@@QEAA@XZ 000000014000eb38 f i CDlgOpenFile_CommonItemDialog.obj
 0001:0000db38       ??1?$vector@U_Loop_vals_t@std@@V?$allocator@U_Loop_vals_t@std@@@2@@std@@QEAA@XZ 000000014000eb38 f i file.obj
 0001:0000db38       ??1?$vector@VCMyRect@@V?$allocator@VCMyRect@@@std@@@std@@QEAA@XZ 000000014000eb38 f i CEditView_Paint.obj
 0001:0000db38       ??1?$vector@VCStringRef@@V?$allocator@VCStringRef@@@std@@@std@@QEAA@XZ 000000014000eb38 f i CViewCommander_Edit_advanced.obj
 0001:0000db94       ??1?$list@V?$basic_string@_WU?$char_traits@_W@std@@V?$allocator@_W@2@@std@@V?$allocator@V?$basic_string@_WU?$char_traits@_W@std@@V?$allocator@_W@2@@std@@@2@@std@@QEAA@XZ 000000014000eb94 f i CGrepAgent.obj
 0001:0000dbf8       ??1?$LockGuard@VCMutex@@@@QEAA@XZ 000000014000ebf8 f i CGrepAgent.obj
 0001:0000dc08       ??1?$unique_ptr@VCCodeBase@@U?$default_delete@VCCodeBase@@@std@@@std@@QEAA@XZ 000000014000ec08 f i CGrepAgent.obj
 0001:0000dc08       ??1?$unique_ptr@VCDataProfile@@U?$default_delete@VCDataProfile@@@std@@@std@@QEAA@XZ 000000014000ec08 f i CDlgPluginOption.obj
 0001:0000dc08       ??1?$unique_ptr@V_Facet_base@std@@U?$default_delete@V_Facet_base@std@@@2@@std@@QEAA@XZ 000000014000ec08 f i file.obj
 0001:0000dc08       ??1?$unique_ptr@V_Node_assert@std@@U?$default_delete@V_Node_assert@std@@@2@@std@@QEAA@XZ 000000014000ec08 f i file.obj
 0001:0000dc24       ?push_back@?$vector@V?$basic_string@_WU?$char_traits@_W@std@@V?$allocator@_W@2@@std@@V?$allocator@V?$basic_string@_WU?$char_traits@_W@std@@V?$allocator@_W@2@@std@@@2@@std@@QEAAX$$QEAV?$basic_string@_WU?$char_traits@_W@std@@V?$allocator@_W@2@@2@@Z 000000014000ec24 f i CGrepAgent.obj
 0001:0000dc90       ??1?$vector@V?$basic_string@_WU?$char_traits@_W@std@@V?$allocator@_W@2@@std@@V?$allocator@V?$basic_string@_WU?$char_traits@_W@std@@V?$allocator@_W@2@@std@@@2@@std@@QEAA@XZ 000000014000ec90 f i CGrepAgent.obj
 0001:0000dc90       ??1?$vector_ex@V?$basic_string@_WU?$char_traits@_W@std@@V?$allocator@_W@2@@std@@@@QEAA@XZ 000000014000ec90 f i CHokanMgr.obj
 0001:0000dc90       ??1STreeViewSortData@@QEAA@XZ 000000014000ec90 f i CDlgFuncList.obj
 0001:0000dc98       ?getInstance@?$TSingleton@VCFileNameManager@@@@SAPEAVCFileNameManager@@XZ 000000014000ec98 f i CGrepAgent.obj
 0001:0000dd10       ?_Tidy@?$deque@VCNativeW@@V?$allocator@VCNativeW@@@std@@@std@@AEAAXXZ 000000014000ed10 f i CGrepAgent.obj
 0001:0000dde8       ?_Tidy@?$vector@V?$basic_string@_WU?$char_traits@_W@std@@V?$allocator@_W@2@@std@@V?$allocator@V?$basic_string@_WU?$char_traits@_W@std@@V?$allocator@_W@2@@std@@@2@@std@@AEAAXXZ 000000014000ede8 f i CGrepAgent.obj
 0001:0000de74       ??$FormatPathList@V?$vector@PEB_WV?$allocator@PEB_W@std@@@std@@@@YA?AV?$basic_string@_WU?$char_traits@_W@std@@V?$allocator@_W@2@@std@@AEBV?$vector@PEB_WV?$allocator@PEB_W@std@@@1@@Z 000000014000ee74 f i CGrepAgent.obj
 0001:0000e140       ??$FormatPathList@V?$list@V?$basic_string@_WU?$char_traits@_W@std@@V?$allocator@_W@2@@std@@V?$allocator@V?$basic_string@_WU?$char_traits@_W@std@@V?$allocator@_W@2@@std@@@2@@std@@@@YA?AV?$basic_string@_WU?$char_traits@_W@std@@V?$allocator@_W@2@@std@@AEBV?$list@V?$basic_string@_WU?$char_traits@_W@std@@V?$allocator@_W@2@@std@@V?$allocator@V?$basic_string@_WU?$char_traits@_W@std@@V?$allocator@_W@2@@std@@@2@@1@@Z 000000014000f140 f i CGrepAgent.obj
 0001:0000e318       ??$?H_WU?$char_traits@_W@std@@V?$allocator@_W@1@@std@@YA?AV?$basic_string@_WU?$char_traits@_W@std@@V?$allocator@_W@2@@0@$$QEAV10@QEB_W@Z 000000014000f318 f i CGrepAgent.obj
 0001:0000e390       ??0?$basic_string@_WU?$char_traits@_W@std@@V?$allocator@_W@2@@std@@QEAA@U_String_constructor_concat_tag@1@AEBV01@QEB_W_K23@Z 000000014000f390 f i CGrepAgent.obj
 0001:0000e49c       ?_Xlen@?$deque@VCNativeW@@V?$allocator@VCNativeW@@@std@@@std@@AEBAXXZ 000000014000f49c f i CGrepAgent.obj
 0001:0000e4b0       ??$_Insert_counted_range@PEBQEB_W@?$vector@PEB_WV?$allocator@PEB_W@std@@@std@@AEAAXV?$_Vector_const_iterator@V?$_Vector_val@U?$_Simple_types@PEB_W@std@@@std@@@1@PEBQEB_W_K@Z 000000014000f4b0 f i CGrepAgent.obj
 0001:0000e684       ??$_Emplace_reallocate@AEAPEA_WAEAK@?$vector@U?$pair@PEA_WK@std@@V?$allocator@U?$pair@PEA_WK@std@@@2@@std@@AEAAPEAU?$pair@PEA_WK@1@QEAU21@AEAPEA_WAEAK@Z 000000014000f684 f i CGrepAgent.obj
 0001:0000e7e8       ??$int2dec@_J_W@@YA_J_JPEA_W@Z 000000014000f7e8 f i CGrepAgent.obj
 0001:0000e8e4       ??$int2dec@H_W@@YA_JHPEA_W@Z 000000014000f8e4 f i CGrepAgent.obj
 0001:0000e9d0       ??$_Emplace_reallocate@V?$basic_string@_WU?$char_traits@_W@std@@V?$allocator@_W@2@@std@@@?$vector@V?$basic_string@_WU?$char_traits@_W@std@@V?$allocator@_W@2@@std@@V?$allocator@V?$basic_string@_WU?$char_traits@_W@std@@V?$allocator@_W@2@@std@@@2@@std@@AEAAPEAV?$basic_string@_WU?$char_traits@_W@std@@V?$allocator@_W@2@@1@QEAV21@$$QEAV21@@Z 000000014000f9d0 f i CGrepAgent.obj
 0001:0000eb28       ??$uninitialized_copy@PEAPEAVCNativeW@@PEAPEAV1@@std@@YAPEAPEAVCNativeW@@QEAPEAV1@0PEAPEAV1@@Z 000000014000fb28 f i CGrepAgent.obj
 0001:0000eb30       ??$_Uninitialized_value_construct_n_unchecked1@PEAPEAVCNativeW@@_K@std@@YAPEAPEAVCNativeW@@PEAPEAV1@_K@Z 000000014000fb30 f i CGrepAgent.obj
 0001:0000eb3c       ??1?$_Alloc_construct_ptr@V?$allocator@U?$_List_node@V?$basic_string@_WU?$char_traits@_W@std@@V?$allocator@_W@2@@std@@PEAX@std@@@std@@@std@@QEAA@XZ 000000014000fb3c f i CGrepAgent.obj
 0001:0000eb3c       ??1?$_Alloc_construct_ptr@V?$allocator@U?$_Tree_node@U?$pair@$$CB_WPEAU_TREEITEM@@@std@@PEAX@std@@@std@@@std@@QEAA@XZ 000000014000fb3c f i CPropComMainMenu.obj
 0001:0000eb58       ??$__std_find_trivial@$$CB_WG@@YAPEB_WPEB_W0G@Z 000000014000fb58 f i file.obj
 0001:0000eb58       ??$__std_find_trivial@$$CB_W_W@@YAPEB_WPEB_W0_W@Z 000000014000fb58 f i CDlgProfileMgr.obj
 0001:0000eb58       ??$__std_find_trivial@_W_W@@YAPEA_WPEA_W0_W@Z 000000014000fb58 f i CGrepAgent.obj
 0001:0000eb60       ??$_Copy_memmove_n@PEAPEAUHBRUSH__@@PEAPEAU1@@std@@YAPEAPEAUHBRUSH__@@PEAPEAU1@_K0@Z 000000014000fb60 f i CEditView_Paint.obj
 0001:0000eb60       ??$_Copy_memmove_n@PEAPEAUHPEN__@@PEAPEAU1@@std@@YAPEAPEAUHPEN__@@PEAPEAU1@_K0@Z 000000014000fb60 f i CEditView_Paint.obj
 0001:0000eb60       ??$_Copy_memmove_n@PEAPEAUHRGN__@@PEAPEAU1@@std@@YAPEAPEAUHRGN__@@PEAPEAU1@_K0@Z 000000014000fb60 f i CEditView_Paint.obj
 0001:0000eb60       ??$_Copy_memmove_n@PEAPEB_WPEAPEB_W@std@@YAPEAPEB_WPEAPEB_W_K0@Z 000000014000fb60 f i CDlgOpenFile_CommonFileDialog.obj
 0001:0000eb60       ??$_Copy_memmove_n@PEBQEB_WPEAPEB_W@std@@YAPEAPEB_WPEBQEB_W_KPEAPEB_W@Z 000000014000fb60 f i CGrepAgent.obj
 0001:0000eb6c       ??$_Copy_backward_memmove@PEAPEAUSORTDATA@@PEAPEAU1@@std@@YAPEAPEAUSORTDATA@@PEAPEAU1@00@Z 000000014000fb6c f i CViewCommander_Edit_advanced.obj
 0001:0000eb6c       ??$_Copy_backward_memmove@PEAPEAVCPlug@@PEAPEAV1@@std@@YAPEAPEAVCPlug@@PEAPEAV1@00@Z 000000014000fb6c f i CJackManager.obj
 0001:0000eb6c       ??$_Copy_backward_memmove@PEAPEB_WPEAPEB_W@std@@YAPEAPEB_WPEAPEB_W00@Z 000000014000fb6c f i CGrepAgent.obj
 0001:0000eb84       ??1?$unique_ptr@$$BY0A@DU?$default_delete@$$BY0A@D@std@@@std@@QEAA@XZ 000000014000fb84 f i CCodeMediator.obj
 0001:0000eb84       ??1?$unique_ptr@$$BY0A@HU?$default_delete@$$BY0A@H@std@@@std@@QEAA@XZ 000000014000fb84 f i CWSHIfObj.obj
 0001:0000eb84       ??1?$unique_ptr@$$BY0A@PEA_WU?$default_delete@$$BY0A@PEA_W@std@@@std@@QEAA@XZ 000000014000fb84 f i CWSHIfObj.obj
 0001:0000eb84       ??1?$unique_ptr@$$BY0A@USOneRule@@U?$default_delete@$$BY0A@USOneRule@@@std@@@std@@QEAA@XZ 000000014000fb84 f i CDocOutline.obj
 0001:0000eb84       ??1?$unique_ptr@$$BY0A@UtagVARIANT@@U?$default_delete@$$BY0A@UtagVARIANT@@@std@@@std@@QEAA@XZ 000000014000fb84 f i CWSHIfObj.obj
 0001:0000eb84       ??1?$unique_ptr@$$BY0A@_WU?$default_delete@$$BY0A@_W@std@@@std@@QEAA@XZ 000000014000fb84 f i CGrepAgent.obj
 0001:0000eb9c       ??$_Reallocate_grow_by@V<lambda_1>@?1??push_back@?$basic_string@_WU?$char_traits@_W@std@@V?$allocator@_W@2@@std@@QEAAX_W@Z@_W@?$basic_string@_WU?$char_traits@_W@std@@V?$allocator@_W@2@@std@@AEAAAEAV01@_KV<lambda_1>@?1??push_back@01@QEAAX_W@Z@_W@Z 000000014000fb9c f i CGrepAgent.obj
 0001:0000ecf8       __local_stdio_scanf_options 000000014000fcf8 f i CGrepAgent.obj
 0001:0000ed00       swscanf_s                  000000014000fd00 f i CGrepAgent.obj
 0001:0000ed50       ?CodeToHex@CCodeBase@@UEAA?AV?$basic_string@_WU?$char_traits@_W@std@@V?$allocator@_W@2@@std@@AEBVCNativeW@@AEBUCommonSetting_Statusbar@@_N@Z 000000014000fd50 f   CCodeBase.obj
 0001:0000ee6c       ?UnicodeToHex@CCodeBase@@UEAA?AW4EConvertResult@@PEB_WHPEA_WPEBUCommonSetting_Statusbar@@@Z 000000014000fe6c f   CCodeBase.obj
 0001:0000ef00       ?MIMEHeaderDecode@CCodeBase@@SA_NPEBDHPEAVCMemory@@W4ECodeType@@@Z 000000014000ff00 f   CCodeBase.obj
 0001:0000f038       ?GetBomDefinition@CCodeBase@@UEAA?AV?$basic_string@W4byte@std@@U?$char_traits@W4byte@std@@@2@V?$allocator@W4byte@std@@@2@@std@@XZ 0000000140010038 f   CCodeBase.obj
 0001:0000f0d4       ?GetBom@CCodeBase@@QEAAXPEAVCMemory@@@Z 00000001400100d4 f   CCodeBase.obj
 0001:0000f180       ?GetEolDefinitions@CCodeBase@@UEAA?AV?$map@W4EEolType@@V?$basic_string@W4byte@std@@U?$char_traits@W4byte@std@@@2@V?$allocator@W4byte@std@@@2@@std@@U?$less@W4EEolType@@@3@V?$allocator@U?$pair@$$CBW4EEolType@@V?$basic_string@W4byte@std@@U?$char_traits@W4byte@std@@@2@V?$allocator@W4byte@std@@@2@@std@@@std@@@3@@std@@XZ 0000000140010180 f   CCodeBase.obj
 0001:0000f478       ??1?$map@W4EEolType@@V?$basic_string@W4byte@std@@U?$char_traits@W4byte@std@@@2@V?$allocator@W4byte@std@@@2@@std@@U?$less@W4EEolType@@@3@V?$allocator@U?$pair@$$CBW4EEolType@@V?$basic_string@W4byte@std@@U?$char_traits@W4byte@std@@@2@V?$allocator@W4byte@std@@@2@@std@@@std@@@3@@std@@QEAA@XZ 0000000140010478 f i CCodeBase.obj
 0001:0000f4a4       ?GetEol@CCodeBase@@QEAAXPEAVCMemory@@W4EEolType@@@Z 00000001400104a4 f   CCodeBase.obj
 0001:0000f580       ??$_DecodeMimeHeader@D@@YAHPEBDHPEAVCMemory@@PEAW4ECodeType@@@Z 0000000140010580 f i CCodeBase.obj
 0001:0000f6ec       ??$strnicmp_literal@$0P@@@YAHPEBDAEAY0P@$$CBD@Z 00000001400106ec f i CCodeBase.obj
 0001:0000f700       ??$strnicmp_literal@$08@@YAHPEBDAEAY08$$CBD@Z 0000000140010700 f i CCodeBase.obj
 0001:0000f714       ??$wcsnicmp_literal@$02@@YAHPEB_WAEAY02$$CB_W@Z 0000000140010714 f i CCodeBase.obj
 0001:0000f728       ??$strnicmp_literal@$02@@YAHPEBDAEAY02$$CBD@Z 0000000140010728 f i CCodeBase.obj
 0001:0000f734       ??$wcsncmp_literal@$02@@YAHPEB_WAEAY02$$CB_W@Z 0000000140010734 f i CCodeBase.obj
 0001:0000f740       ??$strncmp_literal@$02@@YAHPEBDAEAY02$$CBD@Z 0000000140010740 f i CCodeBase.obj
 0001:0000f754       ??$_DecodeBase64@D@@YAHPEBDHPEAD@Z 0000000140010754 f i CCodeBase.obj
 0001:0000f870       ??$_DecodeQP@D@@YAHPEBDHPEAD@Z 0000000140010870 f i CCodeBase.obj
 0001:0000f984       ??$_Erase_tree@V?$allocator@U?$_Tree_node@U?$pair@$$CBW4EEolType@@V?$basic_string@W4byte@std@@U?$char_traits@W4byte@std@@@2@V?$allocator@W4byte@std@@@2@@std@@@std@@PEAX@std@@@std@@@?$_Tree_val@U?$_Tree_simple_types@U?$pair@$$CBW4EEolType@@V?$basic_string@W4byte@std@@U?$char_traits@W4byte@std@@@2@V?$allocator@W4byte@std@@@2@@std@@@std@@@std@@@std@@QEAAXAEAV?$allocator@U?$_Tree_node@U?$pair@$$CBW4EEolType@@V?$basic_string@W4byte@std@@U?$char_traits@W4byte@std@@@2@V?$allocator@W4byte@std@@@2@@std@@@std@@PEAX@std@@@1@PEAU?$_Tree_node@U?$pair@$$CBW4EEolType@@V?$basic_string@W4byte@std@@U?$char_traits@W4byte@std@@@2@V?$allocator@W4byte@std@@@2@@std@@@std@@PEAX@1@@Z 0000000140010984 f i CCodeBase.obj
 0001:0000fa24       ??1?$_Tree_temp_node@V?$allocator@U?$_Tree_node@U?$pair@$$CBW4EEolType@@V?$basic_string@W4byte@std@@U?$char_traits@W4byte@std@@@2@V?$allocator@W4byte@std@@@2@@std@@@std@@PEAX@std@@@std@@@std@@QEAA@XZ 0000000140010a24 f i CCodeBase.obj
 0001:0000faa8       ?_Insert_node@?$_Tree_val@U?$_Tree_simple_types@U?$pair@$$CBHUSCodeSet@@@std@@@std@@@std@@QEAAPEAU?$_Tree_node@U?$pair@$$CBHUSCodeSet@@@std@@PEAX@2@U?$_Tree_id@PEAU?$_Tree_node@U?$pair@$$CBHUSCodeSet@@@std@@PEAX@std@@@2@QEAU32@@Z 0000000140010aa8 f i charset.obj
 0001:0000faa8       ?_Insert_node@?$_Tree_val@U?$_Tree_simple_types@U?$pair@$$CBHUSMainMenuWork@@@std@@@std@@@std@@QEAAPEAU?$_Tree_node@U?$pair@$$CBHUSMainMenuWork@@@std@@PEAX@2@U?$_Tree_id@PEAU?$_Tree_node@U?$pair@$$CBHUSMainMenuWork@@@std@@PEAX@std@@@2@QEAU32@@Z 0000000140010aa8 f i CPropComMainMenu.obj
 0001:0000faa8       ?_Insert_node@?$_Tree_val@U?$_Tree_simple_types@U?$pair@$$CBHV?$basic_string@_WU?$char_traits@_W@std@@V?$allocator@_W@2@@std@@@std@@@std@@@std@@QEAAPEAU?$_Tree_node@U?$pair@$$CBHV?$basic_string@_WU?$char_traits@_W@std@@V?$allocator@_W@2@@std@@@std@@PEAX@2@U?$_Tree_id@PEAU?$_Tree_node@U?$pair@$$CBHV?$basic_string@_WU?$char_traits@_W@std@@V?$allocator@_W@2@@std@@@std@@PEAX@std@@@2@QEAU32@@Z 0000000140010aa8 f i CFuncInfoArr.obj
 0001:0000faa8       ?_Insert_node@?$_Tree_val@U?$_Tree_simple_types@U?$pair@$$CBV?$basic_string@_WU?$char_traits@_W@std@@V?$allocator@_W@2@@std@@PEAUHFONT__@@@std@@@std@@@std@@QEAAPEAU?$_Tree_node@U?$pair@$$CBV?$basic_string@_WU?$char_traits@_W@std@@V?$allocator@_W@2@@std@@PEAUHFONT__@@@std@@PEAX@2@U?$_Tree_id@PEAU?$_Tree_node@U?$pair@$$CBV?$basic_string@_WU?$char_traits@_W@std@@V?$allocator@_W@2@@std@@PEAUHFONT__@@@std@@PEAX@std@@@2@QEAU32@@Z 0000000140010aa8 f i window.obj
 0001:0000faa8       ?_Insert_node@?$_Tree_val@U?$_Tree_simple_types@U?$pair@$$CBV?$basic_string@_WU?$char_traits@_W@std@@V?$allocator@_W@2@@std@@V12@@std@@@std@@@std@@QEAAPEAU?$_Tree_node@U?$pair@$$CBV?$basic_string@_WU?$char_traits@_W@std@@V?$allocator@_W@2@@std@@V12@@std@@PEAX@2@U?$_Tree_id@PEAU?$_Tree_node@U?$pair@$$CBV?$basic_string@_WU?$char_traits@_W@std@@V?$allocator@_W@2@@std@@V12@@std@@PEAX@std@@@2@QEAU32@@Z 0000000140010aa8 f i CProfile.obj
 0001:0000faa8       ?_Insert_node@?$_Tree_val@U?$_Tree_simple_types@U?$pair@$$CBW4EEolType@@V?$basic_string@W4byte@std@@U?$char_traits@W4byte@std@@@2@V?$allocator@W4byte@std@@@2@@std@@@std@@@std@@@std@@QEAAPEAU?$_Tree_node@U?$pair@$$CBW4EEolType@@V?$basic_string@W4byte@std@@U?$char_traits@W4byte@std@@@2@V?$allocator@W4byte@std@@@2@@std@@@std@@PEAX@2@U?$_Tree_id@PEAU?$_Tree_node@U?$pair@$$CBW4EEolType@@V?$basic_string@W4byte@std@@U?$char_traits@W4byte@std@@@2@V?$allocator@W4byte@std@@@2@@std@@@std@@PEAX@std@@@2@QEAU32@@Z 0000000140010aa8 f i CCodeBase.obj
 0001:0000faa8       ?_Insert_node@?$_Tree_val@U?$_Tree_simple_types@U?$pair@$$CB_WPEAU_TREEITEM@@@std@@@std@@@std@@QEAAPEAU?$_Tree_node@U?$pair@$$CB_WPEAU_TREEITEM@@@std@@PEAX@2@U?$_Tree_id@PEAU?$_Tree_node@U?$pair@$$CB_WPEAU_TREEITEM@@@std@@PEAX@std@@@2@QEAU32@@Z 0000000140010aa8 f i CPropComMainMenu.obj
 0001:0000fcd4       ??1?$_Alloc_construct_ptr@V?$allocator@U?$_Tree_node@U?$pair@$$CBHV?$basic_string@_WU?$char_traits@_W@std@@V?$allocator@_W@2@@std@@@std@@PEAX@std@@@std@@@std@@QEAA@XZ 0000000140010cd4 f i CFuncInfoArr.obj
 0001:0000fcd4       ??1?$_Alloc_construct_ptr@V?$allocator@U?$_Tree_node@U?$pair@$$CBV?$basic_string@_WU?$char_traits@_W@std@@V?$allocator@_W@2@@std@@PEAUHFONT__@@@std@@PEAX@std@@@std@@@std@@QEAA@XZ 0000000140010cd4 f i window.obj
 0001:0000fcd4       ??1?$_Alloc_construct_ptr@V?$allocator@U?$_Tree_node@U?$pair@$$CBW4EEolType@@V?$basic_string@W4byte@std@@U?$char_traits@W4byte@std@@@2@V?$allocator@W4byte@std@@@2@@std@@@std@@PEAX@std@@@std@@@std@@QEAA@XZ 0000000140010cd4 f i CCodeBase.obj
 0001:0000fcd4       ??1?$_Tree_temp_node_alloc@V?$allocator@U?$_Tree_node@U?$pair@$$CBHV?$basic_string@_WU?$char_traits@_W@std@@V?$allocator@_W@2@@std@@@std@@PEAX@std@@@std@@@std@@QEAA@XZ 0000000140010cd4 f i CFuncInfoArr.obj
 0001:0000fcf0       ?_Throw_tree_length_error@std@@YAXXZ 0000000140010cf0 f i CCodeBase.obj
 0001:0000fd04       ??$_Construct@$0A@_W@?$basic_string@_WU?$char_traits@_W@std@@V?$allocator@_W@2@@std@@AEAAX_W_K@Z 0000000140010d04 f i CCodeBase.obj
 0001:0000fdfc       ?CodeToUnicode@CShiftJis@@UEAA?AW4EConvertResult@@AEBVCMemory@@PEAVCNativeW@@@Z 0000000140010dfc f i CCodeFactory.obj
 0001:0000fe08       ?UnicodeToCode@CShiftJis@@UEAA?AW4EConvertResult@@AEBVCNativeW@@PEAVCMemory@@@Z 0000000140010e08 f i CCodeFactory.obj
 0001:0000fe14       ?CodeToUnicode@CCodePage@@UEAA?AW4EConvertResult@@AEBVCMemory@@PEAVCNativeW@@@Z 0000000140010e14 f i CCodeFactory.obj
 0001:0000fe2c       ?UnicodeToCode@CCodePage@@UEAA?AW4EConvertResult@@AEBVCNativeW@@PEAVCMemory@@@Z 0000000140010e2c f i CCodeFactory.obj
 0001:0000fe44       ??_ECCodePage@@UEAAPEAXI@Z 0000000140010e44 f i * CIL library *:* CIL module *
 0001:0000fe44       ??_ECConvert_CodeFromSjis@@UEAAPEAXI@Z 0000000140010e44 f i * CIL library *:* CIL module *
 0001:0000fe44       ??_ECConvert_CodeToSjis@@UEAAPEAXI@Z 0000000140010e44 f i * CIL library *:* CIL module *
 0001:0000fe44       ??_ECConvert_Trim@@UEAAPEAXI@Z 0000000140010e44 f i * CIL library *:* CIL module *
 0001:0000fe44       ??_ECJis@@UEAAPEAXI@Z      0000000140010e44 f i * CIL library *:* CIL module *
 0001:0000fe44       ??_E_Generic_error_category@std@@UEAAPEAXI@Z 0000000140010e44 f i * CIL library *:* CIL module *
 0001:0000fe44       ??_E_Iostream_error_category2@std@@UEAAPEAXI@Z 0000000140010e44 f i * CIL library *:* CIL module *
 0001:0000fe44       ??_E_System_error_category@std@@UEAAPEAXI@Z 0000000140010e44 f i * CIL library *:* CIL module *
 0001:0000fe44       ??_GCCodePage@@UEAAPEAXI@Z 0000000140010e44 f i CCodeFactory.obj
 0001:0000fe44       ??_GCConvert_CodeFromSjis@@UEAAPEAXI@Z 0000000140010e44 f i CConvert_CodeFromSjis.obj
 0001:0000fe44       ??_GCConvert_CodeToSjis@@UEAAPEAXI@Z 0000000140010e44 f i CConvert_CodeToSjis.obj
 0001:0000fe44       ??_GCConvert_Trim@@UEAAPEAXI@Z 0000000140010e44 f i CConvert.obj
 0001:0000fe44       ??_GCJis@@UEAAPEAXI@Z      0000000140010e44 f i CCodeFactory.obj
 0001:0000fe44       ??_G_Generic_error_category@std@@UEAAPEAXI@Z 0000000140010e44 f i CControlProcess.obj
 0001:0000fe44       ??_G_Iostream_error_category2@std@@UEAAPEAXI@Z 0000000140010e44 f i MessageBoxF.obj
 0001:0000fe44       ??_G_System_error_category@std@@UEAAPEAXI@Z 0000000140010e44 f i CControlProcess.obj
 0001:0000fe68       ?CodeToUnicode@CEuc@@UEAA?AW4EConvertResult@@AEBVCMemory@@PEAVCNativeW@@@Z 0000000140010e68 f i CCodeFactory.obj
 0001:0000fe74       ?UnicodeToCode@CEuc@@UEAA?AW4EConvertResult@@AEBVCNativeW@@PEAVCMemory@@@Z 0000000140010e74 f i CCodeFactory.obj
 0001:0000fe80       ?CodeToUnicode@CJis@@UEAA?AW4EConvertResult@@AEBVCMemory@@PEAVCNativeW@@@Z 0000000140010e80 f i CCodeFactory.obj
 0001:0000fe98       ?UnicodeToCode@CJis@@UEAA?AW4EConvertResult@@AEBVCNativeW@@PEAVCMemory@@@Z 0000000140010e98 f i CCodeFactory.obj
 0001:0000fea4       ?CodeToUnicode@CUnicodeBe@@UEAA?AW4EConvertResult@@AEBVCMemory@@PEAVCNativeW@@@Z 0000000140010ea4 f i CCodeFactory.obj
 0001:0000feb8       ?UnicodeToCode@CUnicodeBe@@UEAA?AW4EConvertResult@@AEBVCNativeW@@PEAVCMemory@@@Z 0000000140010eb8 f i CCodeFactory.obj
 0001:0000fecc       ?CodeToUnicode@CUtf7@@UEAA?AW4EConvertResult@@AEBVCMemory@@PEAVCNativeW@@@Z 0000000140010ecc f i CCodeFactory.obj
 0001:0000fed8       ?UnicodeToCode@CUtf7@@UEAA?AW4EConvertResult@@AEBVCNativeW@@PEAVCMemory@@@Z 0000000140010ed8 f i CCodeFactory.obj
 0001:0000fee4       ?CodeToUnicode@CUtf8@@UEAA?AW4EConvertResult@@AEBVCMemory@@PEAVCNativeW@@@Z 0000000140010ee4 f i CCodeFactory.obj
 0001:0000fef8       ?UnicodeToCode@CUtf8@@UEAA?AW4EConvertResult@@AEBVCNativeW@@PEAVCMemory@@@Z 0000000140010ef8 f i CCodeFactory.obj
 0001:0000ff0c       ?UnicodeToHex@CUtf8@@UEAA?AW4EConvertResult@@PEB_WHPEA_WPEBUCommonSetting_Statusbar@@@Z 0000000140010f0c f i CCodeFactory.obj
 0001:0000ff2c       ?CodeToUnicode@CCesu8@@UEAA?AW4EConvertResult@@AEBVCMemory@@PEAVCNativeW@@@Z 0000000140010f2c f i CCodeFactory.obj
 0001:0000ff40       ?UnicodeToCode@CCesu8@@UEAA?AW4EConvertResult@@AEBVCNativeW@@PEAVCMemory@@@Z 0000000140010f40 f i CCodeFactory.obj
 0001:0000ff54       ?UnicodeToHex@CCesu8@@UEAA?AW4EConvertResult@@PEB_WHPEA_WPEBUCommonSetting_Statusbar@@@Z 0000000140010f54 f i CCodeFactory.obj
 0001:0000ff78       ?CodeToUnicode@CLatin1@@UEAA?AW4EConvertResult@@AEBVCMemory@@PEAVCNativeW@@@Z 0000000140010f78 f i CCodeFactory.obj
 0001:0000ff84       ?UnicodeToCode@CLatin1@@UEAA?AW4EConvertResult@@AEBVCNativeW@@PEAVCMemory@@@Z 0000000140010f84 f i CCodeFactory.obj
 0001:0000ff90       ?CreateCodeBase@CCodeFactory@@SAPEAVCCodeBase@@W4ECodeType@@H@Z 0000000140010f90 f   CCodeFactory.obj
 0001:000100f8       ??_ECESI@@UEAAPEAXI@Z      00000001400110f8 f i * CIL library *:* CIL module *
 0001:000100f8       ??_GCESI@@UEAAPEAXI@Z      00000001400110f8 f i CCodeMediator.obj
 0001:00010124       ?CheckKanjiCode@CCodeMediator@@QEAA?AW4ECodeType@@PEBD_K@Z 0000000140011124 f   CCodeMediator.obj
 0001:0001024c       ?CheckKanjiCodeOfFile@CCodeMediator@@QEAA?AW4ECodeType@@PEB_W@Z 000000014001124c f   CCodeMediator.obj
 0001:00010348       ?GetMultiByteFlgas@@YAKI@Z 0000000140011348 f   CCodePage.obj
 0001:000103d0       ?CPToUni@CCodePage@@KA?AW4EConvertResult@@PEBDHPEA_WHAEAHI@Z 00000001400113d0 f   CCodePage.obj
 0001:00010414       ?CPToUnicode@CCodePage@@SA?AW4EConvertResult@@AEBVCMemory@@PEAVCNativeW@@H@Z 0000000140011414 f   CCodePage.obj
 0001:000104f0       ?UniToCP@CCodePage@@KA?AW4EConvertResult@@PEB_WHPEADHAEAHI@Z 00000001400114f0 f   CCodePage.obj
 0001:00010548       ?UnicodeToCP@CCodePage@@SA?AW4EConvertResult@@AEBVCNativeW@@PEAVCMemory@@H@Z 0000000140011548 f   CCodePage.obj
 0001:00010628       ?UnicodeToHex@CCodePage@@UEAA?AW4EConvertResult@@PEB_WHPEA_WPEBUCommonSetting_Statusbar@@@Z 0000000140011628 f   CCodePage.obj
 0001:00010630       ?GetNameNormal@CCodePage@@SAHPEA_WH@Z 0000000140011630 f   CCodePage.obj
 0001:000106c0       ?GetNameShort@CCodePage@@SAHPEA_WH@Z 00000001400116c0 f   CCodePage.obj
 0001:00010750       ?GetNameLong@CCodePage@@SAHPEA_WH@Z 0000000140011750 f   CCodePage.obj
 0001:00010834       ?GetNameBracket@CCodePage@@SAHPEA_WH@Z 0000000140011834 f   CCodePage.obj
 0001:000108c4       ?GetEncodingTrait@CCodePage@@SA?AW4EEncodingTrait@@H@Z 00000001400118c4 f   CCodePage.obj
 0001:00010b34       ?GetCodePageList@CCodePage@@SAAEAV?$vector@U?$pair@HV?$basic_string@_WU?$char_traits@_W@std@@V?$allocator@_W@2@@std@@@std@@V?$allocator@U?$pair@HV?$basic_string@_WU?$char_traits@_W@std@@V?$allocator@_W@2@@std@@@std@@@2@@std@@XZ 0000000140011b34 f   CCodePage.obj
 0001:00010e3c       ?CallBackEnumCodePages@CCodePage@@KAHPEB_W@Z 0000000140011e3c f   CCodePage.obj
 0001:00010f08       ??1?$pair@HV?$basic_string@_WU?$char_traits@_W@std@@V?$allocator@_W@2@@std@@@std@@QEAA@XZ 0000000140011f08 f i CCodePage.obj
 0001:00010f08       ??1FavoriteInfo@CDlgFavorite@@QEAA@XZ 0000000140011f08 f i CDlgFavorite.obj
 0001:00010f08       ??1SHokanMethod@@QEAA@XZ   0000000140011f08 f i CPropTypesSupport.obj
 0001:00010f14       ?AddComboCodePages@CCodePage@@SAHPEAUHWND__@@0H@Z 0000000140011f14 f   CCodePage.obj
 0001:00011070       ?MultiByteToWideChar2@CCodePage@@KAHIHPEBDHPEA_WH@Z 0000000140012070 f   CCodePage.obj
 0001:000110bc       ?WideCharToMultiByte2@CCodePage@@KAHIHPEB_WHPEADH@Z 00000001400120bc f   CCodePage.obj
 0001:000111b0       ?S_UTF32LEToUnicode@CCodePage@@KAHPEBDHPEA_WH@Z 00000001400121b0 f   CCodePage.obj
 0001:00011424       ?S_UTF32BEToUnicode@CCodePage@@KAHPEBDHPEA_WH@Z 0000000140012424 f   CCodePage.obj
 0001:000116ec       ?S_UnicodeToUTF32LE@CCodePage@@KAHPEB_WHPEADH@Z 00000001400126ec f   CCodePage.obj
 0001:00011a58       ?S_UnicodeToUTF32BE@CCodePage@@KAHPEB_WHPEADH@Z 0000000140012a58 f   CCodePage.obj
 0001:00011dc4       ??1?$vector@U?$pair@HV?$basic_string@_WU?$char_traits@_W@std@@V?$allocator@_W@2@@std@@@std@@V?$allocator@U?$pair@HV?$basic_string@_WU?$char_traits@_W@std@@V?$allocator@_W@2@@std@@@std@@@2@@std@@QEAA@XZ 0000000140012dc4 f i CCodePage.obj
 0001:00011dc4       ??1?$vector@USHokanMethod@@V?$allocator@USHokanMethod@@@std@@@std@@QEAA@XZ 0000000140012dc4 f i CPropTypesSupport.obj
 0001:00011e70       ?deallocate@?$allocator@U?$pair@HV?$basic_string@_WU?$char_traits@_W@std@@V?$allocator@_W@2@@std@@@std@@@std@@QEAAXQEAU?$pair@HV?$basic_string@_WU?$char_traits@_W@std@@V?$allocator@_W@2@@std@@@2@_K@Z 0000000140012e70 f i CCodePage.obj
 0001:00011e70       ?deallocate@?$allocator@USHokanMethod@@@std@@QEAAXQEAUSHokanMethod@@_K@Z 0000000140012e70 f i CPropTypesSupport.obj
 0001:00011e70       ?deallocate@?$allocator@UtagJackDef@@@std@@QEAAXQEAUtagJackDef@@_K@Z 0000000140012e70 f i CHokanMgr.obj
 0001:00011eb4       ??$_Destroy_range@V?$allocator@U?$pair@HV?$basic_string@_WU?$char_traits@_W@std@@V?$allocator@_W@2@@std@@@std@@@std@@@std@@YAXPEAU?$pair@HV?$basic_string@_WU?$char_traits@_W@std@@V?$allocator@_W@2@@std@@@0@QEAU10@AEAV?$allocator@U?$pair@HV?$basic_string@_WU?$char_traits@_W@std@@V?$allocator@_W@2@@std@@@std@@@0@@Z 0000000140012eb4 f i CCodePage.obj
 0001:00011eb4       ??$_Destroy_range@V?$allocator@USHokanMethod@@@std@@@std@@YAXPEAUSHokanMethod@@QEAU1@AEAV?$allocator@USHokanMethod@@@0@@Z 0000000140012eb4 f i CPropTypesSupport.obj
 0001:00011ee8       ??$_Emplace_reallocate@HAEAY0BB@$$CB_W@?$vector@U?$pair@HV?$basic_string@_WU?$char_traits@_W@std@@V?$allocator@_W@2@@std@@@std@@V?$allocator@U?$pair@HV?$basic_string@_WU?$char_traits@_W@std@@V?$allocator@_W@2@@std@@@std@@@2@@std@@AEAAPEAU?$pair@HV?$basic_string@_WU?$char_traits@_W@std@@V?$allocator@_W@2@@std@@@1@QEAU21@$$QEAHAEAY0BB@$$CB_W@Z 0000000140012ee8 f i CCodePage.obj
 0001:000120e4       ??$_Sort_unchecked@PEAU?$pair@HV?$basic_string@_WU?$char_traits@_W@std@@V?$allocator@_W@2@@std@@@std@@UsortByCodePage@@@std@@YAXPEAU?$pair@HV?$basic_string@_WU?$char_traits@_W@std@@V?$allocator@_W@2@@std@@@0@0_JUsortByCodePage@@@Z 00000001400130e4 f i CCodePage.obj
 0001:000123a8       ??$_Emplace_reallocate@U?$pair@HV?$basic_string@_WU?$char_traits@_W@std@@V?$allocator@_W@2@@std@@@std@@@?$vector@U?$pair@HV?$basic_string@_WU?$char_traits@_W@std@@V?$allocator@_W@2@@std@@@std@@V?$allocator@U?$pair@HV?$basic_string@_WU?$char_traits@_W@std@@V?$allocator@_W@2@@std@@@std@@@2@@std@@AEAAPEAU?$pair@HV?$basic_string@_WU?$char_traits@_W@std@@V?$allocator@_W@2@@std@@@1@QEAU21@$$QEAU21@@Z 00000001400133a8 f i CCodePage.obj
 0001:0001254c       ?_Change_array@?$vector@U?$pair@HV?$basic_string@_WU?$char_traits@_W@std@@V?$allocator@_W@2@@std@@@std@@V?$allocator@U?$pair@HV?$basic_string@_WU?$char_traits@_W@std@@V?$allocator@_W@2@@std@@@std@@@2@@std@@AEAAXQEAU?$pair@HV?$basic_string@_WU?$char_traits@_W@std@@V?$allocator@_W@2@@std@@@2@_K1@Z 000000014001354c f i CCodePage.obj
 0001:00012624       ??$_Uninitialized_move@PEAU?$pair@HV?$basic_string@_WU?$char_traits@_W@std@@V?$allocator@_W@2@@std@@@std@@V?$allocator@U?$pair@HV?$basic_string@_WU?$char_traits@_W@std@@V?$allocator@_W@2@@std@@@std@@@2@@std@@YAPEAU?$pair@HV?$basic_string@_WU?$char_traits@_W@std@@V?$allocator@_W@2@@std@@@0@QEAU10@0PEAU10@AEAV?$allocator@U?$pair@HV?$basic_string@_WU?$char_traits@_W@std@@V?$allocator@_W@2@@std@@@std@@@0@@Z 0000000140013624 f i CCodePage.obj
 0001:00012624       ??$_Uninitialized_move@PEAUSHokanMethod@@V?$allocator@USHokanMethod@@@std@@@std@@YAPEAUSHokanMethod@@QEAU1@0PEAU1@AEAV?$allocator@USHokanMethod@@@0@@Z 0000000140013624 f i CPropTypesSupport.obj
 0001:000126ac       ??$_Insertion_sort_unchecked@PEAU?$pair@HV?$basic_string@_WU?$char_traits@_W@std@@V?$allocator@_W@2@@std@@@std@@UsortByCodePage@@@std@@YAPEAU?$pair@HV?$basic_string@_WU?$char_traits@_W@std@@V?$allocator@_W@2@@std@@@0@QEAU10@0UsortByCodePage@@@Z 00000001400136ac f i CCodePage.obj
 0001:000128c8       ??$_Partition_by_median_guess_unchecked@PEAU?$pair@HV?$basic_string@_WU?$char_traits@_W@std@@V?$allocator@_W@2@@std@@@std@@UsortByCodePage@@@std@@YA?AU?$pair@PEAU?$pair@HV?$basic_string@_WU?$char_traits@_W@std@@V?$allocator@_W@2@@std@@@std@@PEAU12@@0@PEAU?$pair@HV?$basic_string@_WU?$char_traits@_W@std@@V?$allocator@_W@2@@std@@@0@0UsortByCodePage@@@Z 00000001400138c8 f i CCodePage.obj
 0001:00012ba8       ??$_Pop_heap_hole_by_index@PEAU?$pair@HV?$basic_string@_WU?$char_traits@_W@std@@V?$allocator@_W@2@@std@@@std@@U12@UsortByCodePage@@@std@@YAXPEAU?$pair@HV?$basic_string@_WU?$char_traits@_W@std@@V?$allocator@_W@2@@std@@@0@_J1$$QEAU10@UsortByCodePage@@@Z 0000000140013ba8 f i CCodePage.obj
 0001:00012d80       ??$swap@HV?$basic_string@_WU?$char_traits@_W@std@@V?$allocator@_W@2@@std@@$0A@@std@@YAXAEAU?$pair@HV?$basic_string@_WU?$char_traits@_W@std@@V?$allocator@_W@2@@std@@@0@0@Z 0000000140013d80 f i CCodePage.obj
 0001:00012e10       ?MyWideCharToMultiByte_JP@@YAHPEBGHPEAE@Z 0000000140013e10 f i CESI.obj
 0001:00012ea0       ?MyMultiByteToWideChar_JP@@YAHPEBEHPEAG_N@Z 0000000140013ea0 f i CESI.obj
 0001:00012f58       ?_EucjpToUni_char@CEuc@@SAHPEBEPEAGW4ECharSet@@PEA_N3@Z 0000000140013f58 f i CESI.obj
 0001:0001308c       ?SetInformation@CESI@@IEAAXPEBDH@Z 000000014001408c f   CESI.obj
 0001:00013094       ?GetIndexById@CESI@@IEBAHW4ECodeType@@@Z 0000000140014094 f   CESI.obj
 0001:000130c4       ?SetEvaluation@CESI@@IEAAXW4ECodeType@@HH@Z 00000001400140c4 f   CESI.obj
 0001:00013104       ?SortMBCInfo@CESI@@QEAAXXZ 0000000140014104 f   CESI.obj
 0001:00013174       ?GetEncodingInfo_sjis@CESI@@IEAAXPEBDH@Z 0000000140014174 f   CESI.obj
 0001:00013284       ?GetEncodingInfo_jis@CESI@@IEAAXPEBDH@Z 0000000140014284 f   CESI.obj
 0001:00013370       ?GetEncodingInfo_eucjp@CESI@@IEAAXPEBDH@Z 0000000140014370 f   CESI.obj
 0001:000134e8       ?GetEncodingInfo_utf7@CESI@@IEAAXPEBDH@Z 00000001400144e8 f   CESI.obj
 0001:000135c8       ?GetEncodingInfo_utf8@CESI@@IEAAXPEBDH@Z 00000001400145c8 f   CESI.obj
 0001:000136ac       ?GetEncodingInfo_cesu8@CESI@@IEAAXPEBDH@Z 00000001400146ac f   CESI.obj
 0001:0001377c       ?GetEncodingInfo_latin1@CESI@@IEAAXPEBDH@Z 000000014001477c f   CESI.obj
 0001:00013790       ?GetEncodingInfo_meta@CESI@@IEAAXPEBDH@Z 0000000140014790 f   CESI.obj
 0001:000137e4       ?_CheckUtf16Eol@CESI@@IEAA_NPEBD_K_N@Z 00000001400147e4 f   CESI.obj
 0001:00013848       ?GetEncodingInfo_uni@CESI@@IEAAXPEBDH@Z 0000000140014848 f   CESI.obj
 0001:00013a74       ?ScanCode@CESI@@IEAAXPEBDH@Z 0000000140014a74 f   CESI.obj
 0001:00013b38       ?GuessUtf16Bom@CESI@@IEAAXXZ 0000000140014b38 f   CESI.obj
 0001:00013b98       ?GuessEucOrSjis@CESI@@IEAAXXZ 0000000140014b98 f   CESI.obj
 0001:00013c20       ?GuessUtf8OrCesu8@CESI@@IEAAXXZ 0000000140014c20 f   CESI.obj
 0001:00013d28       ?AutoDetectByXML@CESI@@IEAA?AW4ECodeType@@PEBDH@Z 0000000140014d28 f   CESI.obj
 0001:00013f34       ?AutoDetectByHTML@CESI@@IEAA?AW4ECodeType@@PEBDH@Z 0000000140014f34 f   CESI.obj
 0001:000143c0       ?AutoDetectByCoding@CESI@@IEAA?AW4ECodeType@@PEBDH@Z 00000001400153c0 f   CESI.obj
 0001:00014574       ?CheckKanjiCode@CESI@@QEAA?AW4ECodeType@@PEBD_K@Z 0000000140015574 f   CESI.obj
 0001:0001467c       ?EucjpToUni@CEuc@@KAHPEBDHPEA_WPEA_N@Z 000000014001567c f   CEuc.obj
 0001:000147e4       ?EUCToUnicode@CEuc@@SA?AW4EConvertResult@@AEBVCMemory@@PEAVCNativeW@@@Z 00000001400157e4 f   CEuc.obj
 0001:00014878       ?UniToEucjp@CEuc@@KAHPEB_WHPEADPEA_N@Z 0000000140015878 f   CEuc.obj
 0001:00014a24       ?UnicodeToEUC@CEuc@@SA?AW4EConvertResult@@AEBVCNativeW@@PEAVCMemory@@@Z 0000000140015a24 f   CEuc.obj
 0001:00014aac       ?UnicodeToHex@CEuc@@UEAA?AW4EConvertResult@@PEB_WHPEA_WPEBUCommonSetting_Statusbar@@@Z 0000000140015aac f   CEuc.obj
 0001:00014bb4       ?IsHankaku@WCODE@@YA_N_WAEAVCCharWidthCache@@@Z 0000000140015bb4 f   charcode.obj
 0001:00014c48       ?IsControlCode@WCODE@@YA_N_W@Z 0000000140015c48 f   charcode.obj
 0001:00014c68       ?DeleteLocalData@CCharWidthCache@@AEAAXXZ 0000000140015c68 f   charcode.obj
 0001:00014cf4       ?Init@CCharWidthCache@@QEAAXAEBUtagLOGFONTW@@0PEAUHDC__@@@Z 0000000140015cf4 f   charcode.obj
 0001:00014edc       ?Clear@CCharWidthCache@@QEAAXXZ 0000000140015edc f   charcode.obj
 0001:00014f48       ?CalcHankakuByFont@CCharWidthCache@@UEAA_N_W@Z 0000000140015f48 f   charcode.obj
 0001:00014f64       ?QueryPixelWidth@CCharWidthCache@@AEBAH_W@Z 0000000140015f64 f   charcode.obj
 0001:0001505c       ?CalcPxWidthByFont@CCharWidthCache@@UEAAH_W@Z 000000014001605c f   charcode.obj
 0001:000150ac       ?CalcPxWidthByFont2@CCharWidthCache@@UEBAHPEB_W@Z 00000001400160ac f   charcode.obj
 0001:00015110       ?SelectHDC@CCharWidthCache@@AEBAPEAUHDC__@@_W@Z 0000000140016110 f   charcode.obj
 0001:00015138       ??0CCharWidthCache@@QEAA@XZ 0000000140016138 f i charcode.obj
 0001:0001519c       ?GetFontNo@WCODE@@YAH_W@Z  000000014001619c f   charcode.obj
 0001:000151b4       ?GetFontNo2@WCODE@@YAH_W0@Z 00000001400161b4 f   charcode.obj
 0001:000151c0       ?InitCharWidthCache@@YAXAEBUtagLOGFONTW@@W4ECharWidthFontMode@@@Z 00000001400161c0 f   charcode.obj
 0001:00015228       ?InitCharWidthCacheFromDC@@YAXPEBUtagLOGFONTW@@W4ECharWidthFontMode@@PEAUHDC__@@@Z 0000000140016228 f   charcode.obj
 0001:00015254       ?SelectCharWidthCache@@YAXW4ECharWidthFontMode@@W4ECharWidthCacheMode@@@Z 0000000140016254 f   charcode.obj
 0001:00015300       ?GetCharWidthCache@@YAAEAVCCharWidthCache@@XZ 0000000140016300 f   charcode.obj
 0001:00015308       ??1CCharWidthCache@@QEAA@XZ 0000000140016308 f i charcode.obj
 0001:00015318       ?InitCodeSet@@YAXXZ        0000000140016318 f   charset.obj
 0001:000153e0       ?IsValidCodeType@@YA_NH@Z  00000001400163e0 f   charset.obj
 0001:00015430       ?Normal@CCodeTypeName@@QEBAPEB_WXZ 0000000140016430 f   charset.obj
 0001:00015494       ?Short@CCodeTypeName@@QEBAPEB_WXZ 0000000140016494 f   charset.obj
 0001:000154f8       ?Bracket@CCodeTypeName@@QEBAPEB_WXZ 00000001400164f8 f   charset.obj
 0001:00015640       ?UseBom@CCodeTypeName@@QEAA_NXZ 0000000140016640 f   charset.obj
 0001:00015744       ?IsBomDefOn@CCodeTypeName@@QEAA_NXZ 0000000140016744 f   charset.obj
 0001:000157a8       ?CanDefault@CCodeTypeName@@QEAA_NXZ 00000001400167a8 f   charset.obj
 0001:00015838       ?GetCount@CCodeTypesForCombobox@@QEBAHXZ 0000000140016838 f   charset.obj
 0001:0001584c       ?GetCode@CCodeTypesForCombobox@@QEBA?AW4ECodeType@@H@Z 000000014001684c f   charset.obj
 0001:0001585c       ?GetName@CCodeTypesForCombobox@@QEBAPEB_WH@Z 000000014001685c f   charset.obj
 0001:00015898       ??A?$map@HUSCodeSet@@U?$less@H@std@@V?$allocator@U?$pair@$$CBHUSCodeSet@@@std@@@3@@std@@QEAAAEAUSCodeSet@@$$QEAH@Z 0000000140016898 f i charset.obj
 0001:00015990       ??1?$_Alloc_construct_ptr@V?$allocator@U?$_Tree_node@U?$pair@$$CBHUSCodeSet@@@std@@PEAX@std@@@std@@@std@@QEAA@XZ 0000000140016990 f i charset.obj
 0001:000159ac       ??$_Emplace_reallocate@AEBW4ECodeType@@@?$vector@W4ECodeType@@V?$allocator@W4ECodeType@@@std@@@std@@AEAAPEAW4ECodeType@@QEAW42@AEBW42@@Z 00000001400169ac f i charset.obj
 0001:00015b38       ??$_Erase_tree@V?$allocator@U?$_Tree_node@U?$pair@$$CBHUSCodeSet@@@std@@PEAX@std@@@std@@@?$_Tree_val@U?$_Tree_simple_types@U?$pair@$$CBHUSCodeSet@@@std@@@std@@@std@@QEAAXAEAV?$allocator@U?$_Tree_node@U?$pair@$$CBHUSCodeSet@@@std@@PEAX@std@@@1@PEAU?$_Tree_node@U?$pair@$$CBHUSCodeSet@@@std@@PEAX@1@@Z 0000000140016b38 f i charset.obj
 0001:00015b80       ??1?$_Hash@V?$_Umap_traits@V?$basic_string@DU?$char_traits@D@std@@V?$allocator@D@2@@std@@GV?$_Uhash_compare@V?$basic_string@DU?$char_traits@D@std@@V?$allocator@D@2@@std@@U?$hash@V?$basic_string@DU?$char_traits@D@std@@V?$allocator@D@2@@std@@@2@U?$equal_to@V?$basic_string@DU?$char_traits@D@std@@V?$allocator@D@2@@std@@@2@@2@V?$allocator@U?$pair@$$CBV?$basic_string@DU?$char_traits@D@std@@V?$allocator@D@2@@std@@G@std@@@2@$0A@@std@@@std@@QEAA@XZ 0000000140016b80 f i CharsetDetector.obj
 0001:00015be8       ??0CharsetDetector@@QEAA@XZ 0000000140016be8 f   CharsetDetector.obj
 0001:00015c58       ??_ECUchardet@@UEAAPEAXI@Z 0000000140016c58 f i * CIL library *:* CIL module *
 0001:00015c58       ??_GCUchardet@@UEAAPEAXI@Z 0000000140016c58 f i CharsetDetector.obj
 0001:00015c8c       ??1CharsetDetector@@QEAA@XZ 0000000140016c8c f   CharsetDetector.obj
 0001:00015ce4       ?Detect@CharsetDetector@@QEAA?AW4ECodeType@@AEBV?$basic_string_view@DU?$char_traits@D@std@@@std@@@Z 0000000140016ce4 f   CharsetDetector.obj
 0001:00016078       ??1?$list@U?$pair@$$CBV?$basic_string@DU?$char_traits@D@std@@V?$allocator@D@2@@std@@G@std@@V?$allocator@U?$pair@$$CBV?$basic_string@DU?$char_traits@D@std@@V?$allocator@D@2@@std@@G@std@@@2@@std@@QEAA@XZ 0000000140017078 f i CharsetDetector.obj
 0001:00016120       ?_Assign_grow@?$_Hash_vec@V?$allocator@V?$_List_unchecked_iterator@V?$_List_val@U?$_List_simple_types@U?$pair@$$CBV?$basic_string@DU?$char_traits@D@std@@V?$allocator@D@2@@std@@G@std@@@std@@@std@@@std@@@std@@@std@@QEAAX_KV?$_List_unchecked_iterator@V?$_List_val@U?$_List_simple_types@U?$pair@$$CBV?$basic_string@DU?$char_traits@D@std@@V?$allocator@D@2@@std@@G@std@@@std@@@std@@@2@@Z 0000000140017120 f i CharsetDetector.obj
 0001:0001622c       ??$uninitialized_fill@PEAV?$_List_unchecked_iterator@V?$_List_val@U?$_List_simple_types@U?$pair@$$CBV?$basic_string@DU?$char_traits@D@std@@V?$allocator@D@2@@std@@G@std@@@std@@@std@@@std@@V12@@std@@YAXQEAV?$_List_unchecked_iterator@V?$_List_val@U?$_List_simple_types@U?$pair@$$CBV?$basic_string@DU?$char_traits@D@std@@V?$allocator@D@2@@std@@G@std@@@std@@@std@@@0@0AEBV10@@Z 000000014001722c f i CharsetDetector.obj
 0001:00016240       ??$emplace@AEBU?$pair@$$CBV?$basic_string@DU?$char_traits@D@std@@V?$allocator@D@2@@std@@G@std@@@?$_Hash@V?$_Umap_traits@V?$basic_string@DU?$char_traits@D@std@@V?$allocator@D@2@@std@@GV?$_Uhash_compare@V?$basic_string@DU?$char_traits@D@std@@V?$allocator@D@2@@std@@U?$hash@V?$basic_string@DU?$char_traits@D@std@@V?$allocator@D@2@@std@@@2@U?$equal_to@V?$basic_string@DU?$char_traits@D@std@@V?$allocator@D@2@@std@@@2@@2@V?$allocator@U?$pair@$$CBV?$basic_string@DU?$char_traits@D@std@@V?$allocator@D@2@@std@@G@std@@@2@$0A@@std@@@std@@QEAA?AU?$pair@V?$_List_iterator@V?$_List_val@U?$_List_simple_types@U?$pair@$$CBV?$basic_string@DU?$char_traits@D@std@@V?$allocator@D@2@@std@@G@std@@@std@@@std@@@std@@_N@1@AEBU?$pair@$$CBV?$basic_string@DU?$char_traits@D@std@@V?$allocator@D@2@@std@@G@1@@Z 0000000140017240 f i CharsetDetector.obj
 0001:000164a0       ??1?$_List_node_emplace_op2@V?$allocator@U?$_List_node@U?$pair@$$CBV?$basic_string@DU?$char_traits@D@std@@V?$allocator@D@2@@std@@G@std@@PEAX@std@@@std@@@std@@QEAA@XZ 00000001400174a0 f i CharsetDetector.obj
 0001:00016524       ??1?$_Alloc_construct_ptr@V?$allocator@U?$_List_node@U?$pair@$$CBV?$basic_string@DU?$char_traits@D@std@@V?$allocator@D@2@@std@@G@std@@PEAX@std@@@std@@@std@@QEAA@XZ 0000000140017524 f i CharsetDetector.obj
 0001:00016540       ?_Forced_rehash@?$_Hash@V?$_Umap_traits@V?$basic_string@DU?$char_traits@D@std@@V?$allocator@D@2@@std@@GV?$_Uhash_compare@V?$basic_string@DU?$char_traits@D@std@@V?$allocator@D@2@@std@@U?$hash@V?$basic_string@DU?$char_traits@D@std@@V?$allocator@D@2@@std@@@2@U?$equal_to@V?$basic_string@DU?$char_traits@D@std@@V?$allocator@D@2@@std@@@2@@2@V?$allocator@U?$pair@$$CBV?$basic_string@DU?$char_traits@D@std@@V?$allocator@D@2@@std@@G@std@@@2@$0A@@std@@@std@@IEAAX_K@Z 0000000140017540 f i CharsetDetector.obj
 0001:0001673c       ??1_Clear_guard@?$_Hash@V?$_Umap_traits@V?$basic_string@DU?$char_traits@D@std@@V?$allocator@D@2@@std@@GV?$_Uhash_compare@V?$basic_string@DU?$char_traits@D@std@@V?$allocator@D@2@@std@@U?$hash@V?$basic_string@DU?$char_traits@D@std@@V?$allocator@D@2@@std@@@2@U?$equal_to@V?$basic_string@DU?$char_traits@D@std@@V?$allocator@D@2@@std@@@2@@2@V?$allocator@U?$pair@$$CBV?$basic_string@DU?$char_traits@D@std@@V?$allocator@D@2@@std@@G@std@@@2@$0A@@std@@@std@@QEAA@XZ 000000014001773c f i CharsetDetector.obj
 0001:00016858       ?_Unchecked_erase@?$_Hash@V?$_Umap_traits@V?$basic_string@DU?$char_traits@D@std@@V?$allocator@D@2@@std@@GV?$_Uhash_compare@V?$basic_string@DU?$char_traits@D@std@@V?$allocator@D@2@@std@@U?$hash@V?$basic_string@DU?$char_traits@D@std@@V?$allocator@D@2@@std@@@2@U?$equal_to@V?$basic_string@DU?$char_traits@D@std@@V?$allocator@D@2@@std@@@2@@2@V?$allocator@U?$pair@$$CBV?$basic_string@DU?$char_traits@D@std@@V?$allocator@D@2@@std@@G@std@@@2@$0A@@std@@@std@@AEAAPEAU?$_List_node@U?$pair@$$CBV?$basic_string@DU?$char_traits@D@std@@V?$allocator@D@2@@std@@G@std@@PEAX@2@PEAU32@QEAU32@@Z 0000000140017858 f i CharsetDetector.obj
 0001:000169c4       ?_Bump_erased@_Range_eraser@?$_Hash@V?$_Umap_traits@V?$basic_string@DU?$char_traits@D@std@@V?$allocator@D@2@@std@@GV?$_Uhash_compare@V?$basic_string@DU?$char_traits@D@std@@V?$allocator@D@2@@std@@U?$hash@V?$basic_string@DU?$char_traits@D@std@@V?$allocator@D@2@@std@@@2@U?$equal_to@V?$basic_string@DU?$char_traits@D@std@@V?$allocator@D@2@@std@@@2@@2@V?$allocator@U?$pair@$$CBV?$basic_string@DU?$char_traits@D@std@@V?$allocator@D@2@@std@@G@std@@@2@$0A@@std@@@std@@QEAAXXZ 00000001400179c4 f i CharsetDetector.obj
 0001:00016a4c       ??$_Find_last@V?$basic_string@DU?$char_traits@D@std@@V?$allocator@D@2@@std@@@?$_Hash@V?$_Umap_traits@V?$basic_string@DU?$char_traits@D@std@@V?$allocator@D@2@@std@@GV?$_Uhash_compare@V?$basic_string@DU?$char_traits@D@std@@V?$allocator@D@2@@std@@U?$hash@V?$basic_string@DU?$char_traits@D@std@@V?$allocator@D@2@@std@@@2@U?$equal_to@V?$basic_string@DU?$char_traits@D@std@@V?$allocator@D@2@@std@@@2@@2@V?$allocator@U?$pair@$$CBV?$basic_string@DU?$char_traits@D@std@@V?$allocator@D@2@@std@@G@std@@@2@$0A@@std@@@std@@IEBA?AU?$_Hash_find_last_result@PEAU?$_List_node@U?$pair@$$CBV?$basic_string@DU?$char_traits@D@std@@V?$allocator@D@2@@std@@G@std@@PEAX@std@@@1@AEBV?$basic_string@DU?$char_traits@D@std@@V?$allocator@D@2@@1@_K@Z 0000000140017a4c f i CharsetDetector.obj
 0001:00016b00       ??$_Hash_array_representation@D@std@@YA_KQEBD_K@Z 0000000140017b00 f i CharsetDetector.obj
 0001:00016b34       ??$_Construct@$01PEBD@?$basic_string@DU?$char_traits@D@std@@V?$allocator@D@2@@std@@AEAAXQEBD_K@Z 0000000140017b34 f i CharsetDetector.obj
 0001:00016be8       ??$_Construct@$00PEBD@?$basic_string@DU?$char_traits@D@std@@V?$allocator@D@2@@std@@AEAAXQEBD_K@Z 0000000140017be8 f i CharsetDetector.obj
 0001:00016ca8       ?IsAvailable@CDllImp@@UEBA_NXZ 0000000140017ca8 f i CharsetDetector.obj
 0001:00016cb4       ?_JisToUni_block@CJis@@KAHPEBEHPEAGW4EMyJisEscseq@@PEA_N@Z 0000000140017cb4 f   CJis.obj
 0001:00016ee8       ?JisToUni@CJis@@KAHPEBDHPEA_WPEA_N@Z 0000000140017ee8 f   CJis.obj
 0001:00016fec       ?JISToUnicode@CJis@@SA?AW4EConvertResult@@AEBVCMemory@@PEAVCNativeW@@_N@Z 0000000140017fec f   CJis.obj
 0001:000170ec       ?_SjisToJis_char@CJis@@KAHPEBEPEAEW4ECharSet@@PEA_N@Z 00000001400180ec f   CJis.obj
 0001:0001718c       ?UniToJis@CJis@@KAHPEB_WHPEADPEA_N@Z 000000014001818c f   CJis.obj
 0001:0001736c       ?UnicodeToJIS@CJis@@SA?AW4EConvertResult@@AEBVCNativeW@@PEAVCMemory@@@Z 000000014001836c f   CJis.obj
 0001:000173f8       ?UnicodeToHex@CJis@@UEAA?AW4EConvertResult@@PEB_WHPEA_WPEBUCommonSetting_Statusbar@@@Z 00000001400183f8 f   CJis.obj
 0001:000174e0       ?Latin1ToUni@CLatin1@@KAHPEBDHPEA_WPEA_N@Z 00000001400184e0 f   CLatin1.obj
 0001:00017578       ?Latin1ToUnicode@CLatin1@@SA?AW4EConvertResult@@AEBVCMemory@@PEAVCNativeW@@@Z 0000000140018578 f   CLatin1.obj
 0001:00017610       ?UniToLatin1@CLatin1@@KAHPEB_WHPEADPEA_N@Z 0000000140018610 f   CLatin1.obj
 0001:000177b0       ?UnicodeToLatin1@CLatin1@@SA?AW4EConvertResult@@AEBVCNativeW@@PEAVCMemory@@@Z 00000001400187b0 f   CLatin1.obj
 0001:00017838       ?UnicodeToHex@CLatin1@@UEAA?AW4EConvertResult@@PEB_WHPEA_WPEBUCommonSetting_Statusbar@@@Z 0000000140018838 f   CLatin1.obj
 0001:00017940       ?DecodeUtf8@@YAJPEBEH@Z    0000000140018940 f i codechecker.obj
 0001:000179c8       ?CheckSjisChar@@YAHPEBD_KPEAW4ECharSet@@@Z 00000001400189c8 f   codechecker.obj
 0001:00017a40       ?CheckEucjpChar@@YAHPEBD_KPEAW4ECharSet@@@Z 0000000140018a40 f   codechecker.obj
 0001:00017af8       ?DetectJisEscseq@@YAHPEBD_KPEAW4EMyJisEscseq@@@Z 0000000140018af8 f   codechecker.obj
 0001:00017c08       ?_CheckJisAnyPart@@YAHPEBDHPEAPEBDPEAW4EMyJisEscseq@@PEAHH@Z 0000000140018c08 f   codechecker.obj
 0001:00017d44       ?_CheckUtf16Char@@YAHPEB_WHPEAW4ECharSet@@H_N@Z 0000000140018d44 f   codechecker.obj
 0001:00017e30       ?CheckUtf8Char@@YAHPEBDHPEAW4ECharSet@@_NH@Z 0000000140018e30 f   codechecker.obj
 0001:00017f74       ?CheckUtf8Char2@@YAHPEBDHPEAW4ECharSet@@_NH@Z 0000000140018f74 f   codechecker.obj
 0001:000180ac       ?CheckCesu8Char@@YAHPEBDHPEAW4ECharSet@@H@Z 00000001400190ac f   codechecker.obj
 0001:000181a8       ?CheckUtf7DPart@@YAHPEBD_KPEAPEBDPEA_N@Z 00000001400191a8 f   codechecker.obj
 0001:0001823c       ?CheckUtf7BPart@@YAHPEBD_KPEAPEBDPEA_NH3@Z 000000014001923c f   codechecker.obj
 0001:00018528       ?_mbcjmstojis_j@@YAII@Z    0000000140019528 f   codeutil.obj
 0001:00018548       ?_mbcjistojms_j@@YAII@Z    0000000140019548 f   codeutil.obj
 0001:00018568       ?SjisFilter_basis@@YAII@Z  0000000140019568 f   codeutil.obj
 0001:000185bc       ?SjisFilter_ibm2nec@@YAII@Z 00000001400195bc f   codeutil.obj
 0001:00018658       ?SjisFilter_nec2ibm@@YAII@Z 0000000140019658 f   codeutil.obj
 0001:000186e4       ?GetSizeOfChar@CShiftJis@@SAHPEBDHH@Z 00000001400196e4 f   CShiftJis.obj
 0001:00018724       ?SjisToUni@CShiftJis@@KAHPEBDHPEA_WPEA_N@Z 0000000140019724 f   CShiftJis.obj
 0001:000188e8       ?SJISToUnicode@CShiftJis@@SA?AW4EConvertResult@@AEBVCMemory@@PEAVCNativeW@@@Z 00000001400198e8 f   CShiftJis.obj
 0001:000189ac       ?UniToSjis@CShiftJis@@KAHPEB_WHPEADPEA_N@Z 00000001400199ac f   CShiftJis.obj
 0001:00018ae8       ?UnicodeToSJIS@CShiftJis@@SA?AW4EConvertResult@@AEBVCNativeW@@PEAVCMemory@@@Z 0000000140019ae8 f   CShiftJis.obj
 0001:00018b70       ?UnicodeToHex@CShiftJis@@UEAA?AW4EConvertResult@@PEB_WHPEA_WPEBUCommonSetting_Statusbar@@@Z 0000000140019b70 f   CShiftJis.obj
 0001:00018c78       ?_UnicodeToUnicode_in@CUnicode@@SA?AW4EConvertResult@@AEBVCMemory@@PEAVCNativeW@@_N@Z 0000000140019c78 f   CUnicode.obj
 0001:00018d64       ?_UnicodeToUnicode_out@CUnicode@@SA?AW4EConvertResult@@AEBVCNativeW@@PEAVCMemory@@_N@Z 0000000140019d64 f   CUnicode.obj
 0001:00018da8       ?_Utf7SetDToUni_block@CUtf7@@KAHPEBDHPEA_W@Z 0000000140019da8 f   CUtf7.obj
 0001:00018e1c       ?_Utf7SetBToUni_block@CUtf7@@KAHPEBDHPEA_WPEA_N@Z 0000000140019e1c f   CUtf7.obj
 0001:00018f0c       ?Utf7ToUni@CUtf7@@KAHPEBDHPEA_WPEA_N@Z 0000000140019f0c f   CUtf7.obj
 0001:00019064       ?UTF7ToUnicode@CUtf7@@SA?AW4EConvertResult@@AEBVCMemory@@PEAVCNativeW@@@Z 000000014001a064 f   CUtf7.obj
 0001:000190fc       ?_UniToUtf7SetD_block@CUtf7@@KAHPEB_WHPEAD@Z 000000014001a0fc f   CUtf7.obj
 0001:00019128       ?_UniToUtf7SetB_block@CUtf7@@KAHPEB_WHPEAD@Z 000000014001a128 f   CUtf7.obj
 0001:000191e0       ?UniToUtf7@CUtf7@@KAHPEB_WHPEADH@Z 000000014001a1e0 f   CUtf7.obj
 0001:000192d8       ?UnicodeToUTF7@CUtf7@@SA?AW4EConvertResult@@AEBVCNativeW@@PEAVCMemory@@@Z 000000014001a2d8 f   CUtf7.obj
 0001:000193c0       ??$_EncodeBase64@D@@YAHPEBDHPEAD@Z 000000014001a3c0 f i CUtf7.obj
 0001:000194d8       ??$_Construct@$0A@D@?$basic_string@DU?$char_traits@D@std@@V?$allocator@D@2@@std@@AEAAXD_K@Z 000000014001a4d8 f i CUtf7.obj
 0001:0001959c       ?EncodeUtf8@@YAHJPEAE@Z    000000014001a59c f i CUtf8.obj
 0001:00019630       ?Utf8ToUni@CUtf8@@KAHPEBDHPEA_W_N@Z 000000014001a630 f   CUtf8.obj
 0001:000197e8       ?_UTF8ToUnicode@CUtf8@@SA?AW4EConvertResult@@AEBVCMemory@@PEAVCNativeW@@_N@Z 000000014001a7e8 f   CUtf8.obj
 0001:000198b8       ?UniToUtf8@CUtf8@@KAHPEB_WHPEADPEA_N_N@Z 000000014001a8b8 f   CUtf8.obj
 0001:00019a2c       ?_UnicodeToUTF8@CUtf8@@SA?AW4EConvertResult@@AEBVCNativeW@@PEAVCMemory@@_N@Z 000000014001aa2c f   CUtf8.obj
 0001:00019acc       ?_UnicodeToHex@CUtf8@@QEAA?AW4EConvertResult@@PEB_WHPEA_WPEBUCommonSetting_Statusbar@@_N@Z 000000014001aacc f   CUtf8.obj
 0001:00019c30       ??1SysString@@QEAA@XZ      000000014001ac30 f i CHokanMgr.obj
 0001:00019c3c       ??1Variant@@QEAA@XZ        000000014001ac3c f i CHokanMgr.obj
 0001:00019c44       ??1CWSHIfObj@@UEAA@XZ      000000014001ac44 f i CHokanMgr.obj
 0001:00019c4c       ?GetMacroCommandInfo@CComplementIfObj@@UEBAPEAUMacroFuncInfo@@XZ 000000014001ac4c f i CHokanMgr.obj
 0001:00019c54       ?GetMacroFuncInfo@CComplementIfObj@@UEBAPEAUMacroFuncInfo@@XZ 000000014001ac54 f i CHokanMgr.obj
 0001:00019c5c       ?HandleFunction@CComplementIfObj@@UEAA_NPEAVCEditView@@W4EFunctionCode@@PEBUtagVARIANT@@HAEAU4@@Z 000000014001ac5c f i CHokanMgr.obj
 0001:00019e20       ?BeginColor@CColorStrategy@@UEAA_NAEBVCStringRef@@H@Z 000000014001ae20 f i CColorStrategy.obj
 0001:00019e20       ?BeginColor@CColor_Select@@UEAA_NAEBVCStringRef@@H@Z 000000014001ae20 f i CColor_Found.obj
 0001:00019e20       ?HandleCommand@CComplementIfObj@@UEAA_NPEAVCEditView@@W4EFunctionCode@@QEAPEB_WQEBHH@Z 000000014001ae20 f i CHokanMgr.obj
 0001:00019e20       ?HandleCommand@CSmartIndentIfObj@@UEAA_NPEAVCEditView@@W4EFunctionCode@@QEAPEB_WQEBHH@Z 000000014001ae20 f i CViewCommander_Edit.obj
 0001:00019e20       ?HandleFunction@COutlineIfObj@@UEAA_NPEAVCEditView@@W4EFunctionCode@@PEBUtagVARIANT@@HAEAU4@@Z 000000014001ae20 f i CViewCommander_Outline.obj
 0001:00019e20       ?IsActiveDebugWindow@COutputAdapterDiff@@UEAA_NXZ 000000014001ae20 f i CEditView_Diff.obj
 0001:00019e20       ?IsEnableRunningDlg@COutputAdapterDiff@@UEAA_NXZ 000000014001ae20 f i CEditView_Diff.obj
 0001:00019e20       ?TextToDataType@CRecentEditNode@@UEBA_NPEAUEditNode@@PEB_W@Z 000000014001ae20 f i CRecentEditNode.obj
 0001:00019e24       ??_ECComplementIfObj@@UEAAPEAXI@Z 000000014001ae24 f i * CIL library *:* CIL module *
 0001:00019e24       ??_GCComplementIfObj@@UEAAPEAXI@Z 000000014001ae24 f i CHokanMgr.obj
 0001:00019e70       ?HokanList_SubclassProc@@YA_JPEAUHWND__@@I_K_J@Z 000000014001ae70 f   CHokanMgr.obj
 0001:00019f6c       ??0CHokanMgr@@QEAA@XZ      000000014001af6c f   CHokanMgr.obj
 0001:00019fd4       ??_ECHokanMgr@@UEAAPEAXI@Z 000000014001afd4 f i * CIL library *:* CIL module *
 0001:00019fd4       ??_GCHokanMgr@@UEAAPEAXI@Z 000000014001afd4 f i CHokanMgr.obj
 0001:0001a008       ??1CHokanMgr@@UEAA@XZ      000000014001b008 f   CHokanMgr.obj
 0001:0001a03c       ?DoModeless@CHokanMgr@@QEAAPEAUHWND__@@PEAUHINSTANCE__@@PEAU2@_J@Z 000000014001b03c f   CHokanMgr.obj
 0001:0001a0b8       ?ChangeView@CDlgFind@@QEAAX_J@Z 000000014001b0b8 f   CDlgFind.obj
 0001:0001a0b8       ?ChangeView@CDlgFuncList@@QEAAX_J@Z 000000014001b0b8 f   CDlgFuncList.obj
 0001:0001a0b8       ?ChangeView@CDlgReplace@@QEAAX_J@Z 000000014001b0b8 f   CDlgReplace.obj
 0001:0001a0b8       ?ChangeView@CHokanMgr@@QEAAX_J@Z 000000014001b0b8 f   CHokanMgr.obj
 0001:0001a0c0       ?Hide@CHokanMgr@@QEAAXXZ   000000014001b0c0 f   CHokanMgr.obj
 0001:0001a0ec       ?Search@CHokanMgr@@QEAAHPEAUtagPOINT@@HHPEB_W1_N2H2PEAVCNativeW@@@Z 000000014001b0ec f   CHokanMgr.obj
 0001:0001a70c       ?HokanSearchByKeyword@CHokanMgr@@QEAAXPEB_W_NAEAV?$vector_ex@V?$basic_string@_WU?$char_traits@_W@std@@V?$allocator@_W@2@@std@@@@@Z 000000014001b70c f   CHokanMgr.obj
 0001:0001a8ac       ?DispatchEvent@CHokanMgr@@UEAA_JPEAUHWND__@@I_K_J@Z 000000014001b8ac f   CHokanMgr.obj
 0001:0001ab1c       ?OnInitDialog@CDlgKeywordSelect@@MEAAHPEAUHWND__@@_K_J@Z 000000014001bb1c f   CDlgKeywordSelect.obj
 0001:0001ab1c       ?OnInitDialog@CHokanMgr@@UEAAHPEAUHWND__@@_K_J@Z 000000014001bb1c f   CHokanMgr.obj
 0001:0001ab28       ?OnDestroy@CHokanMgr@@UEAAHXZ 000000014001bb28 f   CHokanMgr.obj
 0001:0001ab44       ?OnSize@CHokanMgr@@UEAAH_K_J@Z 000000014001bb44 f   CHokanMgr.obj
 0001:0001aca4       ?OnLbnSelChange@CHokanMgr@@UEAAHPEAUHWND__@@H@Z 000000014001bca4 f   CHokanMgr.obj
 0001:0001acb8       ?DoHokan@CHokanMgr@@QEAAHH@Z 000000014001bcb8 f   CHokanMgr.obj
 0001:0001ae0c       ?KeyProc@CHokanMgr@@QEAAH_K_J@Z 000000014001be0c f   CHokanMgr.obj
 0001:0001aeb4       ?ShowTip@CHokanMgr@@QEAAXXZ 000000014001beb4 f   CHokanMgr.obj
 0001:0001b044       ?AddKouhoUnique@CHokanMgr@@SA_NAEAV?$vector_ex@V?$basic_string@_WU?$char_traits@_W@std@@V?$allocator@_W@2@@std@@@@AEBV?$basic_string@_WU?$char_traits@_W@std@@V?$allocator@_W@2@@std@@@Z 000000014001c044 f   CHokanMgr.obj
 0001:0001b104       ?GetHelpIdTable@CHokanMgr@@MEAAPEAXXZ 000000014001c104 f   CHokanMgr.obj
 0001:0001b10c       ?getInstance@?$TSingleton@VCJackManager@@@@SAPEAVCJackManager@@XZ 000000014001c10c f i CHokanMgr.obj
 0001:0001b17c       ??1?$list@PEAVCPlugin@@V?$allocator@PEAVCPlugin@@@std@@@std@@QEAA@XZ 000000014001c17c f i CDlgPluginOption.obj
 0001:0001b17c       ??1?$list@PEAVCWSHIfObj@@V?$allocator@PEAVCWSHIfObj@@@std@@@std@@QEAA@XZ 000000014001c17c f i CHokanMgr.obj
 0001:0001b1c8       ?Release@?$ImplementsIUnknown@UIDispatch@@@@UEAAKXZ 000000014001c1c8 f i CHokanMgr.obj
 0001:0001b1ec       ?AddRef@?$ImplementsIUnknown@UIDispatch@@@@UEAAKXZ 000000014001c1ec f i CHokanMgr.obj
 0001:0001b1ec       ?AddRef@?$ImplementsIUnknown@UITypeInfo@@@@UEAAKXZ 000000014001c1ec f i CIfObj.obj
 0001:0001b1f8       ??1?$vector@UtagJackDef@@V?$allocator@UtagJackDef@@@std@@@std@@QEAA@XZ 000000014001c1f8 f i CHokanMgr.obj
 0001:0001b200       ?_Tidy@?$vector@UtagJackDef@@V?$allocator@UtagJackDef@@@std@@@std@@AEAAXXZ 000000014001c200 f i CHokanMgr.obj
 0001:0001b28c       ??$_Destroy_range@V?$allocator@UtagJackDef@@@std@@@std@@YAXPEAUtagJackDef@@QEAU1@AEAV?$allocator@UtagJackDef@@@0@@Z 000000014001c28c f i CHokanMgr.obj
 0001:0001b308       ??1?$_Alloc_construct_ptr@V?$allocator@U?$_List_node@P6APEAVCMacroManagerBase@@PEB_W@ZPEAX@std@@@std@@@std@@QEAA@XZ 000000014001c308 f i CMacroFactory.obj
 0001:0001b308       ??1?$_Alloc_construct_ptr@V?$allocator@U?$_List_node@PEAVCPlugin@@PEAX@std@@@std@@@std@@QEAA@XZ 000000014001c308 f i CPluginManager.obj
 0001:0001b308       ??1?$_Alloc_construct_ptr@V?$allocator@U?$_List_node@PEAVCWSHIfObj@@PEAX@std@@@std@@@std@@QEAA@XZ 000000014001c308 f i CHokanMgr.obj
 0001:0001b324       ??$_Emplace_reallocate@AEBQEAUHBRUSH__@@@?$vector@PEAUHBRUSH__@@V?$allocator@PEAUHBRUSH__@@@std@@@std@@AEAAPEAPEAUHBRUSH__@@QEAPEAU2@AEBQEAU2@@Z 000000014001c324 f i CGraphics.obj
 0001:0001b324       ??$_Emplace_reallocate@AEBQEAUHMENU__@@@?$vector@PEAUHMENU__@@V?$allocator@PEAUHMENU__@@@std@@@std@@AEAAPEAPEAUHMENU__@@QEAPEAU2@AEBQEAU2@@Z 000000014001c324 f i CMacro.obj
 0001:0001b324       ??$_Emplace_reallocate@AEBQEAUHPEN__@@@?$vector@PEAUHPEN__@@V?$allocator@PEAUHPEN__@@@std@@@std@@AEAAPEAPEAUHPEN__@@QEAPEAU2@AEBQEAU2@@Z 000000014001c324 f i CGraphics.obj
 0001:0001b324       ??$_Emplace_reallocate@AEBQEAUHRGN__@@@?$vector@PEAUHRGN__@@V?$allocator@PEAUHRGN__@@@std@@@std@@AEAAPEAPEAUHRGN__@@QEAPEAU2@AEBQEAU2@@Z 000000014001c324 f i CGraphics.obj
 0001:0001b324       ??$_Emplace_reallocate@AEBQEAUSORTDATA@@@?$vector@PEAUSORTDATA@@V?$allocator@PEAUSORTDATA@@@std@@@std@@AEAAPEAPEAUSORTDATA@@QEAPEAU2@AEBQEAU2@@Z 000000014001c324 f i CViewCommander_Edit_advanced.obj
 0001:0001b324       ??$_Emplace_reallocate@AEBQEAUSTypeConfig@@@?$vector@PEAUSTypeConfig@@V?$allocator@PEAUSTypeConfig@@@std@@@std@@AEAAPEAPEAUSTypeConfig@@QEAPEAU2@AEBQEAU2@@Z 000000014001c324 f i CType.obj
 0001:0001b324       ??$_Emplace_reallocate@AEBQEAVCColorStrategy@@@?$vector@PEAVCColorStrategy@@V?$allocator@PEAVCColorStrategy@@@std@@@std@@AEAAPEAPEAVCColorStrategy@@QEAPEAV2@AEBQEAV2@@Z 000000014001c324 f i CColorStrategy.obj
 0001:0001b324       ??$_Emplace_reallocate@AEBQEAVCFigure@@@?$vector@PEAVCFigure@@V?$allocator@PEAVCFigure@@@std@@@std@@AEAAPEAPEAVCFigure@@QEAPEAV2@AEBQEAV2@@Z 000000014001c324 f i CFigureManager.obj
 0001:0001b324       ??$_Emplace_reallocate@AEBQEAVCIfObj@@@?$vector@PEAVCIfObj@@V?$allocator@PEAVCIfObj@@@std@@@std@@AEAAPEAPEAVCIfObj@@QEAPEAV2@AEBQEAV2@@Z 000000014001c324 f i CWSH.obj
 0001:0001b324       ??$_Emplace_reallocate@AEBQEAVCListener@@@?$vector@PEAVCListener@@V?$allocator@PEAVCListener@@@std@@@std@@AEAAPEAPEAVCListener@@QEAPEAV2@AEBQEAV2@@Z 000000014001c324 f i relation_tool.obj
 0001:0001b324       ??$_Emplace_reallocate@AEBQEAVCOpe@@@?$vector@PEAVCOpe@@V?$allocator@PEAVCOpe@@@std@@@std@@AEAAPEAPEAVCOpe@@QEAPEAV2@AEBQEAV2@@Z 000000014001c324 f i COpeBlk.obj
 0001:0001b324       ??$_Emplace_reallocate@AEBQEAVCOpeBlk@@@?$vector@PEAVCOpeBlk@@V?$allocator@PEAVCOpeBlk@@@std@@@std@@AEAAPEAPEAVCOpeBlk@@QEAPEAV2@AEBQEAV2@@Z 000000014001c324 f i COpeBuf.obj
 0001:0001b324       ??$_Emplace_reallocate@AEBQEAVCPlug@@@?$vector@PEAVCPlug@@V?$allocator@PEAVCPlug@@@std@@@std@@AEAAPEAPEAVCPlug@@QEAPEAV2@AEBQEAV2@@Z 000000014001c324 f i CHokanMgr.obj
 0001:0001b324       ??$_Emplace_reallocate@AEBUSCommentBlock@@@?$vector@USCommentBlock@@V?$allocator@USCommentBlock@@@std@@@std@@AEAAPEAUSCommentBlock@@QEAU2@AEBU2@@Z 000000014001c324 f i CType_Cpp.obj
 0001:0001b324       ??$_Emplace_reallocate@AEBVCMark@CMarkMgr@@@?$vector@VCMark@CMarkMgr@@V?$allocator@VCMark@CMarkMgr@@@std@@@std@@AEAAPEAVCMark@CMarkMgr@@QEAV23@AEBV23@@Z 000000014001c324 f i CMarkMgr.obj
 0001:0001b324       ??$_Emplace_reallocate@PEAUHWND__@@@?$vector@PEAUHWND__@@V?$allocator@PEAUHWND__@@@std@@@std@@AEAAPEAPEAUHWND__@@QEAPEAU2@$$QEAPEAU2@@Z 000000014001c324 f i CDlgWindowList.obj
 0001:0001b324       ??$_Emplace_reallocate@PEAVCColorStrategy@@@?$vector@PEAVCColorStrategy@@V?$allocator@PEAVCColorStrategy@@@std@@@std@@AEAAPEAPEAVCColorStrategy@@QEAPEAV2@$$QEAPEAV2@@Z 000000014001c324 f i CColorStrategy.obj
 0001:0001b324       ??$_Emplace_reallocate@PEAVCFigure@@@?$vector@PEAVCFigure@@V?$allocator@PEAVCFigure@@@std@@@std@@AEAAPEAPEAVCFigure@@QEAPEAV2@$$QEAPEAV2@@Z 000000014001c324 f i CFigureManager.obj
 0001:0001b324       ??$_Emplace_reallocate@PEAVCPluginOption@@@?$vector@PEAVCPluginOption@@V?$allocator@PEAVCPluginOption@@@std@@@std@@AEAAPEAPEAVCPluginOption@@QEAPEAV2@$$QEAPEAV2@@Z 000000014001c324 f i CPlugin.obj
 0001:0001b480       ??1tagJackDef@@QEAA@XZ     000000014001c480 f i CHokanMgr.obj
 0001:0001b4e0       ??0CKeyWordSetMgr@@QEAA@XZ 000000014001c4e0 f   CKeyWordSetMgr.obj
 0001:0001b4f8       ?ResetAllKeyWordSet@CKeyWordSetMgr@@QEAAXXZ 000000014001c4f8 f   CKeyWordSetMgr.obj
 0001:0001b534       ?AddKeyWordSet@CKeyWordSetMgr@@QEAA_NPEB_W_NH@Z 000000014001c534 f   CKeyWordSetMgr.obj
 0001:0001b5ec       ?DelKeyWordSet@CKeyWordSetMgr@@QEAA_NH@Z 000000014001c5ec f   CKeyWordSetMgr.obj
 0001:0001b704       ?GetTypeName@CKeyWordSetMgr@@QEAAPEB_WH@Z 000000014001c704 f   CKeyWordSetMgr.obj
 0001:0001b720       ?SetTypeName@CKeyWordSetMgr@@QEAAPEB_WHPEB_W@Z 000000014001c720 f   CKeyWordSetMgr.obj
 0001:0001b788       ?GetKeyWordNum@CKeyWordSetMgr@@QEAAHH@Z 000000014001c788 f   CKeyWordSetMgr.obj
 0001:0001b7a0       ?GetKeyWord@CKeyWordSetMgr@@QEAAPEB_WHH@Z 000000014001c7a0 f   CKeyWordSetMgr.obj
 0001:0001b7d8       ?UpdateKeyWord@CKeyWordSetMgr@@QEAAPEB_WHHPEB_W@Z 000000014001c7d8 f   CKeyWordSetMgr.obj
 0001:0001b8c4       ?AddKeyWord@CKeyWordSetMgr@@QEAAHHPEB_W@Z 000000014001c8c4 f   CKeyWordSetMgr.obj
 0001:0001ba10       ?DelKeyWord@CKeyWordSetMgr@@QEAAHHH@Z 000000014001ca10 f   CKeyWordSetMgr.obj
 0001:0001bb58       ?SortKeyWord@CKeyWordSetMgr@@QEAAXH@Z 000000014001cb58 f   CKeyWordSetMgr.obj
 0001:0001bbd4       ?KeywordMaxLen@CKeyWordSetMgr@@IEAAXH@Z 000000014001cbd4 f   CKeyWordSetMgr.obj
 0001:0001bc5c       ?SearchKeyWord2@CKeyWordSetMgr@@QEAAHHPEB_WH@Z 000000014001cc5c f   CKeyWordSetMgr.obj
 0001:0001bd8c       ?SetKeyWordCase@CKeyWordSetMgr@@QEAAXHH@Z 000000014001cd8c f   CKeyWordSetMgr.obj
 0001:0001bda8       ?GetKeyWordCase@CKeyWordSetMgr@@QEAA_NH@Z 000000014001cda8 f   CKeyWordSetMgr.obj
 0001:0001bdb4       ?SetKeyWordArr@CKeyWordSetMgr@@QEAAHHHPEB_W@Z 000000014001cdb4 f   CKeyWordSetMgr.obj
 0001:0001bea4       ?SetKeyWordArr@CKeyWordSetMgr@@QEAAHHHQEAPEB_W@Z 000000014001cea4 f   CKeyWordSetMgr.obj
 0001:0001bf3c       ?CleanKeyWords@CKeyWordSetMgr@@QEAAHH@Z 000000014001cf3c f   CKeyWordSetMgr.obj
 0001:0001c058       ?CanAddKeyWord@CKeyWordSetMgr@@QEAA_NH@Z 000000014001d058 f   CKeyWordSetMgr.obj
 0001:0001c088       ?KeyWordReAlloc@CKeyWordSetMgr@@IEAA_NHH@Z 000000014001d088 f   CKeyWordSetMgr.obj
 0001:0001c164       ?GetAllocSize@CKeyWordSetMgr@@QEBAHH@Z 000000014001d164 f   CKeyWordSetMgr.obj
 0001:0001c17c       ?GetFreeSize@CKeyWordSetMgr@@QEBAHXZ 000000014001d17c f   CKeyWordSetMgr.obj
 0001:0001c190       ?SearchKeyWordSet@CKeyWordSetMgr@@QEAAHPEB_W@Z 000000014001d190 f   CKeyWordSetMgr.obj
 0001:0001c1f0       ??1CProgressSubject@@UEAA@XZ 000000014001d1f0 f i CLoadAgent.obj
 0001:0001c1f0       ??1CReadManager@@UEAA@XZ   000000014001d1f0 f i CLoadAgent.obj
 0001:0001c1f0       ??1CWriteManager@@UEAA@XZ  000000014001d1f0 f i CViewCommander_File.obj
 0001:0001c200       ??_ECProgressSubject@@UEAAPEAXI@Z 000000014001d200 f i * CIL library *:* CIL module *
 0001:0001c200       ??_ECReadManager@@UEAAPEAXI@Z 000000014001d200 f i * CIL library *:* CIL module *
 0001:0001c200       ??_ECWriteManager@@UEAAPEAXI@Z 000000014001d200 f i * CIL library *:* CIL module *
 0001:0001c200       ??_GCProgressSubject@@UEAAPEAXI@Z 000000014001d200 f i CLoadAgent.obj
 0001:0001c200       ??_GCReadManager@@UEAAPEAXI@Z 000000014001d200 f i CLoadAgent.obj
 0001:0001c200       ??_GCWriteManager@@UEAAPEAXI@Z 000000014001d200 f i CViewCommander_File.obj
 0001:0001c240       ?OnCheckLoad@CLoadAgent@@UEAA?AW4ECallbackResult@@PEAUSLoadInfo@@@Z 000000014001d240 f   CLoadAgent.obj
 0001:0001c8b8       ?OnLoad@CLoadAgent@@UEAA?AW4ELoadResult@@AEBUSLoadInfo@@@Z 000000014001d8b8 f   CLoadAgent.obj
 0001:0001cc24       ?OnAfterLoad@CLoadAgent@@UEAAXAEBUSLoadInfo@@@Z 000000014001dc24 f   CLoadAgent.obj
 0001:0001cc8c       ?OnFinalLoad@CLoadAgent@@UEAAXW4ELoadResult@@@Z 000000014001dc8c f   CLoadAgent.obj
 0001:0001cd5c       ?getInstance@?$TSingleton@VCEditApp@@@@SAPEAVCEditApp@@XZ 000000014001dd5c f i CLoadAgent.obj
 0001:0001cdec       ?SetMax@CMarkMgr@@QEAAXH@Z 000000014001ddec f   CMarkMgr.obj
 0001:0001cdfc       ?CheckPrev@CMarkMgr@@QEBA_NXZ 000000014001ddfc f   CMarkMgr.obj
 0001:0001ce04       ?CheckNext@CMarkMgr@@QEBA_NXZ 000000014001de04 f   CMarkMgr.obj
 0001:0001ce1c       ?PrevValid@CMarkMgr@@QEAA_NXZ 000000014001de1c f   CMarkMgr.obj
 0001:0001ce30       ?NextValid@CMarkMgr@@QEAA_NXZ 000000014001de30 f   CMarkMgr.obj
 0001:0001ce54       ?Flush@CMarkMgr@@UEAAXXZ   000000014001de54 f   CMarkMgr.obj
 0001:0001ce80       ?Add@CAutoMarkMgr@@UEAAXAEBVCMark@CMarkMgr@@@Z 000000014001de80 f   CMarkMgr.obj
 0001:0001cf04       ?Expire@CAutoMarkMgr@@UEAAXXZ 000000014001df04 f   CMarkMgr.obj
 0001:0001cf54       ??0CViewCommander@@QEAA@PEAVCEditView@@@Z 000000014001df54 f   CViewCommander.obj
 0001:0001cf7c       ?HandleCommand@CViewCommander@@QEAAHW4EFunctionCode@@_N_J222@Z 000000014001df7c f   CViewCommander.obj
 0001:0001f04c       ?Sub_BoxSelectLock@CViewCommander@@QEAAXH@Z 000000014002004c f   CViewCommander.obj
 0001:0001f098       ?ConvertEol@CViewCommander@@QEAAHPEB_WHPEA_W@Z 0000000140020098 f   CViewCommander.obj
 0001:0001f260       ?AlertNotFound@CViewCommander@@AEAAXPEAUHWND__@@_NPEB_WZZ 0000000140020260 f   CViewCommander.obj
 0001:0001f2e8       ?Command_JUMP_SRCHSTARTPOS@CViewCommander@@QEAAXXZ 00000001400202e8 f   CViewCommander_Bookmark.obj
 0001:0001f350       ?Command_JUMP_DIALOG@CViewCommander@@QEAAXXZ 0000000140020350 f   CViewCommander_Bookmark.obj
 0001:0001f384       ?Command_JUMP@CViewCommander@@QEAAXXZ 0000000140020384 f   CViewCommander_Bookmark.obj
 0001:0001f7ac       ?Command_BOOKMARK_SET@CViewCommander@@QEAAXXZ 00000001400207ac f   CViewCommander_Bookmark.obj
 0001:0001f91c       ?Command_BOOKMARK_NEXT@CViewCommander@@QEAAXXZ 000000014002091c f   CViewCommander_Bookmark.obj
 0001:0001fa38       ?Command_BOOKMARK_PREV@CViewCommander@@QEAAXXZ 0000000140020a38 f   CViewCommander_Bookmark.obj
 0001:0001fb58       ?Command_BOOKMARK_RESET@CViewCommander@@QEAAXXZ 0000000140020b58 f   CViewCommander_Bookmark.obj
 0001:0001fb88       ?Command_BOOKMARK_PATTERN@CViewCommander@@QEAAXXZ 0000000140020b88 f   CViewCommander_Bookmark.obj
 0001:0001fbd4       ?Command_FUNCLIST_NEXT@CViewCommander@@QEAAXXZ 0000000140020bd4 f   CViewCommander_Bookmark.obj
 0001:0001fce4       ?Command_FUNCLIST_PREV@CViewCommander@@QEAAXXZ 0000000140020ce4 f   CViewCommander_Bookmark.obj
 0001:0001fdf4       ??_ECMoveCaretOpe@@UEAAPEAXI@Z 0000000140020df4 f i * CIL library *:* CIL module *
 0001:0001fdf4       ??_ECOpe@@UEAAPEAXI@Z      0000000140020df4 f i * CIL library *:* CIL module *
 0001:0001fdf4       ??_GCMoveCaretOpe@@UEAAPEAXI@Z 0000000140020df4 f i CViewCommander_Clipboard.obj
 0001:0001fdf4       ??_GCOpe@@UEAAPEAXI@Z      0000000140020df4 f i COpe.obj
 0001:0001fe28       ?Command_CUT@CViewCommander@@QEAAXXZ 0000000140020e28 f   CViewCommander_Clipboard.obj
 0001:0001ff6c       ?Command_COPY@CViewCommander@@QEAAX_N0W4EEolType@@@Z 0000000140020f6c f   CViewCommander_Clipboard.obj
 0001:00020108       ?Command_PASTE@CViewCommander@@QEAAXH@Z 0000000140021108 f   CViewCommander_Clipboard.obj
 0001:000203a8       ?Command_PASTEBOX@CViewCommander@@QEAAXPEB_WH@Z 00000001400213a8 f   CViewCommander_Clipboard.obj
 0001:00020800       ?Command_PASTEBOX@CViewCommander@@QEAAXH@Z 0000000140021800 f   CViewCommander_Clipboard.obj
 0001:000208c4       ?Command_INSBOXTEXT@CViewCommander@@QEAAXPEB_WH@Z 00000001400218c4 f   CViewCommander_Clipboard.obj
 0001:0002091c       ?Command_INSTEXT@CViewCommander@@QEAAX_NPEB_WH000PEBV?$CRangeBase@V?$CStrictPoint@USLogicPoint@@HH@@@@@Z 000000014002191c f   CViewCommander_Clipboard.obj
 0001:00020d60       ?Command_ADDTAIL@CViewCommander@@QEAAXPEB_WH@Z 0000000140021d60 f   CViewCommander_Clipboard.obj
 0001:00020e30       ?Command_COPYLINES@CViewCommander@@QEAAXXZ 0000000140021e30 f   CViewCommander_Clipboard.obj
 0001:00020e40       ?Command_COPYLINESASPASSAGE@CViewCommander@@QEAAXXZ 0000000140021e40 f   CViewCommander_Clipboard.obj
 0001:00020e5c       ?Command_COPYLINESWITHLINENUMBER@CViewCommander@@QEAAXXZ 0000000140021e5c f   CViewCommander_Clipboard.obj
 0001:0002120c       ?Command_COPY_COLOR_HTML@CViewCommander@@QEAAX_N@Z 000000014002220c f   CViewCommander_Clipboard.obj
 0001:00021e64       ?GetColorStrategyHTML@CViewCommander@@QEAAPEAVCColorStrategy@@AEBVCStringRef@@HPEBVCColorStrategyPool@@PEAPEAV2@2AEA_N@Z 0000000140022e64 f   CViewCommander_Clipboard.obj
 0001:00021f7c       ?Command_COPY_COLOR_HTML_LINENUMBER@CViewCommander@@QEAAXXZ 0000000140022f7c f   CViewCommander_Clipboard.obj
 0001:00021f84       ?Command_COPYFILENAME@CViewCommander@@QEAAXXZ 0000000140022f84 f   CViewCommander_Clipboard.obj
 0001:00021fe0       ?Command_COPYPATH@CViewCommander@@QEAAXXZ 0000000140022fe0 f   CViewCommander_Clipboard.obj
 0001:0002203c       ?Command_COPYDIRPATH@CViewCommander@@QEAAXXZ 000000014002303c f   CViewCommander_Clipboard.obj
 0001:00022158       ?Command_COPYTAG@CViewCommander@@QEAAXXZ 0000000140023158 f   CViewCommander_Clipboard.obj
 0001:00022234       ?Command_CREATEKEYBINDLIST@CViewCommander@@QEAAXXZ 0000000140023234 f   CViewCommander_Clipboard.obj
 0001:000222cc       ?getInstance@?$TSingleton@VCColorStrategyPool@@@@SAPEAVCColorStrategyPool@@XZ 00000001400232cc f i CViewCommander_Clipboard.obj
 0001:00022340       ?GetDirPath@CFilePath@@QEBA?AV?$basic_string@_WU?$char_traits@_W@std@@V?$allocator@_W@2@@std@@XZ 0000000140023340 f i CViewCommander_Clipboard.obj
 0001:000223f8       ??_ECDecode@@UEAAPEAXI@Z   00000001400233f8 f i * CIL library *:* CIL module *
 0001:000223f8       ??_ECDecode_Base64Decode@@UEAAPEAXI@Z 00000001400233f8 f i * CIL library *:* CIL module *
 0001:000223f8       ??_GCDecode@@UEAAPEAXI@Z   00000001400233f8 f i CViewCommander_Convert.obj
 0001:000223f8       ??_GCDecode_Base64Decode@@UEAAPEAXI@Z 00000001400233f8 f i CViewCommander_Convert.obj
 0001:00022424       ?Command_TOLOWER@CViewCommander@@QEAAXXZ 0000000140023424 f   CViewCommander_Convert.obj
 0001:00022434       ?Command_TOUPPER@CViewCommander@@QEAAXXZ 0000000140023434 f   CViewCommander_Convert.obj
 0001:00022444       ?Command_TOHANKAKU@CViewCommander@@QEAAXXZ 0000000140023444 f   CViewCommander_Convert.obj
 0001:00022454       ?Command_TOZENKAKUKATA@CViewCommander@@QEAAXXZ 0000000140023454 f   CViewCommander_Convert.obj
 0001:00022464       ?Command_TOZENKAKUHIRA@CViewCommander@@QEAAXXZ 0000000140023464 f   CViewCommander_Convert.obj
 0001:00022474       ?Command_TOZENEI@CViewCommander@@QEAAXXZ 0000000140023474 f   CViewCommander_Convert.obj
 0001:00022484       ?Command_TOHANEI@CViewCommander@@QEAAXXZ 0000000140023484 f   CViewCommander_Convert.obj
 0001:00022494       ?Command_TOHANKATA@CViewCommander@@QEAAXXZ 0000000140023494 f   CViewCommander_Convert.obj
 0001:000224a4       ?Command_HANKATATOZENKAKUKATA@CViewCommander@@QEAAXXZ 00000001400234a4 f   CViewCommander_Convert.obj
 0001:000224b4       ?Command_HANKATATOZENKAKUHIRA@CViewCommander@@QEAAXXZ 00000001400234b4 f   CViewCommander_Convert.obj
 0001:000224c4       ?Command_TABTOSPACE@CViewCommander@@QEAAXXZ 00000001400234c4 f   CViewCommander_Convert.obj
 0001:000224d4       ?Command_SPACETOTAB@CViewCommander@@QEAAXXZ 00000001400234d4 f   CViewCommander_Convert.obj
 0001:000224e4       ?Command_CODECNV_AUTO2SJIS@CViewCommander@@QEAAXXZ 00000001400234e4 f   CViewCommander_Convert.obj
 0001:000224f4       ?Command_CODECNV_EMAIL@CViewCommander@@QEAAXXZ 00000001400234f4 f   CViewCommander_Convert.obj
 0001:00022504       ?Command_CODECNV_EUC2SJIS@CViewCommander@@QEAAXXZ 0000000140023504 f   CViewCommander_Convert.obj
 0001:00022514       ?Command_CODECNV_UNICODE2SJIS@CViewCommander@@QEAAXXZ 0000000140023514 f   CViewCommander_Convert.obj
 0001:00022524       ?Command_CODECNV_UNICODEBE2SJIS@CViewCommander@@QEAAXXZ 0000000140023524 f   CViewCommander_Convert.obj
 0001:00022534       ?Command_CODECNV_UTF82SJIS@CViewCommander@@QEAAXXZ 0000000140023534 f   CViewCommander_Convert.obj
 0001:00022544       ?Command_CODECNV_UTF72SJIS@CViewCommander@@QEAAXXZ 0000000140023544 f   CViewCommander_Convert.obj
 0001:00022554       ?Command_CODECNV_SJIS2JIS@CViewCommander@@QEAAXXZ 0000000140023554 f   CViewCommander_Convert.obj
 0001:00022564       ?Command_CODECNV_SJIS2EUC@CViewCommander@@QEAAXXZ 0000000140023564 f   CViewCommander_Convert.obj
 0001:00022574       ?Command_CODECNV_SJIS2UTF8@CViewCommander@@QEAAXXZ 0000000140023574 f   CViewCommander_Convert.obj
 0001:00022584       ?Command_CODECNV_SJIS2UTF7@CViewCommander@@QEAAXXZ 0000000140023584 f   CViewCommander_Convert.obj
 0001:00022594       ?Command_BASE64DECODE@CViewCommander@@QEAAXXZ 0000000140023594 f   CViewCommander_Convert.obj
 0001:000227dc       ??1CDecode_Base64Decode@@UEAA@XZ 00000001400237dc f i CViewCommander_Convert.obj
 0001:000227dc       ??1CDecode_UuDecode@@UEAA@XZ 00000001400237dc f i CViewCommander_Convert.obj
 0001:000227e8       ?Command_UUDECODE@CViewCommander@@QEAAXXZ 00000001400237e8 f   CViewCommander_Convert.obj
 0001:00022a4c       ??_ECDecode_UuDecode@@UEAAPEAXI@Z 0000000140023a4c f i * CIL library *:* CIL module *
 0001:00022a4c       ??_GCDecode_UuDecode@@UEAAPEAXI@Z 0000000140023a4c f i CViewCommander_Convert.obj
 0001:00022a78       ?scanNext@CMemoryIterator@@QEAAXXZ 0000000140023a78 f i CViewCommander_Cursor.obj
 0001:00022b64       ?CreateCMemoryIterator@CLayoutMgr@@QEBA?AVCMemoryIterator@@PEBVCLayout@@@Z 0000000140023b64 f i CViewCommander_Cursor.obj
 0001:00022bf4       ?Command_MOVECURSOR@CViewCommander@@QEAAXV?$CStrictPoint@USLogicPoint@@HH@@H@Z 0000000140023bf4 f   CViewCommander_Cursor.obj
 0001:00022c64       ?Command_MOVECURSORLAYOUT@CViewCommander@@QEAAXV?$CStrictPoint@USLayoutPoint@@HH@@H@Z 0000000140023c64 f   CViewCommander_Cursor.obj
 0001:00022db8       ?Command_UP@CViewCommander@@QEAAH_N0H@Z 0000000140023db8 f   CViewCommander_Cursor.obj
 0001:00022eb8       ?Command_DOWN@CViewCommander@@QEAAH_N0@Z 0000000140023eb8 f   CViewCommander_Cursor.obj
 0001:00022f94       ?Command_LEFT@CViewCommander@@QEAAH_N0@Z 0000000140023f94 f   CViewCommander_Cursor.obj
 0001:0002331c       ?Command_RIGHT@CViewCommander@@QEAAX_N00@Z 000000014002431c f   CViewCommander_Cursor.obj
 0001:000236b0       ?Command_UP2@CViewCommander@@QEAAX_N@Z 00000001400246b0 f   CViewCommander_Cursor.obj
 0001:000236c4       ?Command_DOWN2@CViewCommander@@QEAAX_N@Z 00000001400246c4 f   CViewCommander_Cursor.obj
 0001:000236d8       ?Command_WORDLEFT@CViewCommander@@QEAAX_N@Z 00000001400246d8 f   CViewCommander_Cursor.obj
 0001:000238c8       ?Command_WORDRIGHT@CViewCommander@@QEAAX_N@Z 00000001400248c8 f   CViewCommander_Cursor.obj
 0001:00023b10       ?Command_GOLINETOP@CViewCommander@@QEAAX_NH@Z 0000000140024b10 f   CViewCommander_Cursor.obj
 0001:00023d10       ?Command_GOLINEEND@CViewCommander@@QEAAX_NHH@Z 0000000140024d10 f   CViewCommander_Cursor.obj
 0001:00023ea4       ?Command_HalfPageUp@CViewCommander@@QEAAX_NH@Z 0000000140024ea4 f   CViewCommander_Cursor.obj
 0001:00023ed0       ?Command_HalfPageDown@CViewCommander@@QEAAX_NH@Z 0000000140024ed0 f   CViewCommander_Cursor.obj
 0001:00023ef8       ?Command_1PageUp@CViewCommander@@QEAAX_NH@Z 0000000140024ef8 f   CViewCommander_Cursor.obj
 0001:00023fac       ?Command_1PageDown@CViewCommander@@QEAAX_NH@Z 0000000140024fac f   CViewCommander_Cursor.obj
 0001:00024060       ?Command_GOFILETOP@CViewCommander@@QEAAX_N@Z 0000000140025060 f   CViewCommander_Cursor.obj
 0001:000240b8       ?Command_GOFILEEND@CViewCommander@@QEAAX_N@Z 00000001400250b8 f   CViewCommander_Cursor.obj
 0001:000241e0       ?MoveViewTopLine@CViewCommander@@AEAAXH@Z 00000001400251e0 f   CViewCommander_Cursor.obj
 0001:00024224       ?Command_CURLINECENTER@CViewCommander@@QEAAXXZ 0000000140025224 f   CViewCommander_Cursor.obj
 0001:0002424c       ?Command_CURLINETOP@CViewCommander@@QEAAXXZ 000000014002524c f   CViewCommander_Cursor.obj
 0001:00024260       ?Command_CURLINEBOTTOM@CViewCommander@@QEAAXXZ 0000000140025260 f   CViewCommander_Cursor.obj
 0001:0002427c       ?Command_JUMPHIST_PREV@CViewCommander@@QEAAXXZ 000000014002527c f   CViewCommander_Cursor.obj
 0001:00024344       ?Command_JUMPHIST_NEXT@CViewCommander@@QEAAXXZ 0000000140025344 f   CViewCommander_Cursor.obj
 0001:000243e0       ?Command_JUMPHIST_SET@CViewCommander@@QEAAXXZ 00000001400253e0 f   CViewCommander_Cursor.obj
 0001:000243e8       ?Command_WndScrollDown@CViewCommander@@QEAAXXZ 00000001400253e8 f   CViewCommander_Cursor.obj
 0001:00024518       ?Command_WndScrollUp@CViewCommander@@QEAAXXZ 0000000140025518 f   CViewCommander_Cursor.obj
 0001:00024628       ?Command_GONEXTPARAGRAPH@CViewCommander@@QEAAX_N@Z 0000000140025628 f   CViewCommander_Cursor.obj
 0001:0002477c       ?Command_GOPREVPARAGRAPH@CViewCommander@@QEAAX_N@Z 000000014002577c f   CViewCommander_Cursor.obj
 0001:000248e4       ?Command_AUTOSCROLL@CViewCommander@@QEAAXXZ 00000001400258e4 f   CViewCommander_Cursor.obj
 0001:0002493c       ?Command_WHEELUP@CViewCommander@@QEAAXH@Z 000000014002593c f   CViewCommander_Cursor.obj
 0001:0002496c       ?Command_WHEELDOWN@CViewCommander@@QEAAXH@Z 000000014002596c f   CViewCommander_Cursor.obj
 0001:000249a0       ?Command_WHEELLEFT@CViewCommander@@QEAAXH@Z 00000001400259a0 f   CViewCommander_Cursor.obj
 0001:000249d4       ?Command_WHEELRIGHT@CViewCommander@@QEAAXH@Z 00000001400259d4 f   CViewCommander_Cursor.obj
 0001:00024a04       ?Command_WHEELPAGEUP@CViewCommander@@QEAAXH@Z 0000000140025a04 f   CViewCommander_Cursor.obj
 0001:00024a34       ?Command_WHEELPAGEDOWN@CViewCommander@@QEAAXH@Z 0000000140025a34 f   CViewCommander_Cursor.obj
 0001:00024a68       ?Command_WHEELPAGELEFT@CViewCommander@@QEAAXH@Z 0000000140025a68 f   CViewCommander_Cursor.obj
 0001:00024a9c       ?Command_WHEELPAGERIGHT@CViewCommander@@QEAAXH@Z 0000000140025a9c f   CViewCommander_Cursor.obj
 0001:00024acc       ?Command_MODIFYLINE_NEXT@CViewCommander@@QEAAX_N@Z 0000000140025acc f   CViewCommander_Cursor.obj
 0001:00024d00       ?Command_MODIFYLINE_PREV@CViewCommander@@QEAAX_N@Z 0000000140025d00 f   CViewCommander_Cursor.obj
 0001:00025014       ?Command_MENU_RBUTTON@CViewCommander@@QEAAXXZ 0000000140026014 f   CViewCommander_CustMenu.obj
 0001:00025184       ?Command_CUSTMENU@CViewCommander@@QEAAHH@Z 0000000140026184 f   CViewCommander_CustMenu.obj
 0001:00025368       ?Command_COMPARE@CViewCommander@@QEAAXXZ 0000000140026368 f   CViewCommander_Diff.obj
 0001:00025714       ?Command_Diff@CViewCommander@@QEAAXPEB_WH@Z 0000000140026714 f   CViewCommander_Diff.obj
 0001:00025904       ?Command_Diff_Dialog@CViewCommander@@QEAAXXZ 0000000140026904 f   CViewCommander_Diff.obj
 0001:00025b50       ?Command_Diff_Next@CViewCommander@@QEAAXXZ 0000000140026b50 f   CViewCommander_Diff.obj
 0001:00025d14       ?Command_Diff_Prev@CViewCommander@@QEAAXXZ 0000000140026d14 f   CViewCommander_Diff.obj
 0001:00025ed8       ?Command_Diff_Reset@CViewCommander@@QEAAXXZ 0000000140026ed8 f   CViewCommander_Diff.obj
 0001:00025f08       ?GetMacroCommandInfo@CSmartIndentIfObj@@UEBAPEAUMacroFuncInfo@@XZ 0000000140026f08 f i CViewCommander_Edit.obj
 0001:00025f10       ?GetMacroFuncInfo@CSmartIndentIfObj@@UEBAPEAUMacroFuncInfo@@XZ 0000000140026f10 f i CViewCommander_Edit.obj
 0001:00025f18       ?HandleFunction@CSmartIndentIfObj@@UEAA_NPEAVCEditView@@W4EFunctionCode@@PEBUtagVARIANT@@HAEAU4@@Z 0000000140026f18 f i CViewCommander_Edit.obj
 0001:00025fc4       ??_ECSmartIndentIfObj@@UEAAPEAXI@Z 0000000140026fc4 f i * CIL library *:* CIL module *
 0001:00025fc4       ??_GCSmartIndentIfObj@@UEAAPEAXI@Z 0000000140026fc4 f i CViewCommander_Edit.obj
 0001:00026004       ?Command_WCHAR@CViewCommander@@QEAAX_W_N@Z 0000000140027004 f   CViewCommander_Edit.obj
 0001:00026660       ?Command_IME_CHAR@CViewCommander@@QEAAXG@Z 0000000140027660 f   CViewCommander_Edit.obj
 0001:000267f8       ?Command_UNDO@CViewCommander@@QEAAXXZ 00000001400277f8 f   CViewCommander_Edit.obj
 0001:00026fdc       ?Command_REDO@CViewCommander@@QEAAXXZ 0000000140027fdc f   CViewCommander_Edit.obj
 0001:00027774       ?Command_DELETE@CViewCommander@@QEAAXXZ 0000000140028774 f   CViewCommander_Edit.obj
 0001:0002794c       ?Command_DELETE_BACK@CViewCommander@@QEAAXXZ 000000014002894c f   CViewCommander_Edit.obj
 0001:00027ad4       ?DelCharForOverwrite@CViewCommander@@AEAAXPEB_WH@Z 0000000140028ad4 f   CViewCommander_Edit.obj
 0001:00027e24       ?Command_INDENT@CViewCommander@@QEAAX_WW4EIndentType@1@@Z 0000000140028e24 f   CViewCommander_Edit_advanced.obj
 0001:00027ea8       ?Command_INDENT@CViewCommander@@QEAAXPEB_WHW4EIndentType@1@@Z 0000000140028ea8 f   CViewCommander_Edit_advanced.obj
 0001:00028c20       ?Command_UNINDENT@CViewCommander@@QEAAX_W@Z 0000000140029c20 f   CViewCommander_Edit_advanced.obj
 0001:00029018       ?Command_TRIM@CViewCommander@@QEAAXH@Z 000000014002a018 f   CViewCommander_Edit_advanced.obj
 0001:000290d0       ?SortByLineAsc@@YA_NPEAUSORTDATA@@0@Z 000000014002a0d0 f   CViewCommander_Edit_advanced.obj
 0001:00029128       ?SortByLineDesc@@YA_NPEAUSORTDATA@@0@Z 000000014002a128 f   CViewCommander_Edit_advanced.obj
 0001:00029180       ?SortByKeyAsc@@YA_NPEAUSORTDATA@@0@Z 000000014002a180 f   CViewCommander_Edit_advanced.obj
 0001:000291d0       ?SortByKeyDesc@@YA_NPEAUSORTDATA@@0@Z 000000014002a1d0 f   CViewCommander_Edit_advanced.obj
 0001:00029220       ?Command_SORT@CViewCommander@@QEAAXH@Z 000000014002a220 f   CViewCommander_Edit_advanced.obj
 0001:00029a04       ?Command_MERGE@CViewCommander@@QEAAXXZ 000000014002aa04 f   CViewCommander_Edit_advanced.obj
 0001:00029f04       ?Command_Reconvert@CViewCommander@@QEAAXXZ 000000014002af04 f   CViewCommander_Edit_advanced.obj
 0001:0002a01c       ?resize@?$vector@VCLineData@@V?$allocator@VCLineData@@@std@@@std@@QEAAX_K@Z 000000014002b01c f i CViewCommander_Edit_advanced.obj
 0001:0002a0e4       ??1?$vector@VCLineData@@V?$allocator@VCLineData@@@std@@@std@@QEAA@XZ 000000014002b0e4 f i CViewCommander_Edit_advanced.obj
 0001:0002a190       ?_Reallocate_exactly@?$vector@VCStringRef@@V?$allocator@VCStringRef@@@std@@@std@@AEAAX_K@Z 000000014002b190 f i CViewCommander_Edit_advanced.obj
 0001:0002a260       ?_Reallocate_exactly@?$vector@PEAUHWND__@@V?$allocator@PEAUHWND__@@@std@@@std@@AEAAX_K@Z 000000014002b260 f i CEditWnd.obj
 0001:0002a260       ?_Reallocate_exactly@?$vector@PEAUSORTDATA@@V?$allocator@PEAUSORTDATA@@@std@@@std@@AEAAX_K@Z 000000014002b260 f i CViewCommander_Edit_advanced.obj
 0001:0002a330       ??$stable_sort@V?$_Vector_iterator@V?$_Vector_val@U?$_Simple_types@PEAUSORTDATA@@@std@@@std@@@std@@P6A_NPEAUSORTDATA@@0@Z@std@@YAXV?$_Vector_iterator@V?$_Vector_val@U?$_Simple_types@PEAUSORTDATA@@@std@@@std@@@0@0P6A_NPEAUSORTDATA@@1@Z@Z 000000014002b330 f i CViewCommander_Edit_advanced.obj
 0001:0002a448       ??1?$_Optimistic_temporary_buffer@PEAUSORTDATA@@@std@@QEAA@XZ 000000014002b448 f i CViewCommander_Edit_advanced.obj
 0001:0002a464       ??$_Insertion_sort_unchecked@PEAPEAUSORTDATA@@P6A_NPEAU1@0@Z@std@@YAPEAPEAUSORTDATA@@QEAPEAU1@0P6A_NPEAU1@1@Z@Z 000000014002b464 f i CViewCommander_Edit_advanced.obj
 0001:0002a50c       ??$_Stable_sort_unchecked@PEAPEAUSORTDATA@@P6A_NPEAU1@0@Z@std@@YAXQEAPEAUSORTDATA@@0_J01P6A_NPEAU1@2@Z@Z 000000014002b50c f i CViewCommander_Edit_advanced.obj
 0001:0002a5e8       ??$_Emplace_reallocate@AEBUSFONT@@@?$vector@USFONT@@V?$allocator@USFONT@@@std@@@std@@AEAAPEAUSFONT@@QEAU2@AEBU2@@Z 000000014002b5e8 f i CGraphics.obj
 0001:0002a5e8       ??$_Emplace_reallocate@AEBVCMyRect@@@?$vector@VCMyRect@@V?$allocator@VCMyRect@@@std@@@std@@AEAAPEAVCMyRect@@QEAV2@AEBV2@@Z 000000014002b5e8 f i CEditView_Paint.obj
 0001:0002a5e8       ??$_Emplace_reallocate@U?$pair@PEB_WH@std@@@?$vector@U?$pair@PEB_WH@std@@V?$allocator@U?$pair@PEB_WH@std@@@2@@std@@AEAAPEAU?$pair@PEB_WH@1@QEAU21@$$QEAU21@@Z 000000014002b5e8 f i CSearchAgent.obj
 0001:0002a5e8       ??$_Emplace_reallocate@U_COMDLG_FILTERSPEC@@@?$vector@U_COMDLG_FILTERSPEC@@V?$allocator@U_COMDLG_FILTERSPEC@@@std@@@std@@AEAAPEAU_COMDLG_FILTERSPEC@@QEAU2@$$QEAU2@@Z 000000014002b5e8 f i CDlgOpenFile_CommonItemDialog.obj
 0001:0002a5e8       ??$_Emplace_reallocate@VCStringRef@@@?$vector@VCStringRef@@V?$allocator@VCStringRef@@@std@@@std@@AEAAPEAVCStringRef@@QEAV2@$$QEAV2@@Z 000000014002b5e8 f i CViewCommander_Edit_advanced.obj
 0001:0002a748       ??$_Resize_reallocate@U_Value_init_tag@std@@@?$vector@VCLineData@@V?$allocator@VCLineData@@@std@@@std@@AEAAX_KAEBU_Value_init_tag@1@@Z 000000014002b748 f i CViewCommander_Edit_advanced.obj
 0001:0002a88c       ??$_Return_temporary_buffer@PEAUSORTDATA@@@std@@YAXQEAPEAUSORTDATA@@@Z 000000014002b88c f i CViewCommander_Edit_advanced.obj
 0001:0002a88c       ??3@YAXPEAX_K@Z            000000014002b88c f i LIBCMT:delete_scalar_size.obj
 0001:0002a88c       ??_V@YAXPEAX@Z             000000014002b88c f i LIBCMT:delete_array.obj
 0001:0002a894       ??1?$_Uninitialized_backout_al@V?$allocator@VCLineData@@@std@@@std@@QEAA@XZ 000000014002b894 f i CViewCommander_Edit_advanced.obj
 0001:0002a8c4       ?_Change_array@?$vector@VCLineData@@V?$allocator@VCLineData@@@std@@@std@@AEAAXQEAVCLineData@@_K1@Z 000000014002b8c4 f i CViewCommander_Edit_advanced.obj
 0001:0002a99c       ??$_Get_temporary_buffer@PEAUSORTDATA@@@std@@YA?AU?$pair@PEAPEAUSORTDATA@@_J@0@_J@Z 000000014002b99c f i CViewCommander_Edit_advanced.obj
 0001:0002aa00       ??$_Buffered_merge_sort_unchecked@PEAPEAUSORTDATA@@P6A_NPEAU1@0@Z@std@@YAXQEAPEAUSORTDATA@@0_J0P6A_NPEAU1@2@Z@Z 000000014002ba00 f i CViewCommander_Edit_advanced.obj
 0001:0002aae0       ??$_Buffered_inplace_merge_unchecked@PEAPEAUSORTDATA@@P6A_NPEAU1@0@Z@std@@YAXPEAPEAUSORTDATA@@00_J1QEAPEAU1@_JP6A_NPEAU1@4@Z@Z 000000014002bae0 f i CViewCommander_Edit_advanced.obj
 0001:0002abd8       ??$_Insertion_sort_isort_max_chunks@PEAPEAUSORTDATA@@P6A_NPEAU1@0@Z@std@@YAXPEAPEAUSORTDATA@@QEAPEAU1@_JP6A_NPEAU1@3@Z@Z 000000014002bbd8 f i CViewCommander_Edit_advanced.obj
 0001:0002ac38       ??$_Uninitialized_chunked_merge_unchecked2@PEAPEAUSORTDATA@@PEAU1@P6A_NPEAU1@0@Z@std@@YAXPEAPEAUSORTDATA@@QEAPEAU1@0_JP6A_NPEAU1@3@Z@Z 000000014002bc38 f i CViewCommander_Edit_advanced.obj
 0001:0002aca4       ??$_Chunked_merge_unchecked@PEAPEAUSORTDATA@@PEAPEAU1@P6A_NPEAU1@0@Z@std@@YAXPEAPEAUSORTDATA@@QEAPEAU1@0_J_JP6A_NPEAU1@4@Z@Z 000000014002bca4 f i CViewCommander_Edit_advanced.obj
 0001:0002ad10       ??$_Rotate_one_right@PEAPEAUSORTDATA@@@std@@YAXPEAPEAUSORTDATA@@00@Z 000000014002bd10 f i CViewCommander_Edit_advanced.obj
 0001:0002ad34       ??$_Rotate_one_left@PEAPEAUSORTDATA@@@std@@YAXPEAPEAUSORTDATA@@00@Z 000000014002bd34 f i CViewCommander_Edit_advanced.obj
 0001:0002ad5c       ??$_Buffered_inplace_merge_unchecked_impl@PEAPEAUSORTDATA@@P6A_NPEAU1@0@Z@std@@YAXPEAPEAUSORTDATA@@00_J1QEAPEAU1@_JP6A_NPEAU1@4@Z@Z 000000014002bd5c f i CViewCommander_Edit_advanced.obj
 0001:0002adb4       ??$_Uninitialized_merge_move@PEAPEAUSORTDATA@@PEAU1@P6A_NPEAU1@0@Z@std@@YAPEAPEAUSORTDATA@@PEAPEAU1@QEAPEAU1@11P6A_NPEAU1@2@Z@Z 000000014002bdb4 f i CViewCommander_Edit_advanced.obj
 0001:0002ae3c       ??$_Merge_move@PEAPEAUSORTDATA@@PEAPEAU1@P6A_NPEAU1@0@Z@std@@YAPEAPEAUSORTDATA@@PEAPEAU1@QEAPEAU1@10P6A_NPEAU1@2@Z@Z 000000014002be3c f i CViewCommander_Edit_advanced.obj
 0001:0002aec8       ??$_Inplace_merge_buffer_left@PEAPEAUSORTDATA@@P6A_NPEAU1@0@Z@std@@YAXPEAPEAUSORTDATA@@00QEAPEAU1@P6A_NPEAU1@2@Z@Z 000000014002bec8 f i CViewCommander_Edit_advanced.obj
 0001:0002af88       ??$_Inplace_merge_buffer_right@PEAPEAUSORTDATA@@P6A_NPEAU1@0@Z@std@@YAXPEAPEAUSORTDATA@@00QEAPEAU1@P6A_NPEAU1@2@Z@Z 000000014002bf88 f i CViewCommander_Edit_advanced.obj
 0001:0002b050       ??$_Buffered_inplace_merge_divide_and_conquer@PEAPEAUSORTDATA@@P6A_NPEAU1@0@Z@std@@YAXPEAPEAUSORTDATA@@00_J1QEAPEAU1@_JP6A_NPEAU1@4@Z@Z 000000014002c050 f i CViewCommander_Edit_advanced.obj
 0001:0002b1fc       ??$_Buffered_inplace_merge_divide_and_conquer2@PEAPEAUSORTDATA@@P6A_NPEAU1@0@Z@std@@YAXPEAPEAUSORTDATA@@00_J1QEAPEAU1@_JP6A_NPEAU1@4@Z0011@Z 000000014002c1fc f i CViewCommander_Edit_advanced.obj
 0001:0002b2e8       ??$_Buffered_rotate_unchecked@PEAPEAUSORTDATA@@@std@@YAPEAPEAUSORTDATA@@QEAPEAU1@00_J101@Z 000000014002c2e8 f i CViewCommander_Edit_advanced.obj
 0001:0002b3e4       ?Command_WordDeleteToStart@CViewCommander@@QEAAXXZ 000000014002c3e4 f   CViewCommander_Edit_word_line.obj
 0001:0002b4fc       ?Command_WordDeleteToEnd@CViewCommander@@QEAAXXZ 000000014002c4fc f   CViewCommander_Edit_word_line.obj
 0001:0002b614       ?Command_WordCut@CViewCommander@@QEAAXXZ 000000014002c614 f   CViewCommander_Edit_word_line.obj
 0001:0002b68c       ?Command_WordDelete@CViewCommander@@QEAAXXZ 000000014002c68c f   CViewCommander_Edit_word_line.obj
 0001:0002b6d4       ?Command_LineCutToStart@CViewCommander@@QEAAXXZ 000000014002c6d4 f   CViewCommander_Edit_word_line.obj
 0001:0002b7b8       ?Command_LineCutToEnd@CViewCommander@@QEAAXXZ 000000014002c7b8 f   CViewCommander_Edit_word_line.obj
 0001:0002b8d0       ?Command_LineDeleteToStart@CViewCommander@@QEAAXXZ 000000014002c8d0 f   CViewCommander_Edit_word_line.obj
 0001:0002b9b8       ?Command_LineDeleteToEnd@CViewCommander@@QEAAXXZ 000000014002c9b8 f   CViewCommander_Edit_word_line.obj
 0001:0002bad4       ?Command_CUT_LINE@CViewCommander@@QEAAXXZ 000000014002cad4 f   CViewCommander_Edit_word_line.obj
 0001:0002bb68       ?Command_DELETE_LINE@CViewCommander@@QEAAXXZ 000000014002cb68 f   CViewCommander_Edit_word_line.obj
 0001:0002bd44       ?Command_DUPLICATELINE@CViewCommander@@QEAAXXZ 000000014002cd44 f   CViewCommander_Edit_word_line.obj
 0001:0002c054       ?Command_FILENEW@CViewCommander@@QEAAXXZ 000000014002d054 f   CViewCommander_File.obj
 0001:0002c1ac       ?Command_FILENEW_NEWWINDOW@CViewCommander@@QEAAXXZ 000000014002d1ac f   CViewCommander_File.obj
 0001:0002c308       ?Command_FILEOPEN@CViewCommander@@QEAAXPEB_WW4ECodeType@@_N0@Z 000000014002d308 f   CViewCommander_File.obj
 0001:0002c910       ?Command_FILESAVE@CViewCommander@@QEAA_N_N0@Z 000000014002d910 f   CViewCommander_File.obj
 0001:0002c9ec       ?Command_FILESAVEAS_DIALOG@CViewCommander@@QEAA_NPEB_WW4ECodeType@@W4EEolType@@@Z 000000014002d9ec f   CViewCommander_File.obj
 0001:0002ca10       ?Command_FILESAVEAS@CViewCommander@@QEAAHPEB_WW4EEolType@@@Z 000000014002da10 f   CViewCommander_File.obj
 0001:0002ca3c       ?Command_FILESAVEALL@CViewCommander@@QEAAHXZ 000000014002da3c f   CViewCommander_File.obj
 0001:0002ca74       ?Command_FILECLOSE@CViewCommander@@QEAAXXZ 000000014002da74 f   CViewCommander_File.obj
 0001:0002ca88       ?Command_FILECLOSE_OPEN@CViewCommander@@QEAAXPEB_WW4ECodeType@@_N@Z 000000014002da88 f   CViewCommander_File.obj
 0001:0002cb68       ?Command_FILE_REOPEN@CViewCommander@@QEAAXW4ECodeType@@_N@Z 000000014002db68 f   CViewCommander_File.obj
 0001:0002cc0c       ?Command_PRINT@CViewCommander@@QEAAXXZ 000000014002dc0c f   CViewCommander_File.obj
 0001:0002cc2c       ?Command_PRINT_PREVIEW@CViewCommander@@QEAAXXZ 000000014002dc2c f   CViewCommander_File.obj
 0001:0002cc44       ?Command_PRINT_PAGESETUP@CViewCommander@@QEAAXXZ 000000014002dc44 f   CViewCommander_File.obj
 0001:0002cc5c       ?Command_OPEN_HfromtoC@CViewCommander@@QEAAHH@Z 000000014002dc5c f   CViewCommander_File.obj
 0001:0002cca4       ?Command_OPEN_HHPP@CViewCommander@@QEAAHHH@Z 000000014002dca4 f   CViewCommander_File.obj
 0001:0002cce8       ?Command_OPEN_CCPP@CViewCommander@@QEAAHHH@Z 000000014002dce8 f   CViewCommander_File.obj
 0001:0002cd2c       ?Command_ACTIVATE_SQLPLUS@CViewCommander@@QEAAXXZ 000000014002dd2c f   CViewCommander_File.obj
 0001:0002cd7c       ?Command_PLSQL_COMPILE_ON_SQLPLUS@CViewCommander@@QEAAXXZ 000000014002dd7c f   CViewCommander_File.obj
 0001:0002cf84       ?Command_BROWSE@CViewCommander@@QEAAXXZ 000000014002df84 f   CViewCommander_File.obj
 0001:0002d02c       ?Command_VIEWMODE@CViewCommander@@QEAAXXZ 000000014002e02c f   CViewCommander_File.obj
 0001:0002d0b8       ?Command_PROPERTY_FILE@CViewCommander@@QEAAXXZ 000000014002e0b8 f   CViewCommander_File.obj
 0001:0002d140       ??_ECDialog@@UEAAPEAXI@Z   000000014002e140 f i * CIL library *:* CIL module *
 0001:0002d140       ??_ECDlgProperty@@UEAAPEAXI@Z 000000014002e140 f i * CIL library *:* CIL module *
 0001:0002d140       ??_GCDialog@@UEAAPEAXI@Z   000000014002e140 f i CDialog.obj
 0001:0002d140       ??_GCDlgProperty@@UEAAPEAXI@Z 000000014002e140 f i CViewCommander_File.obj
 0001:0002d174       ?Command_PROFILEMGR@CViewCommander@@QEAAXXZ 000000014002e174 f   CViewCommander_File.obj
 0001:0002d328       ??1CDlgProfileMgr@@UEAA@XZ 000000014002e328 f i CViewCommander_File.obj
 0001:0002d348       ?Command_OPEN_FOLDER_IN_EXPLORER@CViewCommander@@QEAAXXZ 000000014002e348 f   CViewCommander_File.obj
 0001:0002d3e4       ?Command_OPEN_COMMAND_PROMPT@CViewCommander@@QEAAXH@Z 000000014002e3e4 f   CViewCommander_File.obj
 0001:0002d568       ?Command_OPEN_POWERSHELL@CViewCommander@@QEAAXH@Z 000000014002e568 f   CViewCommander_File.obj
 0001:0002d688       ?Command_EXITALLEDITORS@CViewCommander@@QEAAXXZ 000000014002e688 f   CViewCommander_File.obj
 0001:0002d6b4       ?Command_EXITALL@CViewCommander@@QEAAXXZ 000000014002e6b4 f   CViewCommander_File.obj
 0001:0002d6d4       ?Command_PUTFILE@CViewCommander@@QEAAHPEB_WW4ECodeType@@H@Z 000000014002e6d4 f   CViewCommander_File.obj
 0001:0002db38       ?Command_INSFILE@CViewCommander@@QEAAHPEB_WW4ECodeType@@H@Z 000000014002eb38 f   CViewCommander_File.obj
 0001:0002df78       ??$_Convert_stringoid_to_wide@U_Normal_conversion@filesystem@std@@@filesystem@std@@YA?AV?$basic_string@_WU?$char_traits@_W@std@@V?$allocator@_W@2@@1@V?$basic_string_view@_WU?$char_traits@_W@std@@@1@U_Normal_conversion@01@@Z 000000014002ef78 f i CViewCommander_File.obj
 0001:0002dfac       ??$_Stringoid_from_Source@PEA_W@filesystem@std@@YA?A_PAEBQEA_W@Z 000000014002efac f i file.obj
 0001:0002dfac       ??$_Stringoid_from_Source@PEB_W@filesystem@std@@YA?A_PAEBQEB_W@Z 000000014002efac f i CViewCommander_File.obj
 0001:0002dfcc       ??$_Convert_Source_to_wide@PEA_WU_Normal_conversion@filesystem@std@@@filesystem@std@@YA?AV?$basic_string@_WU?$char_traits@_W@std@@V?$allocator@_W@2@@1@AEBQEA_WU_Normal_conversion@01@@Z 000000014002efcc f i file.obj
 0001:0002dfcc       ??$_Convert_Source_to_wide@PEB_WU_Normal_conversion@filesystem@std@@@filesystem@std@@YA?AV?$basic_string@_WU?$char_traits@_W@std@@V?$allocator@_W@2@@1@AEBQEB_WU_Normal_conversion@01@@Z 000000014002efcc f i CViewCommander_File.obj
 0001:0002e000       ?Command_GREP_DIALOG@CViewCommander@@QEAAXXZ 000000014002f000 f   CViewCommander_Grep.obj
 0001:0002e0e8       ?Command_GREP@CViewCommander@@QEAAXXZ 000000014002f0e8 f   CViewCommander_Grep.obj
 0001:0002e440       ?Command_GREP_REPLACE_DLG@CViewCommander@@QEAAXXZ 000000014002f440 f   CViewCommander_Grep.obj
 0001:0002e560       ?Command_GREP_REPLACE@CViewCommander@@QEAAXXZ 000000014002f560 f   CViewCommander_Grep.obj
 0001:0002ee4c       ?Command_INS_DATE@CViewCommander@@QEAAXXZ 000000014002fe4c f   CViewCommander_Insert.obj
 0001:0002eed0       ?Command_INS_TIME@CViewCommander@@QEAAXXZ 000000014002fed0 f   CViewCommander_Insert.obj
 0001:0002ef54       ?Command_CtrlCode_Dialog@CViewCommander@@QEAAXXZ 000000014002ff54 f   CViewCommander_Insert.obj
 0001:0002effc       ?Command_INS_FILE_USED_RECENTLY@CViewCommander@@QEAAXXZ 000000014002fffc f   CViewCommander_Insert.obj
 0001:0002f1c4       ?Command_INS_FOLDER_USED_RECENTLY@CViewCommander@@QEAAXXZ 00000001400301c4 f   CViewCommander_Insert.obj
 0001:0002f38c       ??_ECRecent@@UEAAPEAXI@Z   000000014003038c f i * CIL library *:* CIL module *
 0001:0002f38c       ??_GCRecent@@UEAAPEAXI@Z   000000014003038c f i CViewCommander_Macro.obj
 0001:0002f3b8       ?Command_RECKEYMACRO@CViewCommander@@QEAAXXZ 00000001400303b8 f   CViewCommander_Macro.obj
 0001:0002f508       ?Command_SAVEKEYMACRO@CViewCommander@@QEAAXXZ 0000000140030508 f   CViewCommander_Macro.obj
 0001:0002f764       ??1CDlgOpenFile@@QEAA@XZ   0000000140030764 f i CViewCommander_Macro.obj
 0001:0002f7a4       ?Command_LOADKEYMACRO@CViewCommander@@QEAAXXZ 00000001400307a4 f   CViewCommander_Macro.obj
 0001:0002f9c8       ?Command_EXECKEYMACRO@CViewCommander@@QEAAXXZ 00000001400309c8 f   CViewCommander_Macro.obj
 0001:0002fa78       ?Command_EXECEXTMACRO@CViewCommander@@QEAAXPEB_W0@Z 0000000140030a78 f   CViewCommander_Macro.obj
 0001:0002fdac       ?Command_EXECCOMMAND_DIALOG@CViewCommander@@QEAAXXZ 0000000140030dac f   CViewCommander_Macro.obj
 0001:0002ff0c       ??1CDlgExec@@UEAA@XZ       0000000140030f0c f i CViewCommander_Macro.obj
 0001:0002ff60       ??1?$CRecentImp@UEditInfo@@PEBU1@@@UEAA@XZ 0000000140030f60 f i CDlgFavorite.obj
 0001:0002ff60       ??1?$CRecentImp@UEditNode@@PEBU1@@@UEAA@XZ 0000000140030f60 f i CAppNodeManager.obj
 0001:0002ff60       ??1?$CRecentImp@V?$StaticString@_W$0BAE@@@PEB_W@@UEAA@XZ 0000000140030f60 f i CViewCommander_Macro.obj
 0001:0002ff60       ??1?$CRecentImp@V?$StaticString@_W$0CAA@@@PEB_W@@UEAA@XZ 0000000140030f60 f i CDlgFavorite.obj
 0001:0002ff60       ??1?$CRecentImp@V?$StaticString@_W$0EAA@@@PEB_W@@UEAA@XZ 0000000140030f60 f i CViewCommander_Macro.obj
 0001:0002ff60       ??1CRecentCmd@@UEAA@XZ     0000000140030f60 f i CViewCommander_Macro.obj
 0001:0002ff60       ??1CRecentCurDir@@UEAA@XZ  0000000140030f60 f i CViewCommander_Macro.obj
 0001:0002ff60       ??1CRecentEditNode@@UEAA@XZ 0000000140030f60 f i CAppNodeManager.obj
 0001:0002ff60       ??1CRecentExceptMRU@@UEAA@XZ 0000000140030f60 f i CDlgFavorite.obj
 0001:0002ff60       ??1CRecentExcludeFile@@UEAA@XZ 0000000140030f60 f i CDlgGrep.obj
 0001:0002ff60       ??1CRecentExcludeFolder@@UEAA@XZ 0000000140030f60 f i CDlgGrep.obj
 0001:0002ff60       ??1CRecentFile@@UEAA@XZ    0000000140030f60 f i CDlgFavorite.obj
 0001:0002ff60       ??1CRecentFolder@@UEAA@XZ  0000000140030f60 f i CDlgFavorite.obj
 0001:0002ff60       ??1CRecentGrepFile@@UEAA@XZ 0000000140030f60 f i CDlgFavorite.obj
 0001:0002ff60       ??1CRecentGrepFolder@@UEAA@XZ 0000000140030f60 f i CDlgFavorite.obj
 0001:0002ff60       ??1CRecentReplace@@UEAA@XZ 0000000140030f60 f i CDlgFavorite.obj
 0001:0002ff60       ??1CRecentSearch@@UEAA@XZ  0000000140030f60 f i CDlgFavorite.obj
 0001:0002ff60       ??1CRecentTagjumpKeyword@@UEAA@XZ 0000000140030f60 f i CDlgTagJumpList.obj
 0001:0002ff80       ?Command_EXECCOMMAND@CViewCommander@@QEAAXPEB_WH0@Z 0000000140030f80 f   CViewCommander_Macro.obj
 0001:00030098       ?GetViewCount@?$CRecentImp@UEditInfo@@PEBU1@@@UEBAHXZ 0000000140031098 f i CDlgFavorite.obj
 0001:00030098       ?GetViewCount@?$CRecentImp@UEditNode@@PEBU1@@@UEBAHXZ 0000000140031098 f i CAppNodeManager.obj
 0001:00030098       ?GetViewCount@?$CRecentImp@V?$StaticString@_W$0BAE@@@PEB_W@@UEBAHXZ 0000000140031098 f i CViewCommander_Macro.obj
 0001:00030098       ?GetViewCount@?$CRecentImp@V?$StaticString@_W$0CAA@@@PEB_W@@UEBAHXZ 0000000140031098 f i CDlgFavorite.obj
 0001:00030098       ?GetViewCount@?$CRecentImp@V?$StaticString@_W$0EAA@@@PEB_W@@UEBAHXZ 0000000140031098 f i CViewCommander_Macro.obj
 0001:000300c0       ?GetItemCount@?$CRecentImp@UEditInfo@@PEBU1@@@UEBAHXZ 00000001400310c0 f i CDlgFavorite.obj
 0001:000300c0       ?GetItemCount@?$CRecentImp@UEditNode@@PEBU1@@@UEBAHXZ 00000001400310c0 f i CAppNodeManager.obj
 0001:000300c0       ?GetItemCount@?$CRecentImp@V?$StaticString@_W$0BAE@@@PEB_W@@UEBAHXZ 00000001400310c0 f i CViewCommander_Macro.obj
 0001:000300c0       ?GetItemCount@?$CRecentImp@V?$StaticString@_W$0CAA@@@PEB_W@@UEBAHXZ 00000001400310c0 f i CDlgFavorite.obj
 0001:000300c0       ?GetItemCount@?$CRecentImp@V?$StaticString@_W$0EAA@@@PEB_W@@UEBAHXZ 00000001400310c0 f i CViewCommander_Macro.obj
 0001:000300dc       ?GetArrayCount@?$CRecentImp@UEditInfo@@PEBU1@@@UEBAHXZ 00000001400310dc f i CDlgFavorite.obj
 0001:000300dc       ?GetArrayCount@?$CRecentImp@UEditNode@@PEBU1@@@UEBAHXZ 00000001400310dc f i CAppNodeManager.obj
 0001:000300dc       ?GetArrayCount@?$CRecentImp@V?$StaticString@_W$0BAE@@@PEB_W@@UEBAHXZ 00000001400310dc f i CViewCommander_Macro.obj
 0001:000300dc       ?GetArrayCount@?$CRecentImp@V?$StaticString@_W$0CAA@@@PEB_W@@UEBAHXZ 00000001400310dc f i CDlgFavorite.obj
 0001:000300dc       ?GetArrayCount@?$CRecentImp@V?$StaticString@_W$0EAA@@@PEB_W@@UEBAHXZ 00000001400310dc f i CViewCommander_Macro.obj
 0001:000300e0       ??_E?$CRecentImp@UEditInfo@@PEBU1@@@UEAAPEAXI@Z 00000001400310e0 f i * CIL library *:* CIL module *
 0001:000300e0       ??_E?$CRecentImp@UEditNode@@PEBU1@@@UEAAPEAXI@Z 00000001400310e0 f i * CIL library *:* CIL module *
 0001:000300e0       ??_E?$CRecentImp@V?$StaticString@_W$0BAE@@@PEB_W@@UEAAPEAXI@Z 00000001400310e0 f i * CIL library *:* CIL module *
 0001:000300e0       ??_E?$CRecentImp@V?$StaticString@_W$0CAA@@@PEB_W@@UEAAPEAXI@Z 00000001400310e0 f i * CIL library *:* CIL module *
 0001:000300e0       ??_E?$CRecentImp@V?$StaticString@_W$0EAA@@@PEB_W@@UEAAPEAXI@Z 00000001400310e0 f i * CIL library *:* CIL module *
 0001:000300e0       ??_ECRecentCmd@@UEAAPEAXI@Z 00000001400310e0 f i * CIL library *:* CIL module *
 0001:000300e0       ??_ECRecentCurDir@@UEAAPEAXI@Z 00000001400310e0 f i * CIL library *:* CIL module *
 0001:000300e0       ??_ECRecentEditNode@@UEAAPEAXI@Z 00000001400310e0 f i * CIL library *:* CIL module *
 0001:000300e0       ??_ECRecentExceptMRU@@UEAAPEAXI@Z 00000001400310e0 f i * CIL library *:* CIL module *
 0001:000300e0       ??_ECRecentExcludeFile@@UEAAPEAXI@Z 00000001400310e0 f i * CIL library *:* CIL module *
 0001:000300e0       ??_ECRecentExcludeFolder@@UEAAPEAXI@Z 00000001400310e0 f i * CIL library *:* CIL module *
 0001:000300e0       ??_ECRecentFile@@UEAAPEAXI@Z 00000001400310e0 f i * CIL library *:* CIL module *
 0001:000300e0       ??_ECRecentFolder@@UEAAPEAXI@Z 00000001400310e0 f i * CIL library *:* CIL module *
 0001:000300e0       ??_ECRecentGrepFile@@UEAAPEAXI@Z 00000001400310e0 f i * CIL library *:* CIL module *
 0001:000300e0       ??_ECRecentGrepFolder@@UEAAPEAXI@Z 00000001400310e0 f i * CIL library *:* CIL module *
 0001:000300e0       ??_ECRecentReplace@@UEAAPEAXI@Z 00000001400310e0 f i * CIL library *:* CIL module *
 0001:000300e0       ??_ECRecentSearch@@UEAAPEAXI@Z 00000001400310e0 f i * CIL library *:* CIL module *
 0001:000300e0       ??_ECRecentTagjumpKeyword@@UEAAPEAXI@Z 00000001400310e0 f i * CIL library *:* CIL module *
 0001:000300e0       ??_G?$CRecentImp@UEditInfo@@PEBU1@@@UEAAPEAXI@Z 00000001400310e0 f i CDlgFavorite.obj
 0001:000300e0       ??_G?$CRecentImp@UEditNode@@PEBU1@@@UEAAPEAXI@Z 00000001400310e0 f i CAppNodeManager.obj
 0001:000300e0       ??_G?$CRecentImp@V?$StaticString@_W$0BAE@@@PEB_W@@UEAAPEAXI@Z 00000001400310e0 f i CViewCommander_Macro.obj
 0001:000300e0       ??_G?$CRecentImp@V?$StaticString@_W$0CAA@@@PEB_W@@UEAAPEAXI@Z 00000001400310e0 f i CDlgFavorite.obj
 0001:000300e0       ??_G?$CRecentImp@V?$StaticString@_W$0EAA@@@PEB_W@@UEAAPEAXI@Z 00000001400310e0 f i CViewCommander_Macro.obj
 0001:000300e0       ??_GCRecentCmd@@UEAAPEAXI@Z 00000001400310e0 f i CRecentCmd.obj
 0001:000300e0       ??_GCRecentCurDir@@UEAAPEAXI@Z 00000001400310e0 f i CRecentCurDir.obj
 0001:000300e0       ??_GCRecentEditNode@@UEAAPEAXI@Z 00000001400310e0 f i CRecentEditNode.obj
 0001:000300e0       ??_GCRecentExceptMRU@@UEAAPEAXI@Z 00000001400310e0 f i CRecentExceptMru.obj
 0001:000300e0       ??_GCRecentExcludeFile@@UEAAPEAXI@Z 00000001400310e0 f i CRecentExcludeFile.obj
 0001:000300e0       ??_GCRecentExcludeFolder@@UEAAPEAXI@Z 00000001400310e0 f i CRecentExcludeFolder.obj
 0001:000300e0       ??_GCRecentFile@@UEAAPEAXI@Z 00000001400310e0 f i CRecentFile.obj
 0001:000300e0       ??_GCRecentFolder@@UEAAPEAXI@Z 00000001400310e0 f i CRecentFolder.obj
 0001:000300e0       ??_GCRecentGrepFile@@UEAAPEAXI@Z 00000001400310e0 f i CRecentGrepFile.obj
 0001:000300e0       ??_GCRecentGrepFolder@@UEAAPEAXI@Z 00000001400310e0 f i CRecentGrepFolder.obj
 0001:000300e0       ??_GCRecentReplace@@UEAAPEAXI@Z 00000001400310e0 f i CRecentReplace.obj
 0001:000300e0       ??_GCRecentSearch@@UEAAPEAXI@Z 00000001400310e0 f i CRecentSearch.obj
 0001:000300e0       ??_GCRecentTagjumpKeyword@@UEAAPEAXI@Z 00000001400310e0 f i CRecentTagjumpKeyword.obj
 0001:00030120       ?Command_CHGMOD_INS@CViewCommander@@QEAAXXZ 0000000140031120 f   CViewCommander_ModeChange.obj
 0001:00030158       ?Command_CHGMOD_EOL@CViewCommander@@QEAAXW4EEolType@@@Z 0000000140031158 f   CViewCommander_ModeChange.obj
 0001:00030184       ?Command_CHG_CHARSET@CViewCommander@@QEAAXW4ECodeType@@_N@Z 0000000140031184 f   CViewCommander_ModeChange.obj
 0001:00030240       ?Command_CANCEL_MODE@CViewCommander@@QEAAXH@Z 0000000140031240 f   CViewCommander_ModeChange.obj
 0001:00030468       ?GetMacroCommandInfo@COutlineIfObj@@UEBAPEAUMacroFuncInfo@@XZ 0000000140031468 f i CViewCommander_Outline.obj
 0001:00030470       ?GetMacroFuncInfo@COutlineIfObj@@UEBAPEAUMacroFuncInfo@@XZ 0000000140031470 f i CViewCommander_Outline.obj
 0001:00030478       ?HandleCommand@COutlineIfObj@@UEAA_NPEAVCEditView@@W4EFunctionCode@@QEAPEB_WQEBHH@Z 0000000140031478 f i CViewCommander_Outline.obj
 0001:0003074c       ??_ECOutlineIfObj@@UEAAPEAXI@Z 000000014003174c f i * CIL library *:* CIL module *
 0001:0003074c       ??_GCOutlineIfObj@@UEAAPEAXI@Z 000000014003174c f i CViewCommander_Outline.obj
 0001:00030798       ?Command_FUNCLIST@CViewCommander@@QEAAHHW4EOutlineType@@@Z 0000000140031798 f   CViewCommander_Outline.obj
 0001:00030f14       ?Command_SEARCH_BOX@CViewCommander@@QEAAXXZ 0000000140031f14 f   CViewCommander_Search.obj
 0001:00030f2c       ?Command_SEARCH_DIALOG@CViewCommander@@QEAAXXZ 0000000140031f2c f   CViewCommander_Search.obj
 0001:0003101c       ?Command_SEARCH_NEXT@CViewCommander@@QEAAX_N00PEAUHWND__@@PEB_WPEAV?$CRangeBase@V?$CStrictPoint@USLogicPoint@@HH@@@@@Z 000000014003201c f   CViewCommander_Search.obj
 0001:00031828       ?Command_SEARCH_PREV@CViewCommander@@QEAAX_NPEAUHWND__@@@Z 0000000140032828 f   CViewCommander_Search.obj
 0001:00031c60       ?Command_REPLACE_DIALOG@CViewCommander@@QEAAXXZ 0000000140032c60 f   CViewCommander_Search.obj
 0001:00031dec       ?Command_REPLACE@CViewCommander@@QEAAXPEAUHWND__@@@Z 0000000140032dec f   CViewCommander_Search.obj
 0001:0003251c       ?Command_REPLACE_ALL@CViewCommander@@QEAAXXZ 000000014003351c f   CViewCommander_Search.obj
 0001:00034014       ?Command_SEARCH_CLEARMARK@CViewCommander@@QEAAXXZ 0000000140035014 f   CViewCommander_Search.obj
 0001:0003418c       ?Command_BRACKETPAIR@CViewCommander@@QEAAXXZ 000000014003518c f   CViewCommander_Search.obj
 0001:000341f0       ?Command_SELECTWORD@CViewCommander@@QEAA_NPEAV?$CStrictPoint@USLayoutPoint@@HH@@@Z 00000001400351f0 f   CViewCommander_Select.obj
 0001:0003432c       ?Command_SELECTALL@CViewCommander@@QEAAXXZ 000000014003532c f   CViewCommander_Select.obj
 0001:0003440c       ?Command_SELECTLINE@CViewCommander@@QEAAXH@Z 000000014003540c f   CViewCommander_Select.obj
 0001:0003453c       ?Command_BEGIN_SELECT@CViewCommander@@QEAAXXZ 000000014003553c f   CViewCommander_Select.obj
 0001:000345dc       ?Command_BEGIN_BOXSELECT@CViewCommander@@QEAAX_N@Z 00000001400355dc f   CViewCommander_Select.obj
 0001:0003468c       ?DpiPointsToPixels@@YAHHH@Z 000000014003568c f i CViewCommander_Settings.obj
 0001:00034714       ?DpiPixelsToPoints@@YAHHH@Z 0000000140035714 f i CViewCommander_Settings.obj
 0001:0003479c       ?Command_SHOWTOOLBAR@CViewCommander@@QEAAXXZ 000000014003579c f   CViewCommander_Settings.obj
 0001:00034800       ?Command_SHOWFUNCKEY@CViewCommander@@QEAAXXZ 0000000140035800 f   CViewCommander_Settings.obj
 0001:0003486c       ?Command_SHOWTAB@CViewCommander@@QEAAXXZ 000000014003586c f   CViewCommander_Settings.obj
 0001:00034968       ?Command_SHOWSTATUSBAR@CViewCommander@@QEAAXXZ 0000000140035968 f   CViewCommander_Settings.obj
 0001:000349d4       ?Command_SHOWMINIMAP@CViewCommander@@QEAAXXZ 00000001400359d4 f   CViewCommander_Settings.obj
 0001:00034a3c       ?Command_TYPE_LIST@CViewCommander@@QEAAXXZ 0000000140035a3c f   CViewCommander_Settings.obj
 0001:00034b38       ??_ECDlgAbout@@UEAAPEAXI@Z 0000000140035b38 f i * CIL library *:* CIL module *
 0001:00034b38       ??_ECDlgTypeList@@UEAAPEAXI@Z 0000000140035b38 f i * CIL library *:* CIL module *
 0001:00034b38       ??_GCDlgAbout@@UEAAPEAXI@Z 0000000140035b38 f i CViewCommander_Support.obj
 0001:00034b38       ??_GCDlgTypeList@@UEAAPEAXI@Z 0000000140035b38 f i CViewCommander_Settings.obj
 0001:00034b6c       ?Command_CHANGETYPE@CViewCommander@@QEAAXH@Z 0000000140035b6c f   CViewCommander_Settings.obj
 0001:00034bfc       ?Command_OPTION_TYPE@CViewCommander@@QEAAXXZ 0000000140035bfc f   CViewCommander_Settings.obj
 0001:00034c28       ?Command_OPTION@CViewCommander@@QEAAXXZ 0000000140035c28 f   CViewCommander_Settings.obj
 0001:00034c40       ?Command_FONT@CViewCommander@@QEAAXXZ 0000000140035c40 f   CViewCommander_Settings.obj
 0001:00034db4       ?Command_SETFONTSIZE@CViewCommander@@QEAAXHHH@Z 0000000140035db4 f   CViewCommander_Settings.obj
 0001:00035400       ?Command_WRAPWINDOWWIDTH@CViewCommander@@QEAAXXZ 0000000140036400 f   CViewCommander_Settings.obj
 0001:000354b0       ?Command_Favorite@CViewCommander@@QEAAXXZ 00000001400364b0 f   CViewCommander_Settings.obj
 0001:0003552c       ?Command_TEXTWRAPMETHOD@CViewCommander@@QEAAXH@Z 000000014003652c f   CViewCommander_Settings.obj
 0001:0003560c       ?Command_SELECT_COUNT_MODE@CViewCommander@@QEAAXH@Z 000000014003660c f   CViewCommander_Settings.obj
 0001:0003566c       ?Command_SET_QUOTESTRING@CViewCommander@@QEAAXPEB_W@Z 000000014003666c f   CViewCommander_Settings.obj
 0001:000356a4       ??$?0V?$_Array_const_iterator@N$0EI@@std@@@ZoomSetting@@QEAA@V?$_Array_const_iterator@N$0EI@@std@@0NNN@Z 00000001400366a4 f i CViewCommander_Settings.obj
 0001:000357d0       ??1?$_Tidy_guard@V?$vector@NV?$allocator@N@std@@@std@@@std@@QEAA@XZ 00000001400367d0 f i CViewCommander_Settings.obj
 0001:000357d0       ??1?$_Tidy_guard@V?$vector@PEAVCPlug@@V?$allocator@PEAVCPlug@@@std@@@std@@@std@@QEAA@XZ 00000001400367d0 f i CDllPlugin.obj
 0001:00035834       ??0STypeConfig@@QEAA@XZ    0000000140036834 f i CViewCommander_Settings.obj
 0001:00035920       ?Command_HOKAN@CViewCommander@@QEAAXXZ 0000000140036920 f   CViewCommander_Support.obj
 0001:000359b8       ?Command_ToggleKeySearch@CViewCommander@@QEAAXH@Z 00000001400369b8 f   CViewCommander_Support.obj
 0001:000359f8       ?Command_HELP_CONTENTS@CViewCommander@@QEAAXXZ 00000001400369f8 f   CViewCommander_Support.obj
 0001:00035a04       ?Command_HELP_SEARCH@CViewCommander@@QEAAXXZ 0000000140036a04 f   CViewCommander_Support.obj
 0001:00035a1c       ?Command_MENU_ALLFUNC@CViewCommander@@QEAAXXZ 0000000140036a1c f   CViewCommander_Support.obj
 0001:00035c70       ?Command_EXTHELP1@CViewCommander@@QEAAXXZ 0000000140036c70 f   CViewCommander_Support.obj
 0001:00035e50       ?Command_EXTHTMLHELP@CViewCommander@@QEAAXPEB_W0@Z 0000000140036e50 f   CViewCommander_Support.obj
 0001:000360d0       ?Command_ABOUT@CViewCommander@@QEAAXXZ 00000001400370d0 f   CViewCommander_Support.obj
 0001:00036148       ??0CDlgAbout@@QEAA@XZ      0000000140037148 f i CViewCommander_Support.obj
 0001:00036568       ?Command_TAGJUMP@CViewCommander@@QEAA_N_N@Z 0000000140037568 f   CViewCommander_TagJump.obj
 0001:00036594       ?Command_TagJumpNoMessage@CViewCommander@@QEAA_N_N@Z 0000000140037594 f   CViewCommander_TagJump.obj
 0001:00037034       ?Command_TAGJUMPBACK@CViewCommander@@QEAAXXZ 0000000140038034 f   CViewCommander_TagJump.obj
 0001:000370c4       ?Command_TagsMake@CViewCommander@@QEAA_NXZ 00000001400380c4 f   CViewCommander_TagJump.obj
 0001:000376d8       ?Command_TagJumpByTagsFileMsg@CViewCommander@@QEAA_N_N@Z 00000001400386d8 f   CViewCommander_TagJump.obj
 0001:00037708       ?Command_TagJumpByTagsFile@CViewCommander@@QEAA_N_N@Z 0000000140038708 f   CViewCommander_TagJump.obj
 0001:0003789c       ?Command_TagJumpByTagsFileKeyword@CViewCommander@@QEAA_NPEB_W@Z 000000014003889c f   CViewCommander_TagJump.obj
 0001:000379c0       ?Sub_PreProcTagJumpByTagsFile@CViewCommander@@AEAA_NPEA_WH@Z 00000001400389c0 f   CViewCommander_TagJump.obj
 0001:00037ad0       ?Command_SPLIT_V@CViewCommander@@QEAAXXZ 0000000140038ad0 f   CViewCommander_Window.obj
 0001:00037aec       ?Command_SPLIT_H@CViewCommander@@QEAAXXZ 0000000140038aec f   CViewCommander_Window.obj
 0001:00037b08       ?Command_SPLIT_VH@CViewCommander@@QEAAXXZ 0000000140038b08 f   CViewCommander_Window.obj
 0001:00037b24       ?Command_WINCLOSE@CViewCommander@@QEAAXXZ 0000000140038b24 f   CViewCommander_Window.obj
 0001:00037bb8       ?Command_FILECLOSEALL@CViewCommander@@QEAAXXZ 0000000140038bb8 f   CViewCommander_Window.obj
 0001:00037c50       ?Command_TAB_CLOSEOTHER@CViewCommander@@QEAAXXZ 0000000140038c50 f   CViewCommander_Window.obj
 0001:00037d50       ?Command_WINLIST@CViewCommander@@QEAAXH@Z 0000000140038d50 f   CViewCommander_Window.obj
 0001:00037d74       ?Command_DLGWINLIST@CViewCommander@@QEAAXXZ 0000000140038d74 f   CViewCommander_Window.obj
 0001:00037dd8       ?Command_CASCADE@CViewCommander@@QEAAXXZ 0000000140038dd8 f   CViewCommander_Window.obj
 0001:00038118       ?Command_TILE_V@CViewCommander@@QEAAXXZ 0000000140039118 f   CViewCommander_Window.obj
 0001:00038314       ?Command_TILE_H@CViewCommander@@QEAAXXZ 0000000140039314 f   CViewCommander_Window.obj
 0001:00038510       ?Command_WINTOPMOST@CViewCommander@@QEAAX_J@Z 0000000140039510 f   CViewCommander_Window.obj
 0001:00038530       ?Command_BIND_WINDOW@CViewCommander@@QEAAXXZ 0000000140039530 f   CViewCommander_Window.obj
 0001:00038628       ?Command_GROUPCLOSE@CViewCommander@@QEAAXXZ 0000000140039628 f   CViewCommander_Window.obj
 0001:000386e4       ?Command_NEXTGROUP@CViewCommander@@QEAAXXZ 00000001400396e4 f   CViewCommander_Window.obj
 0001:00038708       ?Command_PREVGROUP@CViewCommander@@QEAAXXZ 0000000140039708 f   CViewCommander_Window.obj
 0001:0003872c       ?Command_TAB_MOVERIGHT@CViewCommander@@QEAAXXZ 000000014003972c f   CViewCommander_Window.obj
 0001:00038750       ?Command_TAB_MOVELEFT@CViewCommander@@QEAAXXZ 0000000140039750 f   CViewCommander_Window.obj
 0001:00038774       ?Command_TAB_SEPARATE@CViewCommander@@QEAAXXZ 0000000140039774 f   CViewCommander_Window.obj
 0001:00038798       ?Command_TAB_JOINTNEXT@CViewCommander@@QEAAXXZ 0000000140039798 f   CViewCommander_Window.obj
 0001:000387bc       ?Command_TAB_JOINTPREV@CViewCommander@@QEAAXXZ 00000001400397bc f   CViewCommander_Window.obj
 0001:000387e0       ?Command_TAB_CLOSELEFT@CViewCommander@@QEAAXXZ 00000001400397e0 f   CViewCommander_Window.obj
 0001:00038908       ?Command_TAB_CLOSERIGHT@CViewCommander@@QEAAXXZ 0000000140039908 f   CViewCommander_Window.obj
 0001:00038a30       ?Command_MAXIMIZE_V@CViewCommander@@QEAAXXZ 0000000140039a30 f   CViewCommander_Window.obj
 0001:00038abc       ?Command_MAXIMIZE_H@CViewCommander@@QEAAXXZ 0000000140039abc f   CViewCommander_Window.obj
 0001:00038b48       ?Command_MINIMIZE_ALL@CViewCommander@@QEAAXXZ 0000000140039b48 f   CViewCommander_Window.obj
 0001:00038c10       ?Command_REDRAW@CViewCommander@@QEAAXXZ 0000000140039c10 f   CViewCommander_Window.obj
 0001:00038c18       ?Command_WIN_OUTPUT@CViewCommander@@QEAAXXZ 0000000140039c18 f   CViewCommander_Window.obj
 0001:00038c48       ?Command_TRACEOUT@CViewCommander@@QEAAXPEB_WHH@Z 0000000140039c48 f   CViewCommander_Window.obj
 0001:00038cdc       ??_E?$_Ref_count@UCDlgOpenFile_CommonFileDialog@@@std@@UEAAPEAXI@Z 0000000140039cdc f i * CIL library *:* CIL module *
 0001:00038cdc       ??_E?$_Ref_count@UCDlgOpenFile_CommonItemDialog@@@std@@UEAAPEAXI@Z 0000000140039cdc f i * CIL library *:* CIL module *
 0001:00038cdc       ??_ECConvert_CodeAutoToSjis@@UEAAPEAXI@Z 0000000140039cdc f i * CIL library *:* CIL module *
 0001:00038cdc       ??_ECConvert_TabToSpace@@UEAAPEAXI@Z 0000000140039cdc f i * CIL library *:* CIL module *
 0001:00038cdc       ??_G?$_Ref_count@UCDlgOpenFile_CommonFileDialog@@@std@@UEAAPEAXI@Z 0000000140039cdc f i CDlgOpenFile_CommonFileDialog.obj
 0001:00038cdc       ??_G?$_Ref_count@UCDlgOpenFile_CommonItemDialog@@@std@@UEAAPEAXI@Z 0000000140039cdc f i CDlgOpenFile_CommonItemDialog.obj
 0001:00038cdc       ??_GCConvert_CodeAutoToSjis@@UEAAPEAXI@Z 0000000140039cdc f i CConvert_CodeAutoToSjis.obj
 0001:00038cdc       ??_GCConvert_TabToSpace@@UEAAPEAXI@Z 0000000140039cdc f i CConvert.obj
 0001:00038d00       ??_ECConvert_SpaceToTab@@UEAAPEAXI@Z 0000000140039d00 f i * CIL library *:* CIL module *
 0001:00038d00       ??_GCConvert_SpaceToTab@@UEAAPEAXI@Z 0000000140039d00 f i CConvert.obj
 0001:00038d24       ??0CConversionFacade@@QEAA@HH_NAEBUSEncodingConfig@@AEAVCCharWidthCache@@@Z 0000000140039d24 f   CConvert.obj
 0001:00038d50       ?ConvMemory@CConversionFacade@@QEAA_NW4EFunctionCode@@AEAVCNativeW@@@Z 0000000140039d50 f   CConvert.obj
 0001:00038d7c       ?CallConvert@CConversionFacade@@AEAA_NW4EFunctionCode@@PEAVCNativeW@@@Z 0000000140039d7c f   CConvert.obj
 0001:0003901c       ??0CConvert_CodeAutoToSjis@@QEAA@AEBUSEncodingConfig@@@Z 000000014003a01c f   CConvert_CodeAutoToSjis.obj
 0001:0003903c       ?DoConvert@CConvert_CodeAutoToSjis@@UEAA_NPEAVCNativeW@@@Z 000000014003a03c f   CConvert_CodeAutoToSjis.obj
 0001:000391d4       ??0CConvert_CodeFromSjis@@QEAA@W4ECodeType@@@Z 000000014003a1d4 f   CConvert_CodeFromSjis.obj
 0001:000391e8       ?DoConvert@CConvert_CodeFromSjis@@UEAA_NPEAVCNativeW@@@Z 000000014003a1e8 f   CConvert_CodeFromSjis.obj
 0001:0003931c       ??0CConvert_CodeToSjis@@QEAA@W4ECodeType@@@Z 000000014003a31c f   CConvert_CodeToSjis.obj
 0001:00039330       ?DoConvert@CConvert_CodeToSjis@@UEAA_NPEAVCNativeW@@@Z 000000014003a330 f   CConvert_CodeToSjis.obj
 0001:00039474       ?DoConvert@CConvert_HaneisuToZeneisu@@UEAA_NPEAVCNativeW@@@Z 000000014003a474 f   CConvert_HaneisuToZeneisu.obj
 0001:00039490       ?DoConvert@CConvert_HankataToZenhira@@UEAA_NPEAVCNativeW@@@Z 000000014003a490 f   CConvert_HankataToZenhira.obj
 0001:00039508       ?DoConvert@CConvert_HankataToZenkata@@UEAA_NPEAVCNativeW@@@Z 000000014003a508 f   CConvert_HankataToZenkata.obj
 0001:00039580       ?DoConvert@CConvert_SpaceToTab@@UEAA_NPEAVCNativeW@@@Z 000000014003a580 f   CConvert_SpaceToTab.obj
 0001:00039940       ?DoConvert@CConvert_TabToSpace@@UEAA_NPEAVCNativeW@@@Z 000000014003a940 f   CConvert_TabToSpace.obj
 0001:00039b70       ??$__std_count_trivial@$$CB_W_W@@YA_KPEB_W0_W@Z 000000014003ab70 f i CConvert_TabToSpace.obj
 0001:00039b78       ??$_Reallocate_grow_by@V<lambda_1>@?L@??reserve@?$basic_string@_WU?$char_traits@_W@std@@V?$allocator@_W@2@@std@@QEAAX_K@Z@$$V@?$basic_string@_WU?$char_traits@_W@std@@V?$allocator@_W@2@@std@@AEAAAEAV01@_KV<lambda_1>@?L@??reserve@01@QEAAX0@Z@@Z 000000014003ab78 f i CConvert_TabToSpace.obj
 0001:00039cac       ?reserve@?$basic_string@_WU?$char_traits@_W@std@@V?$allocator@_W@2@@std@@QEAAX_K@Z 000000014003acac f i CConvert_TabToSpace.obj
 0001:00039d50       ?DoConvert@CConvert_ToHankaku@@UEAA_NPEAVCNativeW@@@Z 000000014003ad50 f   CConvert_ToHankaku.obj
 0001:00039dd0       ?DoConvert@CConvert_ToLower@@UEAA_NPEAVCNativeW@@@Z 000000014003add0 f   CConvert_ToLower.obj
 0001:0003a080       ?DoConvert@CConvert_ToUpper@@UEAA_NPEAVCNativeW@@@Z 000000014003b080 f   CConvert_ToUpper.obj
 0001:0003a33c       ?DoConvert@CConvert_ToZenhira@@UEAA_NPEAVCNativeW@@@Z 000000014003b33c f   CConvert_ToZenhira.obj
 0001:0003a3cc       ?DoConvert@CConvert_ToZenkata@@UEAA_NPEAVCNativeW@@@Z 000000014003b3cc f   CConvert_ToZenkata.obj
 0001:0003a45c       ?DoConvert@CConvert_Trim@@UEAA_NPEAVCNativeW@@@Z 000000014003b45c f   CConvert_Trim.obj
 0001:0003a758       ?DoConvert@CConvert_ZeneisuToHaneisu@@UEAA_NPEAVCNativeW@@@Z 000000014003b758 f   CConvert_ZeneisuToHaneisu.obj
 0001:0003a774       ?DoConvert@CConvert_ZenkataToHankata@@UEAA_NPEAVCNativeW@@@Z 000000014003b774 f   CConvert_ZenkataToHankata.obj
 0001:0003a7f4       ?DoDecode@CDecode_Base64Decode@@UEAA_NAEBVCNativeW@@PEAVCMemory@@@Z 000000014003b7f4 f   CDecode_Base64Decode.obj
 0001:0003a908       ??$_DecodeBase64@_W@@YAHPEB_WHPEAD@Z 000000014003b908 f i CDecode_Base64Decode.obj
 0001:0003aa40       ?DoDecode@CDecode_UuDecode@@UEAA_NAEBVCNativeW@@PEAVCMemory@@@Z 000000014003ba40 f   CDecode_UuDecode.obj
 0001:0003abd0       ??$CheckUUHeader@_W@@YA_NPEB_WHPEA_W@Z 000000014003bbd0 f i CDecode_UuDecode.obj
 0001:0003add0       ??$_DecodeUU_line@_W@@YAHPEB_WHPEAD@Z 000000014003bdd0 f i CDecode_UuDecode.obj
 0001:0003ae60       ??$CheckUUFooter@_W@@YA_NPEB_WH@Z 000000014003be60 f i CDecode_UuDecode.obj
 0001:0003af08       ??$GetWord@_W@CWordParse@@SAHPEB_WH0PEAPEA_WPEAH@Z 000000014003bf08 f i CDecode_UuDecode.obj
 0001:0003afc4       ??$wcsncmp_literal@$05@@YAHPEB_WAEAY05$$CB_W@Z 000000014003bfc4 f i CDecode_UuDecode.obj
 0001:0003afd0       ??$strncmp_literal@$05@@YAHPEBDAEAY05$$CBD@Z 000000014003bfd0 f i CDecode_UuDecode.obj
 0001:0003afe4       ??$wcsncmp_literal@$03@@YAHPEB_WAEAY03$$CB_W@Z 000000014003bfe4 f i CDecode_UuDecode.obj
 0001:0003aff0       ?wcschr_idx@@YA_NPEB_W_WPEAH@Z 000000014003bff0 f   convert_util.obj
 0001:0003b028       ?Convert_ZenhiraToZenkata@@YAXPEA_WH@Z 000000014003c028 f   convert_util.obj
 0001:0003b06c       ?Convert_ZenkataToZenhira@@YAXPEA_WH@Z 000000014003c06c f   convert_util.obj
 0001:0003b0b0       ?Convert_ZeneisuToHaneisu@@YAXPEA_WH@Z 000000014003c0b0 f   convert_util.obj
 0001:0003b150       ?Convert_HaneisuToZeneisu@@YAXPEA_WH@Z 000000014003c150 f   convert_util.obj
 0001:0003b1e4       ?Convert_ZenkataToHankata@@YAXPEB_WHPEA_WPEAH@Z 000000014003c1e4 f   convert_util.obj
 0001:0003b3b8       ?Convert_ToHankaku@@YAXPEB_WHPEA_WPEAH@Z 000000014003c3b8 f   convert_util.obj
 0001:0003b5f4       ?Convert_HankataToZenkata@@YAXPEB_WHPEA_WPEAH@Z 000000014003c5f4 f   convert_util.obj
 0001:0003b790       ?Convert_HankataToZenhira@@YAXPEB_WHPEA_WPEAH@Z 000000014003c790 f   convert_util.obj
 0001:0003b9b8       ??0COpe@@QEAA@W4EOpeCode@@@Z 000000014003c9b8 f   COpe.obj
 0001:0003b9d8       ??1COpe@@UEAA@XZ           000000014003c9d8 f   COpe.obj
 0001:0003b9e4       ??0COpeBlk@@QEAA@XZ        000000014003c9e4 f   COpeBlk.obj
 0001:0003b9f8       ??1COpeBlk@@QEAA@XZ        000000014003c9f8 f   COpeBlk.obj
 0001:0003baac       ?AppendOpe@COpeBlk@@QEAA_NPEAVCOpe@@@Z 000000014003caac f   COpeBlk.obj
 0001:0003bb48       ?GetOpe@COpeBlk@@QEAAPEAVCOpe@@H@Z 000000014003cb48 f   COpeBlk.obj
 0001:0003bb68       ??0COpeBuf@@QEAA@XZ        000000014003cb68 f   COpeBuf.obj
 0001:0003bb80       ??1COpeBuf@@QEAA@XZ        000000014003cb80 f   COpeBuf.obj
 0001:0003bc48       ?IsEnableUndo@COpeBuf@@QEBA_NXZ 000000014003cc48 f   COpeBuf.obj
 0001:0003bc64       ?IsEnableRedo@COpeBuf@@QEBA_NXZ 000000014003cc64 f   COpeBuf.obj
 0001:0003bc80       ?AppendOpeBlk@COpeBuf@@QEAA_NPEAVCOpeBlk@@@Z 000000014003cc80 f   COpeBuf.obj
 0001:0003bd80       ?ClearAll@COpeBuf@@QEAAXXZ 000000014003cd80 f   COpeBuf.obj
 0001:0003be08       ?SetNoModified@COpeBuf@@QEAAXXZ 000000014003ce08 f   COpeBuf.obj
 0001:0003be10       ?DoUndo@COpeBuf@@QEAAPEAVCOpeBlk@@PEA_N@Z 000000014003ce10 f   COpeBuf.obj
 0001:0003be48       ?DoRedo@COpeBuf@@QEAAPEAVCOpeBlk@@PEA_N@Z 000000014003ce48 f   COpeBuf.obj
 0001:0003be80       ??$_Resize_reallocate@U_Value_init_tag@std@@@?$vector@PEAUHBRUSH__@@V?$allocator@PEAUHBRUSH__@@@std@@@std@@AEAAX_KAEBU_Value_init_tag@1@@Z 000000014003ce80 f i CGraphics.obj
 0001:0003be80       ??$_Resize_reallocate@U_Value_init_tag@std@@@?$vector@PEAUHMENU__@@V?$allocator@PEAUHMENU__@@@std@@@std@@AEAAX_KAEBU_Value_init_tag@1@@Z 000000014003ce80 f i CMacro.obj
 0001:0003be80       ??$_Resize_reallocate@U_Value_init_tag@std@@@?$vector@PEAUSTypeConfig@@V?$allocator@PEAUSTypeConfig@@@std@@@std@@AEAAX_KAEBU_Value_init_tag@1@@Z 000000014003ce80 f i CShareData_IO.obj
 0001:0003be80       ??$_Resize_reallocate@U_Value_init_tag@std@@@?$vector@PEAVCOpeBlk@@V?$allocator@PEAVCOpeBlk@@@std@@@std@@AEAAX_KAEBU_Value_init_tag@1@@Z 000000014003ce80 f i COpeBuf.obj
 0001:0003bfb0       ?EnsureDirectoryExist@@YAXAEBV?$basic_string@_WU?$char_traits@_W@std@@V?$allocator@_W@2@@std@@@Z 000000014003cfb0 f   CProfile.obj
 0001:0003c098       ?ReadOneline@CProfile@@IEAAXAEBV?$basic_string@_WU?$char_traits@_W@std@@V?$allocator@_W@2@@std@@@Z 000000014003d098 f   CProfile.obj
 0001:0003c55c       ??1Section@CProfile@@QEAA@XZ 000000014003d55c f i CProfile.obj
 0001:0003c57c       ??1?$map@V?$basic_string@_WU?$char_traits@_W@std@@V?$allocator@_W@2@@std@@V12@U?$less@V?$basic_string@_WU?$char_traits@_W@std@@V?$allocator@_W@2@@std@@@2@V?$allocator@U?$pair@$$CBV?$basic_string@_WU?$char_traits@_W@std@@V?$allocator@_W@2@@std@@V12@@std@@@2@@std@@QEAA@XZ 000000014003d57c f i CProfile.obj
 0001:0003c584       ?ReadProfile@CProfile@@QEAA_NPEB_W@Z 000000014003d584 f   CProfile.obj
 0001:0003c65c       ?ReadProfileRes@CProfile@@QEAA_NPEB_W0PEAV?$vector@V?$basic_string@_WU?$char_traits@_W@std@@V?$allocator@_W@2@@std@@V?$allocator@V?$basic_string@_WU?$char_traits@_W@std@@V?$allocator@_W@2@@std@@@2@@std@@@Z 000000014003d65c f   CProfile.obj
 0001:0003c8e4       ?WriteProfile@CProfile@@QEAA_NPEB_W0@Z 000000014003d8e4 f   CProfile.obj
 0001:0003ce80       ?_WriteFile@CProfile@@IEAA_NAEBV?$basic_string@_WU?$char_traits@_W@std@@V?$allocator@_W@2@@std@@AEBV?$vector@V?$basic_string@_WU?$char_traits@_W@std@@V?$allocator@_W@2@@std@@V?$allocator@V?$basic_string@_WU?$char_traits@_W@std@@V?$allocator@_W@2@@std@@@2@@3@@Z 000000014003de80 f   CProfile.obj
 0001:0003cf70       ?GetProfileData@CProfile@@QEBA_NV?$basic_string_view@_WU?$char_traits@_W@std@@@std@@0AEAV?$basic_string@_WU?$char_traits@_W@std@@V?$allocator@_W@2@@3@@Z 000000014003df70 f   CProfile.obj
 0001:0003d09c       ?SetProfileData@CProfile@@QEAAXV?$basic_string_view@_WU?$char_traits@_W@std@@@std@@00@Z 000000014003e09c f   CProfile.obj
 0001:0003d2ac       ??A?$map@V?$basic_string@_WU?$char_traits@_W@std@@V?$allocator@_W@2@@std@@V12@U?$less@V?$basic_string@_WU?$char_traits@_W@std@@V?$allocator@_W@2@@std@@@2@V?$allocator@U?$pair@$$CBV?$basic_string@_WU?$char_traits@_W@std@@V?$allocator@_W@2@@std@@V12@@std@@@2@@std@@QEAAAEAV?$basic_string@_WU?$char_traits@_W@std@@V?$allocator@_W@2@@1@$$QEAV21@@Z 000000014003e2ac f i CProfile.obj
 0001:0003d3e8       ??1?$_Tree@V?$_Tmap_traits@V?$basic_string@_WU?$char_traits@_W@std@@V?$allocator@_W@2@@std@@V12@U?$less@V?$basic_string@_WU?$char_traits@_W@std@@V?$allocator@_W@2@@std@@@2@V?$allocator@U?$pair@$$CBV?$basic_string@_WU?$char_traits@_W@std@@V?$allocator@_W@2@@std@@V12@@std@@@2@$0A@@std@@@std@@QEAA@XZ 000000014003e3e8 f i CProfile.obj
 0001:0003d468       ??$?H_WU?$char_traits@_W@std@@V?$allocator@_W@1@@std@@YA?AV?$basic_string@_WU?$char_traits@_W@std@@V?$allocator@_W@2@@0@$$QEAV10@AEBV10@@Z 000000014003e468 f i CProfile.obj
 0001:0003d4e0       ??$_Destroy_range@V?$allocator@USection@CProfile@@@std@@@std@@YAXPEAUSection@CProfile@@QEAU12@AEAV?$allocator@USection@CProfile@@@0@@Z 000000014003e4e0 f i CProfile.obj
 0001:0003d51c       ??1?$_Alloc_construct_ptr@V?$allocator@U?$_Tree_node@U?$pair@$$CBV?$basic_string@_WU?$char_traits@_W@std@@V?$allocator@_W@2@@std@@V12@@std@@PEAX@std@@@std@@@std@@QEAA@XZ 000000014003e51c f i CProfile.obj
 0001:0003d538       ??$_Emplace_reallocate@USection@CProfile@@@?$vector@USection@CProfile@@V?$allocator@USection@CProfile@@@std@@@std@@AEAAPEAUSection@CProfile@@QEAU23@$$QEAU23@@Z 000000014003e538 f i CProfile.obj
 0001:0003d734       ??$_Emplace_reallocate@AEBUSection@CProfile@@@?$vector@USection@CProfile@@V?$allocator@USection@CProfile@@@std@@@std@@AEAAPEAUSection@CProfile@@QEAU23@AEBU23@@Z 000000014003e734 f i CProfile.obj
 0001:0003d930       ??$_Erase_tree@V?$allocator@U?$_Tree_node@U?$pair@$$CBV?$basic_string@_WU?$char_traits@_W@std@@V?$allocator@_W@2@@std@@V12@@std@@PEAX@std@@@std@@@?$_Tree_val@U?$_Tree_simple_types@U?$pair@$$CBV?$basic_string@_WU?$char_traits@_W@std@@V?$allocator@_W@2@@std@@V12@@std@@@std@@@std@@QEAAXAEAV?$allocator@U?$_Tree_node@U?$pair@$$CBV?$basic_string@_WU?$char_traits@_W@std@@V?$allocator@_W@2@@std@@V12@@std@@PEAX@std@@@1@PEAU?$_Tree_node@U?$pair@$$CBV?$basic_string@_WU?$char_traits@_W@std@@V?$allocator@_W@2@@std@@V12@@std@@PEAX@1@@Z 000000014003e930 f i CProfile.obj
 0001:0003d930       ??$_Erase_tree_and_orphan@V?$allocator@U?$_Tree_node@U?$pair@$$CBV?$basic_string@_WU?$char_traits@_W@std@@V?$allocator@_W@2@@std@@V12@@std@@PEAX@std@@@std@@@?$_Tree_val@U?$_Tree_simple_types@U?$pair@$$CBV?$basic_string@_WU?$char_traits@_W@std@@V?$allocator@_W@2@@std@@V12@@std@@@std@@@std@@QEAAXAEAV?$allocator@U?$_Tree_node@U?$pair@$$CBV?$basic_string@_WU?$char_traits@_W@std@@V?$allocator@_W@2@@std@@V12@@std@@PEAX@std@@@1@PEAU?$_Tree_node@U?$pair@$$CBV?$basic_string@_WU?$char_traits@_W@std@@V?$allocator@_W@2@@std@@V12@@std@@PEAX@1@@Z 000000014003e930 f i CProfile.obj
 0001:0003d990       ?_Change_array@?$vector@USection@CProfile@@V?$allocator@USection@CProfile@@@std@@@std@@AEAAXQEAUSection@CProfile@@_K1@Z 000000014003e990 f i CProfile.obj
 0001:0003da74       ?deallocate@?$allocator@USection@CProfile@@@std@@QEAAXQEAUSection@CProfile@@_K@Z 000000014003ea74 f i CProfile.obj
 0001:0003dab8       ??$construct@USection@CProfile@@U12@@?$_Default_allocator_traits@V?$allocator@USection@CProfile@@@std@@@std@@SAXAEAV?$allocator@USection@CProfile@@@1@QEAUSection@CProfile@@$$QEAU34@@Z 000000014003eab8 f i CProfile.obj
 0001:0003db58       ??$_Uninitialized_move@PEAUSection@CProfile@@V?$allocator@USection@CProfile@@@std@@@std@@YAPEAUSection@CProfile@@QEAU12@0PEAU12@AEAV?$allocator@USection@CProfile@@@0@@Z 000000014003eb58 f i CProfile.obj
 0001:0003dbd8       ??$?M_WU?$char_traits@_W@std@@V?$allocator@_W@1@@std@@YA_NAEBV?$basic_string@_WU?$char_traits@_W@std@@V?$allocator@_W@2@@0@0@Z 000000014003ebd8 f i CProfile.obj
 0001:0003dc44       ??0Section@CProfile@@QEAA@AEBU01@@Z 000000014003ec44 f i CProfile.obj
 0001:0003dd50       ??1?$_Uninitialized_backout_al@V?$allocator@USection@CProfile@@@std@@@std@@QEAA@XZ 000000014003ed50 f i CProfile.obj
 0001:0003dd88       ??1?$_Tree_head_scoped_ptr@V?$allocator@U?$_Tree_node@U?$pair@$$CBV?$basic_string@_WU?$char_traits@_W@std@@V?$allocator@_W@2@@std@@V12@@std@@PEAX@std@@@std@@V?$_Tree_val@U?$_Tree_simple_types@U?$pair@$$CBV?$basic_string@_WU?$char_traits@_W@std@@V?$allocator@_W@2@@std@@V12@@std@@@std@@@2@@std@@QEAA@XZ 000000014003ed88 f i CProfile.obj
 0001:0003de0c       ??$_Copy_nodes@$0A@@?$_Tree@V?$_Tmap_traits@V?$basic_string@_WU?$char_traits@_W@std@@V?$allocator@_W@2@@std@@V12@U?$less@V?$basic_string@_WU?$char_traits@_W@std@@V?$allocator@_W@2@@std@@@2@V?$allocator@U?$pair@$$CBV?$basic_string@_WU?$char_traits@_W@std@@V?$allocator@_W@2@@std@@V12@@std@@@2@$0A@@std@@@std@@IEAAPEAU?$_Tree_node@U?$pair@$$CBV?$basic_string@_WU?$char_traits@_W@std@@V?$allocator@_W@2@@std@@V12@@std@@PEAX@1@PEAU21@0@Z 000000014003ee0c f i CProfile.obj
 0001:0003df24       ?insert@?$basic_string@_WU?$char_traits@_W@std@@V?$allocator@_W@2@@std@@QEAAAEAV12@_KQEB_W0@Z 000000014003ef24 f i CProfile.obj
 0001:0003e17c       ?_Xran@?$_String_val@U?$_Simple_types@_W@std@@@std@@SAXXZ 000000014003f17c f i CProfile.obj
 0001:0003e190       ?Create@CPropertyManager@@QEAAXPEAUHWND__@@PEAVCImageListMgr@@PEAVCMenuDrawer@@@Z 000000014003f190 f   CPropertyManager.obj
 0001:0003e1a8       ?OpenPropertySheet@CPropertyManager@@QEAA_NPEAUHWND__@@H_N@Z 000000014003f1a8 f   CPropertyManager.obj
 0001:0003e370       ?OpenPropertySheetTypes@CPropertyManager@@QEAA_NPEAUHWND__@@HVCTypeConfig@@@Z 000000014003f370 f   CPropertyManager.obj
 0001:0003e540       ??1?$unique_ptr@USTypeConfig@@U?$default_delete@USTypeConfig@@@std@@@std@@QEAA@XZ 000000014003f540 f i CPropertyManager.obj
 0001:0003e55c       ?what@CAppExitException@@UEBAPEBDXZ 000000014003f55c f i CReadManager.obj
 0001:0003e564       ?ReadFile_To_CDocLineMgr@CReadManager@@QEAA?AW4EConvertResult@@PEAVCDocLineMgr@@AEBUSLoadInfo@@PEAUSFileInfo@@@Z 000000014003f564 f   CReadManager.obj
 0001:0003e880       ??0CAppExitException@@QEAA@XZ 000000014003f880 f i CReadManager.obj
 0001:0003e898       ??0CAppExitException@@QEAA@AEBV0@@Z 000000014003f898 f i CReadManager.obj
 0001:0003e8d4       ??0exception@std@@QEAA@XZ  000000014003f8d4 f i CReadManager.obj
 0001:0003e8ec       ??0CRegexKeyword@@QEAA@PEB_W@Z 000000014003f8ec f   CRegexKeyword.obj
 0001:0003e94c       ??_ECRegexKeyword@@UEAAPEAXI@Z 000000014003f94c f i * CIL library *:* CIL module *
 0001:0003e94c       ??_GCRegexKeyword@@UEAAPEAXI@Z 000000014003f94c f i CRegexKeyword.obj
 0001:0003e980       ??1CRegexKeyword@@UEAA@XZ  000000014003f980 f   CRegexKeyword.obj
 0001:0003e9f8       ?RegexKeyInit@CRegexKeyword@@IEAAHXZ 000000014003f9f8 f   CRegexKeyword.obj
 0001:0003ea38       ?RegexKeySetTypes@CRegexKeyword@@QEAAHPEBUSTypeConfig@@@Z 000000014003fa38 f   CRegexKeyword.obj
 0001:0003eaa4       ?RegexKeyCompile@CRegexKeyword@@IEAAHXZ 000000014003faa4 f   CRegexKeyword.obj
 0001:0003ecdc       ?RegexKeyLineStart@CRegexKeyword@@QEAAHXZ 000000014003fcdc f   CRegexKeyword.obj
 0001:0003ed40       ?RegexIsKeyword@CRegexKeyword@@QEAAHAEBVCStringRef@@HPEAH1@Z 000000014003fd40 f   CRegexKeyword.obj
 0001:0003eef8       ?RegexKeyCheckSyntax@CRegexKeyword@@SAHPEB_W@Z 000000014003fef8 f   CRegexKeyword.obj
 0001:0003efcc       ?GetNewMagicNumber@CRegexKeyword@@SAKXZ 000000014003ffcc f   CRegexKeyword.obj
 0001:0003efd4       ??0CSaveAgent@@QEAA@XZ     000000014003ffd4 f   CSaveAgent.obj
 0001:0003f01c       ??_ECSaveAgent@@UEAAPEAXI@Z 000000014004001c f i * CIL library *:* CIL module *
 0001:0003f01c       ??_GCSaveAgent@@UEAAPEAXI@Z 000000014004001c f i CSaveAgent.obj
 0001:0003f050       ?OnCheckSave@CSaveAgent@@UEAA?AW4ECallbackResult@@PEAUSSaveInfo@@@Z 0000000140040050 f   CSaveAgent.obj
 0001:0003f1dc       ?OnBeforeSave@CSaveAgent@@UEAAXAEBUSSaveInfo@@@Z 00000001400401dc f   CSaveAgent.obj
 0001:0003f200       ?OnSave@CSaveAgent@@UEAAXAEBUSSaveInfo@@@Z 0000000140040200 f   CSaveAgent.obj
 0001:0003f2ec       ?OnAfterSave@CSaveAgent@@UEAAXAEBUSSaveInfo@@@Z 00000001400402ec f   CSaveAgent.obj
 0001:0003f368       ??0CSearchStringPattern@@QEAA@XZ 0000000140040368 f   CSearchAgent.obj
 0001:0003f388       ??1CSearchStringPattern@@QEAA@XZ 0000000140040388 f   CSearchAgent.obj
 0001:0003f390       ?Reset@CSearchStringPattern@@QEAAXXZ 0000000140040390 f   CSearchAgent.obj
 0001:0003f3d0       ?SetPattern@CSearchStringPattern@@QEAA_NPEAUHWND__@@PEB_WH1AEBUSSearchOption@@PEAVCBregexp@@_N@Z 00000001400403d0 f   CSearchAgent.obj
 0001:0003f574       ?SearchString@CSearchAgent@@SAPEB_WPEB_WHHAEBVCSearchStringPattern@@@Z 0000000140040574 f   CSearchAgent.obj
 0001:0003f6e0       ?CreateWordList@CSearchAgent@@SAXAEAV?$vector@U?$pair@PEB_WH@std@@V?$allocator@U?$pair@PEB_WH@std@@@2@@std@@PEB_WH@Z 00000001400406e0 f   CSearchAgent.obj
 0001:0003f7f8       ?SearchStringWord@CSearchAgent@@SAPEB_WPEB_WHHAEBV?$vector@U?$pair@PEB_WH@std@@V?$allocator@U?$pair@PEB_WH@std@@@2@@std@@_NPEAH@Z 00000001400407f8 f   CSearchAgent.obj
 0001:0003f968       ?WhereCurrentWord@CSearchAgent@@QEAA_NHHPEAH0PEAVCNativeW@@1@Z 0000000140040968 f   CSearchAgent.obj
 0001:0003f9ec       ?PrevOrNextWord@CSearchAgent@@QEAA_NHHPEAHHH@Z 00000001400409ec f   CSearchAgent.obj
 0001:0003faac       ?SearchWord@CSearchAgent@@QEAAHV?$CStrictPoint@USLogicPoint@@HH@@W4ESearchDirection@@PEAV?$CRangeBase@V?$CStrictPoint@USLogicPoint@@HH@@@@AEBVCSearchStringPattern@@@Z 0000000140040aac f   CSearchAgent.obj
 0001:00040108       ?ReplaceData@CSearchAgent@@QEAAXPEAUDocLineReplaceArg@@_N@Z 0000000140041108 f   CSearchAgent.obj
 0001:000413fc       ?_Reallocate_exactly@?$vector@VCLineData@@V?$allocator@VCLineData@@@std@@@std@@AEAAX_K@Z 00000001400423fc f i CSearchAgent.obj
 0001:000414c4       ??$_Emplace_reallocate@VCLineData@@@?$vector@VCLineData@@V?$allocator@VCLineData@@@std@@@std@@AEAAPEAVCLineData@@QEAV2@$$QEAV2@@Z 00000001400424c4 f i CSearchAgent.obj
 0001:00041688       ??0CLoadStrBuffer@CLoadString@@QEAA@XZ 0000000140042688 f i CSelectLang.obj
 0001:00041688       ??0CLoadString@@QEAA@XZ    0000000140042688 f i CDlgCtrlCode.obj
 0001:000416a0       ??1CLoadStrBuffer@CLoadString@@QEAA@XZ 00000001400426a0 f i CSelectLang.obj
 0001:000416a0       ??1CLoadString@@QEAA@XZ    00000001400426a0 f i CDlgCtrlCode.obj
 0001:000416c4       ??1CSelectLang@@QEAA@XZ    00000001400426c4 f   CSelectLang.obj
 0001:00041734       ?getLangRsrcInstance@CSelectLang@@SAPEAUHINSTANCE__@@XZ 0000000140042734 f   CSelectLang.obj
 0001:00041754       ?getDefaultLangString@CSelectLang@@SAPEB_WXZ 0000000140042754 f   CSelectLang.obj
 0001:00041764       ?getDefaultLangId@CSelectLang@@SAGXZ 0000000140042764 f   CSelectLang.obj
 0001:00041780       ?InitializeLanguageEnvironment@CSelectLang@@SAPEAUHINSTANCE__@@XZ 0000000140042780 f   CSelectLang.obj
 0001:00041a4c       ?LoadLangRsrcLibrary@CSelectLang@@SAPEAUHINSTANCE__@@AEAUSSelLangInfo@1@@Z 0000000140042a4c f   CSelectLang.obj
 0001:00041b2c       ?LoadStringSt@CLoadString@@SAPEB_WI@Z 0000000140042b2c f   CSelectLang.obj
 0001:00041b78       ?LoadStringW@CLoadString@@QEAAPEB_WI@Z 0000000140042b78 f   CSelectLang.obj
 0001:00041b90       ?LoadStringW@CLoadStrBuffer@CLoadString@@QEAAHI@Z 0000000140042b90 f   CSelectLang.obj
 0001:00041ca0       ?ChangeLang@CSelectLang@@SAXPEA_W@Z 0000000140042ca0 f   CSelectLang.obj
 0001:00041d30       ?ChangeLang@CSelectLang@@KAPEAUHINSTANCE__@@I@Z 0000000140042d30 f   CSelectLang.obj
 0001:00041e64       ?_Xrange@?$vector@PEAUSSelLangInfo@CSelectLang@@V?$allocator@PEAUSSelLangInfo@CSelectLang@@@std@@@std@@CAXXZ 0000000140042e64 f i CSelectLang.obj
 0001:00041e78       ??$_Emplace_reallocate@AEBQEAUSSelLangInfo@CSelectLang@@@?$vector@PEAUSSelLangInfo@CSelectLang@@V?$allocator@PEAUSSelLangInfo@CSelectLang@@@std@@@std@@AEAAPEAPEAUSSelLangInfo@CSelectLang@@QEAPEAU23@AEBQEAU23@@Z 0000000140042e78 f i CSelectLang.obj
 0001:00042008       ??0CSortedTagJumpList@@QEAA@H@Z 0000000140043008 f   CSortedTagJumpList.obj
 0001:000420d4       ??1CSortedTagJumpList@@QEAA@XZ 00000001400430d4 f   CSortedTagJumpList.obj
 0001:000420f0       ?Free@CSortedTagJumpList@@AEAAXPEAUtagjump_info_t@1@@Z 00000001400430f0 f   CSortedTagJumpList.obj
 0001:00042124       ?Empty@CSortedTagJumpList@@QEAAXXZ 0000000140043124 f   CSortedTagJumpList.obj
 0001:000421d0       ?AddBaseDir@CSortedTagJumpList@@QEAAHPEB_W@Z 00000001400431d0 f   CSortedTagJumpList.obj
 0001:00042230       ?AddParamA@CSortedTagJumpList@@QEAAHPEBD0HD0HH@Z 0000000140043230 f   CSortedTagJumpList.obj
 0001:000423b4       ?GetParam@CSortedTagJumpList@@QEAAHHPEA_W0PEAH0010@Z 00000001400433b4 f   CSortedTagJumpList.obj
 0001:00042490       ?GetPtr@CSortedTagJumpList@@QEAAPEAUtagjump_info_t@1@H@Z 0000000140043490 f   CSortedTagJumpList.obj
 0001:000424ac       ?WriteFile_From_CDocLineMgr@CWriteManager@@QEAA?AW4EConvertResult@@AEBVCDocLineMgr@@AEBUSSaveInfo@@@Z 00000001400434ac f   CWriteManager.obj
 0001:0004290c       ?MyDialogProc@@YA_JPEAUHWND__@@I_K_J@Z 000000014004390c f   CDialog.obj
 0001:00042998       ??0CDialog@@QEAA@_N0@Z     0000000140043998 f   CDialog.obj
 0001:000429e0       ??1CDialog@@UEAA@XZ        00000001400439e0 f   CDialog.obj
 0001:000429f4       ?DoModal@CDialog@@QEAA_JPEAUHINSTANCE__@@PEAUHWND__@@H_J@Z 00000001400439f4 f   CDialog.obj
 0001:00042a50       ?DoModeless@CDialog@@QEAAPEAUHWND__@@PEAUHINSTANCE__@@PEAU2@H_JH@Z 0000000140043a50 f   CDialog.obj
 0001:00042ac4       ?DoModeless@CDialog@@QEAAPEAUHWND__@@PEAUHINSTANCE__@@PEAU2@PEBUDLGTEMPLATE@@_JH@Z 0000000140043ac4 f   CDialog.obj
 0001:00042b24       ?CloseDialog@CDialog@@QEAAX_J@Z 0000000140043b24 f   CDialog.obj
 0001:00042b58       ?OnInitDialog@CDialog@@UEAAHPEAUHWND__@@_K_J@Z 0000000140043b58 f   CDialog.obj
 0001:00042bb0       ?SetDialogPosSize@CDialog@@UEAAXXZ 0000000140043bb0 f   CDialog.obj
 0001:00042d84       ?OnDestroy@CDialog@@UEAAHXZ 0000000140043d84 f   CDialog.obj
 0001:00042e28       ?OnBnClicked@CDialog@@UEAAHH@Z 0000000140043e28 f   CDialog.obj
 0001:00042e54       ?OnSize@CDialog@@QEAAHXZ   0000000140043e54 f   CDialog.obj
 0001:00042e60       ?OnSize@CDialog@@UEAAH_K_J@Z 0000000140043e60 f   CDialog.obj
 0001:00042f60       ?CreateSizeBox@CDialog@@IEAAXXZ 0000000140043f60 f   CDialog.obj
 0001:00042fcc       ?DispatchEvent@CDialog@@UEAA_JPEAUHWND__@@I_K_J@Z 0000000140043fcc f   CDialog.obj
 0001:00043164       ?OnCommand@CDialog@@IEAAH_K_J@Z 0000000140044164 f   CDialog.obj
 0001:0004338c       ?OnPopupHelp@CDialog@@UEAAH_K_J@Z 000000014004438c f   CDialog.obj
 0001:000433bc       ?OnContextMenu@CDialog@@UEAAH_K_J@Z 00000001400443bc f   CDialog.obj
 0001:000433ec       ?GetHelpIdTable@CDialog@@UEAAPEAXXZ 00000001400443ec f   CDialog.obj
 0001:000433f4       ?OnCbnSelEndOk@CDialog@@UEAAHPEAUHWND__@@H@Z 00000001400443f4 f   CDialog.obj
 0001:000434a0       ?OnCbnDropDown@CDialog@@UEAAHPEAUHWND__@@H@Z 00000001400444a0 f   CDialog.obj
 0001:000434ac       ?OnCbnDropDown@CDialog@@SAHPEAUHWND__@@_N@Z 00000001400444ac f   CDialog.obj
 0001:0004365c       ?DirectoryUp@CDialog@@SA_NPEA_W@Z 000000014004465c f   CDialog.obj
 0001:000436ac       ?SetMainFont@CDialog@@IEAAPEAUHFONT__@@PEAUHWND__@@@Z 00000001400446ac f   CDialog.obj
 0001:000437c8       ?ResizeItem@CDialog@@QEAAXPEAUHWND__@@AEBUtagPOINT@@1AEBUtagRECT@@W4EAnchorStyle@@_N@Z 00000001400447c8 f   CDialog.obj
 0001:000438a4       ?GetItemClientRect@CDialog@@QEAAXHAEAUtagRECT@@@Z 00000001400448a4 f   CDialog.obj
 0001:00043bf4       ?SubEditProc@@YA_JPEAUHWND__@@I_K_J11@Z 0000000140044bf4 f   CDialog.obj
 0001:00043d8c       ?SetComboBoxDeleter@CDialog@@SAXPEAUHWND__@@PEAVCRecent@@@Z 0000000140044d8c f   CDialog.obj
 0001:00043e30       ?ScaleX@CDPI@@SAHH@Z       0000000140044e30 f i CDlgAbout.obj
 0001:00043eac       ?DispatchEvent@CDlgAbout@@UEAA_JPEAUHWND__@@I_K_J@Z 0000000140044eac f   CDlgAbout.obj
 0001:00043f28       ?DoModal@CDlgAbout@@QEAAHPEAUHINSTANCE__@@PEAUHWND__@@@Z 0000000140044f28 f   CDlgAbout.obj
 0001:00043f44       ?OnInitDialog@CDlgAbout@@MEAAHPEAUHWND__@@_K_J@Z 0000000140044f44 f   CDlgAbout.obj
 0001:00044318       ?OnBnClicked@CDlgAbout@@MEAAHH@Z 0000000140045318 f   CDlgAbout.obj
 0001:0004438c       ?OnStnClicked@CDlgAbout@@MEAAHH@Z 000000014004538c f   CDlgAbout.obj
 0001:00044484       ?GetHelpIdTable@CDlgAbout@@MEAAPEAXXZ 0000000140045484 f   CDlgAbout.obj
 0001:0004448c       ?SetSubclassWindow@CUrlWnd@@QEAAHPEAUHWND__@@@Z 000000014004548c f   CDlgAbout.obj
 0001:000445e0       ?UrlWndProc@CUrlWnd@@KA_JPEAUHWND__@@I_K_J@Z 00000001400455e0 f   CDlgAbout.obj
 0001:00044a10       ?OnSetText@CUrlWnd@@IEBA_NPEB_W_K@Z 0000000140045a10 f   CDlgAbout.obj
 0001:00044b24       ??0CDlgCancel@@QEAA@XZ     0000000140045b24 f   CDlgCancel.obj
 0001:00044b4c       ??_ECDlgCancel@@UEAAPEAXI@Z 0000000140045b4c f i * CIL library *:* CIL module *
 0001:00044b4c       ??_ECDlgCtrlCode@@UEAAPEAXI@Z 0000000140045b4c f i * CIL library *:* CIL module *
 0001:00044b4c       ??_ECDlgTypeAscertain@@UEAAPEAXI@Z 0000000140045b4c f i * CIL library *:* CIL module *
 0001:00044b4c       ??_ECLockCancel@@UEAAPEAXI@Z 0000000140045b4c f i * CIL library *:* CIL module *
 0001:00044b4c       ??_GCDlgCancel@@UEAAPEAXI@Z 0000000140045b4c f i CDlgCancel.obj
 0001:00044b4c       ??_GCDlgCtrlCode@@UEAAPEAXI@Z 0000000140045b4c f i CDlgCtrlCode.obj
 0001:00044b4c       ??_GCDlgTypeAscertain@@UEAAPEAXI@Z 0000000140045b4c f i CDlgTypeAscertain.obj
 0001:00044b4c       ??_GCLockCancel@@UEAAPEAXI@Z 0000000140045b4c f i DLLSHAREDATA.obj
 0001:00044b80       ?DispatchEvent@CDlgCancel@@UEAA_JPEAUHWND__@@I_K_J@Z 0000000140045b80 f   CDlgCancel.obj
 0001:00044be0       ?DeleteAsync@CDlgCancel@@QEAAXXZ 0000000140045be0 f   CDlgCancel.obj
 0001:00044bfc       ?DoModeless@CDlgCancel@@QEAAPEAUHWND__@@PEAUHINSTANCE__@@PEAU2@H@Z 0000000140045bfc f   CDlgCancel.obj
 0001:00044c1c       ?OnInitDialog@CDlgCancel@@MEAAHPEAUHWND__@@_K_J@Z 0000000140045c1c f   CDlgCancel.obj
 0001:00044cd8       ?OnBnClicked@CDlgCancel@@MEAAHH@Z 0000000140045cd8 f   CDlgCancel.obj
 0001:00044cec       ?GetHelpIdTable@CDlgCancel@@MEAAPEAXXZ 0000000140045cec f   CDlgCancel.obj
 0001:00044cf4       ??0CDlgCompare@@QEAA@XZ    0000000140045cf4 f   CDlgCompare.obj
 0001:00044d2c       ??_ECDlgCompare@@UEAAPEAXI@Z 0000000140045d2c f i * CIL library *:* CIL module *
 0001:00044d2c       ??_GCDlgCompare@@UEAAPEAXI@Z 0000000140045d2c f i CDlgCompare.obj
 0001:00044d60       ?DoModal@CDlgCompare@@QEAAHPEAUHINSTANCE__@@PEAUHWND__@@_JPEB_WPEAPEAU3@@Z 0000000140045d60 f   CDlgCompare.obj
 0001:00044d84       ?OnBnClicked@CDlgCompare@@MEAAHH@Z 0000000140045d84 f   CDlgCompare.obj
 0001:00044df4       ?SetData@CDlgCompare@@MEAAXXZ 0000000140045df4 f   CDlgCompare.obj
 0001:00045188       ?GetData@CDlgCompare@@MEAAHXZ 0000000140046188 f   CDlgCompare.obj
 0001:00045204       ?GetHelpIdTable@CDlgCompare@@MEAAPEAXXZ 0000000140046204 f   CDlgCompare.obj
 0001:0004520c       ?DispatchEvent@CDlgCompare@@MEAA_JPEAUHWND__@@I_K_J@Z 000000014004620c f   CDlgCompare.obj
 0001:00045254       ?OnInitDialog@CDlgCompare@@MEAAHPEAUHWND__@@_K_J@Z 0000000140046254 f   CDlgCompare.obj
 0001:00045364       ?OnDestroy@CDlgCompare@@MEAAHXZ 0000000140046364 f   CDlgCompare.obj
 0001:000453b0       ?OnSize@CDlgCompare@@MEAAH_K_J@Z 00000001400463b0 f   CDlgCompare.obj
 0001:00045490       ?OnMinMaxInfo@CDlgCompare@@IEAAH_J@Z 0000000140046490 f   CDlgCompare.obj
 0001:000454c0       ??0CDlgCtrlCode@@QEAA@XZ   00000001400464c0 f   CDlgCtrlCode.obj
 0001:000454e4       ?DoModal@CDlgCtrlCode@@QEAAHPEAUHINSTANCE__@@PEAUHWND__@@_J@Z 00000001400464e4 f   CDlgCtrlCode.obj
 0001:00045500       ?SetData@CDlgCtrlCode@@EEAAXXZ 0000000140046500 f   CDlgCtrlCode.obj
 0001:00045744       ?GetData@CDlgCtrlCode@@EEAAHXZ 0000000140046744 f   CDlgCtrlCode.obj
 0001:000457a0       ?OnInitDialog@CDlgCtrlCode@@EEAAHPEAUHWND__@@_K_J@Z 00000001400467a0 f   CDlgCtrlCode.obj
 0001:00045958       ?OnBnClicked@CDlgCtrlCode@@EEAAHH@Z 0000000140046958 f   CDlgCtrlCode.obj
 0001:000459c8       ?OnNotify@CDlgCtrlCode@@EEAAHPEAUtagNMHDR@@@Z 00000001400469c8 f   CDlgCtrlCode.obj
 0001:00045aec       ?GetHelpIdTable@CDlgCtrlCode@@EEAAPEAXXZ 0000000140046aec f   CDlgCtrlCode.obj
 0001:00045af4       ??0CDlgDiff@@QEAA@XZ       0000000140046af4 f   CDlgDiff.obj
 0001:00045b4c       ??_ECDlgDiff@@UEAAPEAXI@Z  0000000140046b4c f i * CIL library *:* CIL module *
 0001:00045b4c       ??_GCDlgDiff@@UEAAPEAXI@Z  0000000140046b4c f i CDlgDiff.obj
 0001:00045b80       ?DoModal@CDlgDiff@@QEAAHPEAUHINSTANCE__@@PEAUHWND__@@_JPEB_W@Z 0000000140046b80 f   CDlgDiff.obj
 0001:00045be0       ?OnBnClicked@CDlgDiff@@MEAAHH@Z 0000000140046be0 f   CDlgDiff.obj
 0001:00045f94       ?SetData@CDlgDiff@@MEAAXXZ 0000000140046f94 f   CDlgDiff.obj
 0001:00046520       ?GetData@CDlgDiff@@MEAAHXZ 0000000140047520 f   CDlgDiff.obj
 0001:0004676c       ?OnLbnSelChange@CDlgDiff@@MEAAHPEAUHWND__@@H@Z 000000014004776c f   CDlgDiff.obj
 0001:000467cc       ?OnEnChange@CDlgDiff@@MEAAHPEAUHWND__@@H@Z 00000001400477cc f   CDlgDiff.obj
 0001:0004687c       ?GetHelpIdTable@CDlgDiff@@MEAAPEAXXZ 000000014004787c f   CDlgDiff.obj
 0001:00046884       ?DispatchEvent@CDlgDiff@@MEAA_JPEAUHWND__@@I_K_J@Z 0000000140047884 f   CDlgDiff.obj
 0001:000468cc       ?OnInitDialog@CDlgDiff@@MEAAHPEAUHWND__@@_K_J@Z 00000001400478cc f   CDlgDiff.obj
 0001:00046a8c       ?OnDestroy@CDlgDiff@@MEAAHXZ 0000000140047a8c f   CDlgDiff.obj
 0001:00046ad8       ?OnSize@CDlgDiff@@MEAAH_K_J@Z 0000000140047ad8 f   CDlgDiff.obj
 0001:00046bb4       ?OnMinMaxInfo@CDlgDiff@@IEAAH_J@Z 0000000140047bb4 f   CDlgDiff.obj
 0001:00046bd8       ?OnLbnDblclk@CDlgDiff@@MEAAHH@Z 0000000140047bd8 f   CDlgDiff.obj
 0001:00046c24       ??0CDlgExec@@QEAA@XZ       0000000140047c24 f   CDlgExec.obj
 0001:00046c7c       ??_ECDlgExec@@UEAAPEAXI@Z  0000000140047c7c f i * CIL library *:* CIL module *
 0001:00046c7c       ??_GCDlgExec@@UEAAPEAXI@Z  0000000140047c7c f i CDlgExec.obj
 0001:00046cf4       ?DoModal@CDlgExec@@QEAAHPEAUHINSTANCE__@@PEAUHWND__@@_J@Z 0000000140047cf4 f   CDlgExec.obj
 0001:00046db0       ?OnInitDialog@CDlgExec@@MEAAHPEAUHWND__@@_K_J@Z 0000000140047db0 f   CDlgExec.obj
 0001:00046ef8       ?SetData@CDlgExec@@MEAAXXZ 0000000140047ef8 f   CDlgExec.obj
 0001:000472c4       ?GetData@CDlgExec@@MEAAHXZ 00000001400482c4 f   CDlgExec.obj
 0001:00047420       ?OnBnClicked@CDlgExec@@MEAAHH@Z 0000000140048420 f   CDlgExec.obj
 0001:000477e8       ?GetHelpIdTable@CDlgExec@@MEAAPEAXXZ 00000001400487e8 f   CDlgExec.obj
 0001:000477f0       ??0FavoriteInfo@CDlgFavorite@@QEAA@XZ 00000001400487f0 f i CDlgFavorite.obj
 0001:00047820       ??0CDlgFavorite@@QEAA@XZ   0000000140048820 f   CDlgFavorite.obj
 0001:00047c68       ??_ECDlgFavorite@@UEAAPEAXI@Z 0000000140048c68 f i * CIL library *:* CIL module *
 0001:00047c68       ??_GCDlgFavorite@@UEAAPEAXI@Z 0000000140048c68 f i CDlgFavorite.obj
 0001:00047c9c       ??1CDlgFavorite@@UEAA@XZ   0000000140048c9c f   CDlgFavorite.obj
 0001:00047dbc       ?DoModal@CDlgFavorite@@QEAAHPEAUHINSTANCE__@@PEAUHWND__@@_J@Z 0000000140048dbc f   CDlgFavorite.obj
 0001:00047dd8       ?SetData@CDlgFavorite@@MEAAXXZ 0000000140048dd8 f   CDlgFavorite.obj
 0001:00047e40       ?SetDataOne@CDlgFavorite@@IEAAXHH@Z 0000000140048e40 f   CDlgFavorite.obj
 0001:000480d8       ?GetData@CDlgFavorite@@MEAAHXZ 00000001400490d8 f   CDlgFavorite.obj
 0001:00048154       ?OnInitDialog@CDlgFavorite@@MEAAHPEAUHWND__@@_K_J@Z 0000000140049154 f   CDlgFavorite.obj
 0001:00048608       ?OnDestroy@CDlgFavorite@@MEAAHXZ 0000000140049608 f   CDlgFavorite.obj
 0001:00048654       ?OnBnClicked@CDlgFavorite@@MEAAHH@Z 0000000140049654 f   CDlgFavorite.obj
 0001:0004899c       ?OnNotify@CDlgFavorite@@MEAAHPEAUtagNMHDR@@@Z 000000014004999c f   CDlgFavorite.obj
 0001:00048b58       ?TabSelectChange@CDlgFavorite@@IEAAX_N@Z 0000000140049b58 f   CDlgFavorite.obj
 0001:00048c34       ?OnActivate@CDlgFavorite@@MEAAH_K_J@Z 0000000140049c34 f   CDlgFavorite.obj
 0001:00048c78       ?GetHelpIdTable@CDlgFavorite@@MEAAPEAXXZ 0000000140049c78 f   CDlgFavorite.obj
 0001:00048c80       ?RefreshList@CDlgFavorite@@IEAA_NXZ 0000000140049c80 f   CDlgFavorite.obj
 0001:00048d90       ?RefreshListOne@CDlgFavorite@@IEAA_NH@Z 0000000140049d90 f   CDlgFavorite.obj
 0001:00048f78       ?GetFavorite@CDlgFavorite@@IEAAXH@Z 0000000140049f78 f   CDlgFavorite.obj
 0001:00049034       ?DeleteSelected@CDlgFavorite@@IEAAHXZ 000000014004a034 f   CDlgFavorite.obj
 0001:00049308       ?UpdateUIState@CDlgFavorite@@IEAAXXZ 000000014004a308 f   CDlgFavorite.obj
 0001:00049470       ?AddItem@CDlgFavorite@@IEAAXXZ 000000014004a470 f   CDlgFavorite.obj
 0001:0004967c       ??1CDlgInput1@@QEAA@XZ     000000014004a67c f i CDlgFavorite.obj
 0001:00049688       ?EditItem@CDlgFavorite@@IEAAXXZ 000000014004a688 f   CDlgFavorite.obj
 0001:00049928       ?RightMenu@CDlgFavorite@@IEAAXAEAUtagPOINT@@@Z 000000014004a928 f   CDlgFavorite.obj
 0001:00049ee8       ?ListViewSort@CDlgFavorite@@CAXAEAUListViewSortInfo@1@PEBVCRecent@@H_N@Z 000000014004aee8 f   CDlgFavorite.obj
 0001:0004a12c       ?DispatchEvent@CDlgFavorite@@MEAA_JPEAUHWND__@@I_K_J@Z 000000014004b12c f   CDlgFavorite.obj
 0001:0004a174       ?OnSize@CDlgFavorite@@MEAAH_K_J@Z 000000014004b174 f   CDlgFavorite.obj
 0001:0004a2b4       ?OnMinMaxInfo@CDlgFavorite@@IEAAH_J@Z 000000014004b2b4 f   CDlgFavorite.obj
 0001:0004a2e4       ??1?$_Vb_val@V?$allocator@_N@std@@@std@@QEAA@XZ 000000014004b2e4 f i file.obj
 0001:0004a2e4       ??1?$vector@HV?$allocator@H@std@@@std@@QEAA@XZ 000000014004b2e4 f i CDlgFavorite.obj
 0001:0004a2e4       ??1?$vector@_NV?$allocator@_N@std@@@std@@QEAA@XZ 000000014004b2e4 f i file.obj
 0001:0004a340       ??1?$vector@_WV?$allocator@_W@std@@@std@@QEAA@XZ 000000014004b340 f i CDlgFavorite.obj
 0001:0004a3a0       ??0?$vector@_WV?$allocator@_W@std@@@std@@QEAA@_KAEBV?$allocator@_W@1@@Z 000000014004b3a0 f i CDlgFavorite.obj
 0001:0004a43c       ??1?$_Tidy_guard@V?$vector@_WV?$allocator@_W@std@@@std@@@std@@QEAA@XZ 000000014004b43c f i CDlgFavorite.obj
 0001:0004a4a0       ??$_Emplace_reallocate@AEBH@?$vector@HV?$allocator@H@std@@@std@@AEAAPEAHQEAHAEBH@Z 000000014004b4a0 f i CDlgFavorite.obj
 0001:0004a4a0       ??$_Emplace_reallocate@AEBK@?$vector@KV?$allocator@K@std@@@std@@AEAAPEAKQEAKAEBK@Z 000000014004b4a0 f i CGraphics.obj
 0001:0004a4a0       ??$_Emplace_reallocate@H@?$vector@HV?$allocator@H@std@@@std@@AEAAPEAHQEAH$$QEAH@Z 000000014004b4a0 f i CDlgFileTree.obj
 0001:0004a5fc       ??$_Sort_unchecked@V?$reverse_iterator@PEAH@std@@U?$less@X@2@@std@@YAXV?$reverse_iterator@PEAH@0@0_JU?$less@X@0@@Z 000000014004b5fc f i CDlgFavorite.obj
 0001:0004a7d8       ??$_Partition_by_median_guess_unchecked@V?$reverse_iterator@PEAH@std@@U?$less@X@2@@std@@YA?AU?$pair@V?$reverse_iterator@PEAH@std@@V12@@0@V?$reverse_iterator@PEAH@0@0U?$less@X@0@@Z 000000014004b7d8 f i CDlgFavorite.obj
 0001:0004aab4       ??$_Pop_heap_hole_by_index@V?$reverse_iterator@PEAH@std@@HU?$less@X@2@@std@@YAXV?$reverse_iterator@PEAH@0@_J1$$QEAHU?$less@X@0@@Z 000000014004bab4 f i CDlgFavorite.obj
 0001:0004abc8       ?OnInitDialog@CDlgFileUpdateQuery@@UEAAHPEAUHWND__@@_K_J@Z 000000014004bbc8 f   CDlgFileUpdateQuery.obj
 0001:0004ac44       ?OnBnClicked@CDlgFileUpdateQuery@@UEAAHH@Z 000000014004bc44 f   CDlgFileUpdateQuery.obj
 0001:0004ac94       ??0CDlgFind@@QEAA@XZ       000000014004bc94 f   CDlgFind.obj
 0001:0004ad2c       ??_ECDlgFind@@UEAAPEAXI@Z  000000014004bd2c f i * CIL library *:* CIL module *
 0001:0004ad2c       ??_GCDlgFind@@UEAAPEAXI@Z  000000014004bd2c f i CDlgFind.obj
 0001:0004ad9c       ??1CDlgFind@@UEAA@XZ       000000014004bd9c f i CDlgFind.obj
 0001:0004adec       ??_ECFontAutoDeleter@@UEAAPEAXI@Z 000000014004bdec f i * CIL library *:* CIL module *
 0001:0004adec       ??_GCFontAutoDeleter@@UEAAPEAXI@Z 000000014004bdec f i CDlgFind.obj
 0001:0004ae20       ?OnCbnDropDown@CDlgFind@@MEAAHPEAUHWND__@@H@Z 000000014004be20 f   CDlgFind.obj
 0001:0004aecc       ?DoModeless@CDlgFind@@QEAAPEAUHWND__@@PEAUHINSTANCE__@@PEAU2@_J@Z 000000014004becc f   CDlgFind.obj
 0001:0004af30       ?OnInitDialog@CDlgFind@@MEAAHPEAUHWND__@@_K_J@Z 000000014004bf30 f   CDlgFind.obj
 0001:0004afdc       ?OnDestroy@CDlgFind@@MEAAHXZ 000000014004bfdc f   CDlgFind.obj
 0001:0004b000       ?SetData@CDlgFind@@MEAAXXZ 000000014004c000 f   CDlgFind.obj
 0001:0004b108       ?SetCombosList@CDlgFind@@IEAAXXZ 000000014004c108 f   CDlgFind.obj
 0001:0004b20c       ?GetData@CDlgFind@@MEAAHXZ 000000014004c20c f   CDlgFind.obj
 0001:0004b428       ?OnBnClicked@CDlgFind@@MEAAHH@Z 000000014004c428 f   CDlgFind.obj
 0001:0004b64c       ?OnActivate@CDlgFind@@MEAAH_K_J@Z 000000014004c64c f   CDlgFind.obj
 0001:0004b64c       ?OnActivate@CDlgReplace@@MEAAH_K_J@Z 000000014004c64c f   CDlgReplace.obj
 0001:0004b6b0       ?GetHelpIdTable@CDlgFind@@MEAAPEAXXZ 000000014004c6b0 f   CDlgFind.obj
 0001:0004b6b8       ??$?9_WU?$char_traits@_W@std@@V?$allocator@_W@1@@std@@YA_NAEBV?$basic_string@_WU?$char_traits@_W@std@@V?$allocator@_W@2@@0@0@Z 000000014004c6b8 f i CDlgFind.obj
 0001:0004b700       ??0CDlgGrep@@QEAA@XZ       000000014004c700 f   CDlgGrep.obj
 0001:0004b83c       ??_ECDlgGrep@@UEAAPEAXI@Z  000000014004c83c f i * CIL library *:* CIL module *
 0001:0004b83c       ??_GCDlgGrep@@UEAAPEAXI@Z  000000014004c83c f i CDlgGrep.obj
 0001:0004b870       ??1CDlgGrep@@UEAA@XZ       000000014004c870 f i CDlgGrep.obj
 0001:0004bc04       ?GetPackedGFileString@CDlgGrep@@QEBA?AVCNativeW@@XZ 000000014004cc04 f   CDlgGrep.obj
 0001:0004bce8       ?OnCbnDropDown@CDlgGrep@@UEAAHPEAUHWND__@@H@Z 000000014004cce8 f   CDlgGrep.obj
 0001:0004bf50       ?DoModal@CDlgGrep@@QEAAHPEAUHINSTANCE__@@PEAUHWND__@@PEB_W@Z 000000014004cf50 f   CDlgGrep.obj
 0001:0004c19c       ?OnInitDialog@CDlgGrep@@MEAAHPEAUHWND__@@_K_J@Z 000000014004d19c f   CDlgGrep.obj
 0001:0004c5f8       ?OnFolderProc@@YA_JPEAUHWND__@@I_K_J@Z 000000014004d5f8 f   CDlgGrep.obj
 0001:0004c700       ?OnDestroy@CDlgGrep@@MEAAHXZ 000000014004d700 f   CDlgGrep.obj
 0001:0004c770       ?OnBnClicked@CDlgGrep@@MEAAHH@Z 000000014004d770 f   CDlgGrep.obj
 0001:0004cd3c       ?SetData@CDlgGrep@@MEAAXXZ 000000014004dd3c f   CDlgGrep.obj
 0001:0004d0d0       ?SetDataFromThisText@CDlgGrep@@IEAAX_N@Z 000000014004e0d0 f   CDlgGrep.obj
 0001:0004d42c       ?GetData@CDlgGrep@@MEAAHXZ 000000014004e42c f   CDlgGrep.obj
 0001:0004dba0       ?GetHelpIdTable@CDlgGrep@@MEAAPEAXXZ 000000014004eba0 f   CDlgGrep.obj
 0001:0004dd14       ??1?$vector@VCFontAutoDeleter@@V?$allocator@VCFontAutoDeleter@@@std@@@std@@QEAA@XZ 000000014004ed14 f i CDlgGrep.obj
 0001:0004dda0       ??0out_of_range@std@@QEAA@AEBV01@@Z 000000014004eda0 f i CDlgGrep.obj
 0001:0004dddc       ??$SelectDir@$0CAA@@@YAHPEAUHWND__@@PEB_W1AEAY0CAA@_W@Z 000000014004eddc f i CDlgGrep.obj
 0001:0004ddf4       ??$?H_WU?$char_traits@_W@std@@V?$allocator@_W@1@@std@@YA?AV?$basic_string@_WU?$char_traits@_W@std@@V?$allocator@_W@2@@0@$$QEAV10@0@Z 000000014004edf4 f i CDlgGrep.obj
 0001:0004dfd4       ??$_Resize_reallocate@U_Value_init_tag@std@@@?$vector@VCFontAutoDeleter@@V?$allocator@VCFontAutoDeleter@@@std@@@std@@AEAAX_KAEBU_Value_init_tag@1@@Z 000000014004efd4 f i CDlgGrep.obj
 0001:0004e150       ??0out_of_range@std@@QEAA@PEBD@Z 000000014004f150 f i CDlgGrep.obj
 0001:0004e1b4       ??0CDlgGrepReplace@@QEAA@XZ 000000014004f1b4 f   CDlgGrepReplace.obj
 0001:0004e24c       ??_ECDlgGrepReplace@@UEAAPEAXI@Z 000000014004f24c f i * CIL library *:* CIL module *
 0001:0004e24c       ??_GCDlgGrepReplace@@UEAAPEAXI@Z 000000014004f24c f i CDlgGrepReplace.obj
 0001:0004e2c0       ??1CDlgGrepReplace@@UEAA@XZ 000000014004f2c0 f i CDlgGrepReplace.obj
 0001:0004e310       ?DoModal@CDlgGrepReplace@@QEAAHPEAUHINSTANCE__@@PEAUHWND__@@PEB_W_J@Z 000000014004f310 f   CDlgGrepReplace.obj
 0001:0004e544       ?OnInitDialog@CDlgGrepReplace@@MEAAHPEAUHWND__@@_K_J@Z 000000014004f544 f   CDlgGrepReplace.obj
 0001:0004e63c       ?OnCbnDropDown@CDlgGrepReplace@@MEAAHPEAUHWND__@@H@Z 000000014004f63c f   CDlgGrepReplace.obj
 0001:0004e6e4       ?OnDestroy@CDlgGrepReplace@@MEAAHXZ 000000014004f6e4 f   CDlgGrepReplace.obj
 0001:0004e708       ?OnBnClicked@CDlgGrepReplace@@MEAAHH@Z 000000014004f708 f   CDlgGrepReplace.obj
 0001:0004e808       ?SetData@CDlgGrepReplace@@MEAAXXZ 000000014004f808 f   CDlgGrepReplace.obj
 0001:0004e878       ?GetData@CDlgGrepReplace@@MEAAHXZ 000000014004f878 f   CDlgGrepReplace.obj
 0001:0004e95c       ?GetHelpIdTable@CDlgGrepReplace@@MEAAPEAXXZ 000000014004f95c f   CDlgGrepReplace.obj
 0001:0004e964       ?CDlgInput1Proc@@YA_JPEAUHWND__@@I_K_J@Z 000000014004f964 f   CDlgInput1.obj
 0001:0004e9e4       ?DoModal@CDlgInput1@@QEAAHPEAUHINSTANCE__@@PEAUHWND__@@PEB_W2HPEA_W@Z 000000014004f9e4 f   CDlgInput1.obj
 0001:0004ea68       ?DispatchEvent@CDlgInput1@@QEAA_JPEAUHWND__@@I_K_J@Z 000000014004fa68 f   CDlgInput1.obj
 0001:0004ebd8       ??0CDlgJump@@QEAA@XZ       000000014004fbd8 f   CDlgJump.obj
 0001:0004ec08       ?DoModal@CDlgJump@@QEAAHPEAUHINSTANCE__@@PEAUHWND__@@_J@Z 000000014004fc08 f   CDlgJump.obj
 0001:0004ec24       ?OnNotify@CDlgJump@@MEAAHPEAUtagNMHDR@@@Z 000000014004fc24 f   CDlgJump.obj
 0001:0004eccc       ?OnCbnSelChange@CDlgJump@@MEAAHPEAUHWND__@@H@Z 000000014004fccc f   CDlgJump.obj
 0001:0004ed54       ?OnBnClicked@CDlgJump@@MEAAHH@Z 000000014004fd54 f   CDlgJump.obj
 0001:0004f04c       ?OnEnSetFocus@CDlgJump@@MEAAHPEAUHWND__@@H@Z 000000014005004c f   CDlgJump.obj
 0001:0004f078       ?OnEnKillFocus@CDlgJump@@MEAAHPEAUHWND__@@H@Z 0000000140050078 f   CDlgJump.obj
 0001:0004f0a4       ?SetData@CDlgJump@@MEAAXXZ 00000001400500a4 f   CDlgJump.obj
 0001:0004f5e0       ?GetData@CDlgJump@@MEAAHXZ 00000001400505e0 f   CDlgJump.obj
 0001:0004f6a4       ?GetHelpIdTable@CDlgJump@@MEAAPEAXXZ 00000001400506a4 f   CDlgJump.obj
 0001:0004f6ac       ??0CDlgOpenFile@@QEAA@XZ   00000001400506ac f   CDlgOpenFile.obj
 0001:0004f6c4       ?Create@CDlgOpenFile@@UEAAXPEAUHINSTANCE__@@PEAUHWND__@@PEB_W2AEBV?$vector@PEB_WV?$allocator@PEB_W@std@@@std@@3@Z 00000001400506c4 f   CDlgOpenFile.obj
 0001:0004f808       ?DoModal_GetOpenFileName@CDlgOpenFile@@UEAA_NPEA_WW4EFilter@@@Z 0000000140050808 f i CDlgOpenFile.obj
 0001:0004f814       ?DoModal_GetSaveFileName@CDlgOpenFile@@UEAA_NPEA_W@Z 0000000140050814 f i CDlgOpenFile.obj
 0001:0004f820       ?DoModalOpenDlg@CDlgOpenFile@@UEAA_NPEAUSLoadInfo@@PEAV?$vector@V?$basic_string@_WU?$char_traits@_W@std@@V?$allocator@_W@2@@std@@V?$allocator@V?$basic_string@_WU?$char_traits@_W@std@@V?$allocator@_W@2@@std@@@2@@std@@_N@Z 0000000140050820 f i CDlgOpenFile.obj
 0001:0004f82c       ?DoModalSaveDlg@CDlgOpenFile@@UEAA_NPEAUSSaveInfo@@_N@Z 000000014005082c f i CDlgOpenFile.obj
 0001:0004f838       ?SelectFile@CDlgOpenFile@@SAHPEAUHWND__@@0PEB_W_NW4EFilter@@@Z 0000000140050838 f   CDlgOpenFile.obj
 0001:0004fa54       ?OFNHookProcMain@@YA_JPEAUHWND__@@I_K_J@Z 0000000140050a54 f   CDlgOpenFile_CommonFileDialog.obj
 0001:0004fb2c       ?OFNHookProc@@YA_KPEAUHWND__@@I_K_J@Z 0000000140050b2c f   CDlgOpenFile_CommonFileDialog.obj
 0001:000507e0       ??0CDlgOpenFile_CommonFileDialog@@QEAA@XZ 00000001400517e0 f   CDlgOpenFile_CommonFileDialog.obj
 0001:000508f8       ?Create@CDlgOpenFile_CommonFileDialog@@UEAAXPEAUHINSTANCE__@@PEAUHWND__@@PEB_W2AEBV?$vector@PEB_WV?$allocator@PEB_W@std@@@std@@3@Z 00000001400518f8 f   CDlgOpenFile_CommonFileDialog.obj
 0001:00050a04       ?DoModal_GetOpenFileName@CDlgOpenFile_CommonFileDialog@@UEAA_NPEA_WW4EFilter@@@Z 0000000140051a04 f   CDlgOpenFile_CommonFileDialog.obj
 0001:00050d0c       ??1CFileExt@@QEAA@XZ       0000000140051d0c f i CDlgOpenFile_CommonFileDialog.obj
 0001:00050d74       ?DoModal_GetSaveFileName@CDlgOpenFile_CommonFileDialog@@UEAA_NPEA_W@Z 0000000140051d74 f   CDlgOpenFile_CommonFileDialog.obj
 0001:00050f78       ?DoModalOpenDlg@CDlgOpenFile_CommonFileDialog@@UEAA_NPEAUSLoadInfo@@PEAV?$vector@V?$basic_string@_WU?$char_traits@_W@std@@V?$allocator@_W@2@@std@@V?$allocator@V?$basic_string@_WU?$char_traits@_W@std@@V?$allocator@_W@2@@std@@@2@@std@@_N@Z 0000000140051f78 f   CDlgOpenFile_CommonFileDialog.obj
 0001:000514c0       ?DoModalSaveDlg@CDlgOpenFile_CommonFileDialog@@UEAA_NPEAUSSaveInfo@@_N@Z 00000001400524c0 f   CDlgOpenFile_CommonFileDialog.obj
 0001:00051810       ?DlgOpenFail@CDlgOpenFile_CommonFileDialog@@QEAAXXZ 0000000140052810 f   CDlgOpenFile_CommonFileDialog.obj
 0001:00051960       ?InitOfn@CDlgOpenFile_CommonFileDialog@@QEAAXPEAUtagOFNW@@@Z 0000000140052960 f   CDlgOpenFile_CommonFileDialog.obj
 0001:000519a4       ?InitLayout@CDlgOpenFile_CommonFileDialog@@SAXPEAUHWND__@@00@Z 00000001400529a4 f   CDlgOpenFile_CommonFileDialog.obj
 0001:00051b98       ?_GetOpenFileNameRecover@CDlgOpenFile_CommonFileDialog@@QEAA_NPEAUtagOFNW@@@Z 0000000140052b98 f   CDlgOpenFile_CommonFileDialog.obj
 0001:00051bfc       ?GetSaveFileNameRecover@CDlgOpenFile_CommonFileDialog@@QEAA_NPEAUtagOFNW@@@Z 0000000140052bfc f   CDlgOpenFile_CommonFileDialog.obj
 0001:00051c60       ?New_CDlgOpenFile_CommonFileDialog@@YA?AV?$shared_ptr@VIDlgOpenFile@@@std@@XZ 0000000140052c60 f   CDlgOpenFile_CommonFileDialog.obj
 0001:00051ce4       ??1?$unique_ptr@VCDlgOpenFileData@@U?$default_delete@VCDlgOpenFileData@@@std@@@std@@QEAA@XZ 0000000140052ce4 f i CDlgOpenFile_CommonFileDialog.obj
 0001:00051d00       ??1?$vector@USFileExtInfo@CFileExt@@V?$allocator@USFileExtInfo@CFileExt@@@std@@@std@@QEAA@XZ 0000000140052d00 f i CDlgOpenFile_CommonFileDialog.obj
 0001:00051d94       ??4?$vector@PEB_WV?$allocator@PEB_W@std@@@std@@QEAAAEAV01@AEBV01@@Z 0000000140052d94 f i CDlgOpenFile_CommonFileDialog.obj
 0001:00051e44       ??$?9_WU?$char_traits@_W@std@@V?$allocator@_W@1@@std@@YA_NAEBV?$basic_string@_WU?$char_traits@_W@std@@V?$allocator@_W@2@@0@QEB_W@Z 0000000140052e44 f i CDlgOpenFile_CommonFileDialog.obj
 0001:00051e90       ?_Delete_this@?$_Ref_count@UCDlgOpenFile_CommonFileDialog@@@std@@EEAAXXZ 0000000140052e90 f i CDlgOpenFile_CommonFileDialog.obj
 0001:00051e90       ?_Delete_this@?$_Ref_count@UCDlgOpenFile_CommonItemDialog@@@std@@EEAAXXZ 0000000140052e90 f i CDlgOpenFile_CommonItemDialog.obj
 0001:00051e90       ?_Delete_this@?$_Ref_count_obj2@VCViewFont@@@std@@EEAAXXZ 0000000140052e90 f i CPropTypesColor.obj
 0001:00051eac       ?_Destroy@?$_Ref_count@UCDlgOpenFile_CommonFileDialog@@@std@@EEAAXXZ 0000000140052eac f i CDlgOpenFile_CommonFileDialog.obj
 0001:00051ed8       ??1?$_Temporary_owner@UCDlgOpenFile_CommonFileDialog@@@std@@QEAA@XZ 0000000140052ed8 f i CDlgOpenFile_CommonFileDialog.obj
 0001:00051f04       ?_Clear_and_reserve_geometric@?$vector@PEAUHBRUSH__@@V?$allocator@PEAUHBRUSH__@@@std@@@std@@AEAAX_K@Z 0000000140052f04 f i CEditView_Paint.obj
 0001:00051f04       ?_Clear_and_reserve_geometric@?$vector@PEAUHPEN__@@V?$allocator@PEAUHPEN__@@@std@@@std@@AEAAX_K@Z 0000000140052f04 f i CEditView_Paint.obj
 0001:00051f04       ?_Clear_and_reserve_geometric@?$vector@PEAUHRGN__@@V?$allocator@PEAUHRGN__@@@std@@@std@@AEAAX_K@Z 0000000140052f04 f i CEditView_Paint.obj
 0001:00051f04       ?_Clear_and_reserve_geometric@?$vector@PEB_WV?$allocator@PEB_W@std@@@std@@AEAAX_K@Z 0000000140052f04 f i CDlgOpenFile_CommonFileDialog.obj
 0001:00051ff0       ??1CDlgOpenFile_CommonFileDialog@@QEAA@XZ 0000000140052ff0 f i CDlgOpenFile_CommonFileDialog.obj
 0001:000520c4       ?QueryInterface@CDlgOpenFile_CommonItemDialog@@UEAAJAEBU_GUID@@PEAPEAX@Z 00000001400530c4 f i CDlgOpenFile_CommonItemDialog.obj
 0001:000520dc       ?AddRef@CDlgOpenFile_CommonItemDialog@@UEAAKXZ 00000001400530dc f i CDlgOpenFile_CommonItemDialog.obj
 0001:000520ec       ?Release@CDlgOpenFile_CommonItemDialog@@UEAAKXZ 00000001400530ec f i CDlgOpenFile_CommonItemDialog.obj
 0001:000520fc       ?AddressOfMember@CIfObjTypeInfo@@UEAAJJW4tagINVOKEKIND@@PEAPEAX@Z 00000001400530fc f i CIfObj.obj
 0001:000520fc       ?Clone@CEnumFORMATETC@@UEAAJPEAPEAUIEnumFORMATETC@@@Z 00000001400530fc f i CDropTarget.obj
 0001:000520fc       ?CreateInstance@CIfObjTypeInfo@@UEAAJPEAUIUnknown@@AEBU_GUID@@PEAPEAX@Z 00000001400530fc f i CIfObj.obj
 0001:000520fc       ?GetContainingTypeLib@CIfObjTypeInfo@@UEAAJPEAPEAUITypeLib@@PEAI@Z 00000001400530fc f i CIfObj.obj
 0001:000520fc       ?GetDllEntry@CIfObjTypeInfo@@UEAAJJW4tagINVOKEKIND@@PEAPEA_W1PEAG@Z 00000001400530fc f i CIfObj.obj
 0001:000520fc       ?GetDocVersionString@CWSHSite@@UEAAJPEAPEA_W@Z 00000001400530fc f i CWSH.obj
 0001:000520fc       ?GetIDsOfNames@CIfObjTypeInfo@@UEAAJPEAPEA_WIPEAJ@Z 00000001400530fc f i CIfObj.obj
 0001:000520fc       ?GetImplTypeFlags@CIfObjTypeInfo@@UEAAJIPEAH@Z 00000001400530fc f i CIfObj.obj
 0001:000520fc       ?GetLCID@CWSHSite@@UEAAJPEAK@Z 00000001400530fc f i CWSH.obj
 0001:000520fc       ?GetMops@CIfObjTypeInfo@@UEAAJJPEAPEA_W@Z 00000001400530fc f i CIfObj.obj
 0001:000520fc       ?GetRefTypeInfo@CIfObjTypeInfo@@UEAAJKPEAPEAUITypeInfo@@@Z 00000001400530fc f i CIfObj.obj
 0001:000520fc       ?GetRefTypeOfImplType@CIfObjTypeInfo@@UEAAJIPEAK@Z 00000001400530fc f i CIfObj.obj
 0001:000520fc       ?GetTypeComp@CIfObjTypeInfo@@UEAAJPEAPEAUITypeComp@@@Z 00000001400530fc f i CIfObj.obj
 0001:000520fc       ?GetVarDesc@CIfObjTypeInfo@@UEAAJIPEAPEAUtagVARDESC@@@Z 00000001400530fc f i CIfObj.obj
 0001:000520fc       ?Invoke@CIfObjTypeInfo@@UEAAJPEAXJGPEAUtagDISPPARAMS@@PEAUtagVARIANT@@PEAUtagEXCEPINFO@@PEAI@Z 00000001400530fc f i CIfObj.obj
 0001:000520fc       ?OnButtonClicked@CDlgOpenFile_CommonItemDialog@@UEAAJPEAUIFileDialogCustomize@@K@Z 00000001400530fc f i CDlgOpenFile_CommonItemDialog.obj
 0001:000520fc       ?OnControlActivating@CDlgOpenFile_CommonItemDialog@@UEAAJPEAUIFileDialogCustomize@@K@Z 00000001400530fc f i CDlgOpenFile_CommonItemDialog.obj
 0001:000520fc       ?OnFileOk@CDlgOpenFile_CommonItemDialog@@UEAAJPEAUIFileDialog@@@Z 00000001400530fc f i CDlgOpenFile_CommonItemDialog.obj
 0001:000520fc       ?OnFolderChange@CDlgOpenFile_CommonItemDialog@@UEAAJPEAUIFileDialog@@@Z 00000001400530fc f i CDlgOpenFile_CommonItemDialog.obj
 0001:000520fc       ?OnFolderChanging@CDlgOpenFile_CommonItemDialog@@UEAAJPEAUIFileDialog@@PEAUIShellItem@@@Z 00000001400530fc f i CDlgOpenFile_CommonItemDialog.obj
 0001:000520fc       ?OnOverwrite@CDlgOpenFile_CommonItemDialog@@UEAAJPEAUIFileDialog@@PEAUIShellItem@@PEAW4FDE_OVERWRITE_RESPONSE@@@Z 00000001400530fc f i CDlgOpenFile_CommonItemDialog.obj
 0001:000520fc       ?OnSelectionChange@CDlgOpenFile_CommonItemDialog@@UEAAJPEAUIFileDialog@@@Z 00000001400530fc f i CDlgOpenFile_CommonItemDialog.obj
 0001:000520fc       ?OnShareViolation@CDlgOpenFile_CommonItemDialog@@UEAAJPEAUIFileDialog@@PEAUIShellItem@@PEAW4FDE_SHAREVIOLATION_RESPONSE@@@Z 00000001400530fc f i CDlgOpenFile_CommonItemDialog.obj
 0001:000520fc       ?OnTypeChange@CDlgOpenFile_CommonItemDialog@@UEAAJPEAUIFileDialog@@@Z 00000001400530fc f i CDlgOpenFile_CommonItemDialog.obj
 0001:000520fc       ?SetData@CDataObject@@UEAAJPEAUtagFORMATETC@@PEAUtagSTGMEDIUM@@H@Z 00000001400530fc f i CDropTarget.obj
 0001:00052104       ??0CDlgOpenFile_CommonItemDialog@@QEAA@XZ 0000000140053104 f   CDlgOpenFile_CommonItemDialog.obj
 0001:0005224c       ?Create@CDlgOpenFile_CommonItemDialog@@UEAAXPEAUHINSTANCE__@@PEAUHWND__@@PEB_W2AEBV?$vector@PEB_WV?$allocator@PEB_W@std@@@std@@3@Z 000000014005324c f   CDlgOpenFile_CommonItemDialog.obj
 0001:00052358       ?DoModal_GetOpenFileName@CDlgOpenFile_CommonItemDialog@@UEAA_NPEA_WW4EFilter@@@Z 0000000140053358 f   CDlgOpenFile_CommonItemDialog.obj
 0001:000528c4       ?DoModal_GetSaveFileName@CDlgOpenFile_CommonItemDialog@@UEAA_NPEA_W@Z 00000001400538c4 f   CDlgOpenFile_CommonItemDialog.obj
 0001:0005294c       ?Customize@CDlgOpenFile_CommonItemDialog@@QEAAJXZ 000000014005394c f   CDlgOpenFile_CommonItemDialog.obj
 0001:00052e14       ?DoModalOpenDlgImpl1@CDlgOpenFile_CommonItemDialog@@QEAAJPEAUIFileOpenDialog@@_NPEAV?$vector@V?$basic_string@_WU?$char_traits@_W@std@@V?$allocator@_W@2@@std@@V?$allocator@V?$basic_string@_WU?$char_traits@_W@std@@V?$allocator@_W@2@@std@@@2@@std@@PEB_WAEBV?$vector@U_COMDLG_FILTERSPEC@@V?$allocator@U_COMDLG_FILTERSPEC@@@std@@@4@@Z 0000000140053e14 f   CDlgOpenFile_CommonItemDialog.obj
 0001:000530c4       ?DoModalOpenDlgImpl0@CDlgOpenFile_CommonItemDialog@@QEAA_N_NPEAV?$vector@V?$basic_string@_WU?$char_traits@_W@std@@V?$allocator@_W@2@@std@@V?$allocator@V?$basic_string@_WU?$char_traits@_W@std@@V?$allocator@_W@2@@std@@@2@@std@@PEB_WAEBV?$vector@U_COMDLG_FILTERSPEC@@V?$allocator@U_COMDLG_FILTERSPEC@@@std@@@3@@Z 00000001400540c4 f   CDlgOpenFile_CommonItemDialog.obj
 0001:00053238       ?DoModalOpenDlg@CDlgOpenFile_CommonItemDialog@@UEAA_NPEAUSLoadInfo@@PEAV?$vector@V?$basic_string@_WU?$char_traits@_W@std@@V?$allocator@_W@2@@std@@V?$allocator@V?$basic_string@_WU?$char_traits@_W@std@@V?$allocator@_W@2@@std@@@2@@std@@_N@Z 0000000140054238 f   CDlgOpenFile_CommonItemDialog.obj
 0001:0005360c       ?DoModalSaveDlgImpl1@CDlgOpenFile_CommonItemDialog@@QEAAJPEAUIFileSaveDialog@@PEA_W@Z 000000014005460c f   CDlgOpenFile_CommonItemDialog.obj
 0001:000538d4       ??1?$array@V?$basic_string@_WU?$char_traits@_W@std@@V?$allocator@_W@2@@std@@$02@std@@QEAA@XZ 00000001400548d4 f i CDlgOpenFile_CommonItemDialog.obj
 0001:000538f4       ?DoModalSaveDlgImpl0@CDlgOpenFile_CommonItemDialog@@QEAA_NPEA_W@Z 00000001400548f4 f   CDlgOpenFile_CommonItemDialog.obj
 0001:00053a58       ?DoModalSaveDlg@CDlgOpenFile_CommonItemDialog@@UEAA_NPEAUSSaveInfo@@_N@Z 0000000140054a58 f   CDlgOpenFile_CommonItemDialog.obj
 0001:00053b10       ?OnItemSelected@CDlgOpenFile_CommonItemDialog@@UEAAJPEAUIFileDialogCustomize@@KK@Z 0000000140054b10 f   CDlgOpenFile_CommonItemDialog.obj
 0001:00053ca4       ?OnCheckButtonToggled@CDlgOpenFile_CommonItemDialog@@UEAAJPEAUIFileDialogCustomize@@KH@Z 0000000140054ca4 f   CDlgOpenFile_CommonItemDialog.obj
 0001:00053d10       ?AddComboCodePages@CDlgOpenFile_CommonItemDialog@@QEAAHH@Z 0000000140054d10 f   CDlgOpenFile_CommonItemDialog.obj
 0001:00053e28       ?New_CDlgOpenFile_CommonItemDialog@@YA?AV?$shared_ptr@VIDlgOpenFile@@@std@@XZ 0000000140054e28 f   CDlgOpenFile_CommonItemDialog.obj
 0001:00053eac       ??1?$ComPtr@UIFileDialog@@@WRL@Microsoft@@QEAA@XZ 0000000140054eac f i shell.obj
 0001:00053eac       ??1?$ComPtr@UIFileDialogCustomize@@@WRL@Microsoft@@QEAA@XZ 0000000140054eac f i CDlgOpenFile_CommonItemDialog.obj
 0001:00053eac       ??1?$ComPtr@UIFileOpenDialog@@@WRL@Microsoft@@QEAA@XZ 0000000140054eac f i CDlgOpenFile_CommonItemDialog.obj
 0001:00053eac       ??1?$ComPtr@UIFileSaveDialog@@@WRL@Microsoft@@QEAA@XZ 0000000140054eac f i CDlgOpenFile_CommonItemDialog.obj
 0001:00053eac       ??1?$ComPtr@UIShellItem@@@WRL@Microsoft@@QEAA@XZ 0000000140054eac f i CDlgOpenFile_CommonItemDialog.obj
 0001:00053eac       ??1?$ComPtr@UIShellItemArray@@@WRL@Microsoft@@QEAA@XZ 0000000140054eac f i CDlgOpenFile_CommonItemDialog.obj
 0001:00053eac       ??1?$ComPtr@UIUri@@@WRL@Microsoft@@QEAA@XZ 0000000140054eac f i shell.obj
 0001:00053eac       ??1?$ComPtr@UIWICBitmapDecoder@@@WRL@Microsoft@@QEAA@XZ 0000000140054eac f i CEditDoc.obj
 0001:00053eac       ??1?$ComPtr@UIWICBitmapFrameDecode@@@WRL@Microsoft@@QEAA@XZ 0000000140054eac f i CEditDoc.obj
 0001:00053eac       ??1?$ComPtr@UIWICFormatConverter@@@WRL@Microsoft@@QEAA@XZ 0000000140054eac f i CEditDoc.obj
 0001:00053eac       ??1?$ComPtr@UIWICImagingFactory@@@WRL@Microsoft@@QEAA@XZ 0000000140054eac f i CEditDoc.obj
 0001:00053ecc       ?resize@?$vector@V?$basic_string@_WU?$char_traits@_W@std@@V?$allocator@_W@2@@std@@V?$allocator@V?$basic_string@_WU?$char_traits@_W@std@@V?$allocator@_W@2@@std@@@2@@std@@QEAAX_K@Z 0000000140054ecc f i CDlgOpenFile_CommonItemDialog.obj
 0001:00053f6c       ?_Reallocate_exactly@?$vector@V?$basic_string@_WU?$char_traits@_W@std@@V?$allocator@_W@2@@std@@V?$allocator@V?$basic_string@_WU?$char_traits@_W@std@@V?$allocator@_W@2@@std@@@2@@std@@AEAAX_K@Z 0000000140054f6c f i CDlgOpenFile_CommonItemDialog.obj
 0001:00053fc8       ?_Reallocate_exactly@?$vector@U_COMDLG_FILTERSPEC@@V?$allocator@U_COMDLG_FILTERSPEC@@@std@@@std@@AEAAX_K@Z 0000000140054fc8 f i CDlgOpenFile_CommonItemDialog.obj
 0001:00054064       ??$IID_PPV_ARGS_Helper@V?$ComPtr@UIFileDialog@@@WRL@Microsoft@@@@YAPEAPEAXV?$ComPtrRef@V?$ComPtr@UIFileDialog@@@WRL@Microsoft@@@Details@WRL@Microsoft@@@Z 0000000140055064 f i shell.obj
 0001:00054064       ??$IID_PPV_ARGS_Helper@V?$ComPtr@UIFileDialogCustomize@@@WRL@Microsoft@@@@YAPEAPEAXV?$ComPtrRef@V?$ComPtr@UIFileDialogCustomize@@@WRL@Microsoft@@@Details@WRL@Microsoft@@@Z 0000000140055064 f i CDlgOpenFile_CommonItemDialog.obj
 0001:00054064       ??$IID_PPV_ARGS_Helper@V?$ComPtr@UIShellItem@@@WRL@Microsoft@@@@YAPEAPEAXV?$ComPtrRef@V?$ComPtr@UIShellItem@@@WRL@Microsoft@@@Details@WRL@Microsoft@@@Z 0000000140055064 f i CDlgOpenFile_CommonItemDialog.obj
 0001:00054064       ??$IID_PPV_ARGS_Helper@V?$ComPtr@UIWICImagingFactory@@@WRL@Microsoft@@@@YAPEAPEAXV?$ComPtrRef@V?$ComPtr@UIWICImagingFactory@@@WRL@Microsoft@@@Details@WRL@Microsoft@@@Z 0000000140055064 f i CEditDoc.obj
 0001:0005408c       ??1?$_Tidy_guard@V?$vector@U_COMDLG_FILTERSPEC@@V?$allocator@U_COMDLG_FILTERSPEC@@@std@@@std@@@std@@QEAA@XZ 000000014005508c f i CDlgOpenFile_CommonItemDialog.obj
 0001:0005408c       ??1?$_Tidy_guard@V?$vector@U_Grp_t@?$_Tgt_state_t@PEB_W@std@@V?$allocator@U_Grp_t@?$_Tgt_state_t@PEB_W@std@@@3@@std@@@std@@QEAA@XZ 000000014005508c f i file.obj
 0001:0005408c       ??1?$_Tidy_guard@V?$vector@U_Grp_t@?$_Tgt_state_t@V?$_String_const_iterator@V?$_String_val@U?$_Simple_types@_W@std@@@std@@@std@@@std@@V?$allocator@U_Grp_t@?$_Tgt_state_t@V?$_String_const_iterator@V?$_String_val@U?$_Simple_types@_W@std@@@std@@@std@@@std@@@3@@std@@@std@@QEAA@XZ 000000014005508c f i shell.obj
 0001:000540f0       ?_Destroy@?$_Ref_count@UCDlgOpenFile_CommonItemDialog@@@std@@EEAAXXZ 00000001400550f0 f i CDlgOpenFile_CommonItemDialog.obj
 0001:0005411c       ??1?$_Temporary_owner@UCDlgOpenFile_CommonItemDialog@@@std@@QEAA@XZ 000000014005511c f i CDlgOpenFile_CommonItemDialog.obj
 0001:00054148       ??1CDlgOpenFile_CommonItemDialog@@QEAA@XZ 0000000140055148 f i CDlgOpenFile_CommonItemDialog.obj
 0001:0005421c       ??$_Resize_reallocate@U_Value_init_tag@std@@@?$vector@V?$basic_string@_WU?$char_traits@_W@std@@V?$allocator@_W@2@@std@@V?$allocator@V?$basic_string@_WU?$char_traits@_W@std@@V?$allocator@_W@2@@std@@@2@@std@@AEAAX_KAEBU_Value_init_tag@1@@Z 000000014005521c f i CDlgOpenFile_CommonItemDialog.obj
 0001:00054324       ?Release@CDlgOpenFile_CommonItemDialog@@W7EAAKXZ 0000000140055324 f i CDlgOpenFile_CommonItemDialog.obj
 0001:00054330       ?AddRef@CDlgOpenFile_CommonItemDialog@@W7EAAKXZ 0000000140055330 f i CDlgOpenFile_CommonItemDialog.obj
 0001:0005433c       ?QueryInterface@CDlgOpenFile_CommonItemDialog@@W7EAAJAEBU_GUID@@PEAPEAX@Z 000000014005533c f i CDlgOpenFile_CommonItemDialog.obj
 0001:00054348       ??0CDlgPluginOption@@QEAA@XZ 0000000140055348 f   CDlgPluginOption.obj
 0001:0005438c       ??_ECDlgPluginOption@@UEAAPEAXI@Z 000000014005538c f i * CIL library *:* CIL module *
 0001:0005438c       ??_GCDlgPluginOption@@UEAAPEAXI@Z 000000014005538c f i CDlgPluginOption.obj
 0001:000543c0       ??1CDlgPluginOption@@UEAA@XZ 00000001400553c0 f   CDlgPluginOption.obj
 0001:000543ec       ?DoModal@CDlgPluginOption@@QEAAHPEAUHINSTANCE__@@PEAUHWND__@@PEAVCPropPlugin@@H@Z 00000001400553ec f   CDlgPluginOption.obj
 0001:00054480       ?SetData@CDlgPluginOption@@MEAAXXZ 0000000140055480 f   CDlgPluginOption.obj
 0001:00055104       ?GetData@CDlgPluginOption@@MEAAHXZ 0000000140056104 f   CDlgPluginOption.obj
 0001:000558dc       ?OnInitDialog@CDlgPluginOption@@MEAAHPEAUHWND__@@_K_J@Z 00000001400568dc f   CDlgPluginOption.obj
 0001:00055b98       ?OnNotify@CDlgPluginOption@@MEAAHPEAUtagNMHDR@@@Z 0000000140056b98 f   CDlgPluginOption.obj
 0001:00055c44       ?OnBnClicked@CDlgPluginOption@@MEAAHH@Z 0000000140056c44 f   CDlgPluginOption.obj
 0001:00055d2c       ?OnCbnSelChange@CDlgPluginOption@@MEAAHPEAUHWND__@@H@Z 0000000140056d2c f   CDlgPluginOption.obj
 0001:00055d54       ?OnEnChange@CDlgPluginOption@@MEAAHPEAUHWND__@@H@Z 0000000140056d54 f   CDlgPluginOption.obj
 0001:00055d88       ?OnActivate@CDlgPluginOption@@MEAAH_K_J@Z 0000000140056d88 f   CDlgPluginOption.obj
 0001:00055da4       ?GetHelpIdTable@CDlgPluginOption@@MEAAPEAXXZ 0000000140056da4 f   CDlgPluginOption.obj
 0001:00055dac       ?ChangeListPosition@CDlgPluginOption@@IEAAXXZ 0000000140056dac f   CDlgPluginOption.obj
 0001:00055eb8       ?MoveFocusToEdit@CDlgPluginOption@@IEAAXXZ 0000000140056eb8 f   CDlgPluginOption.obj
 0001:00056198       ?SetToEdit@CDlgPluginOption@@IEAAXH@Z 0000000140057198 f   CDlgPluginOption.obj
 0001:000567f8       ?SelectEdit@CDlgPluginOption@@IEAAXH@Z 00000001400577f8 f   CDlgPluginOption.obj
 0001:000569b8       ?SetFromEdit@CDlgPluginOption@@IEAAXH@Z 00000001400579b8 f   CDlgPluginOption.obj
 0001:00056d50       ?SepSelect@CDlgPluginOption@@IEAAXV?$basic_string@_WU?$char_traits@_W@std@@V?$allocator@_W@2@@std@@PEAV23@1@Z 0000000140057d50 f   CDlgPluginOption.obj
 0001:00056f10       ?SelectDirectory@CDlgPluginOption@@IEAAXH@Z 0000000140057f10 f   CDlgPluginOption.obj
 0001:00057068       ?getInstance@?$TSingleton@VCPluginManager@@@@SAPEAVCPluginManager@@XZ 0000000140058068 f i CDlgPluginOption.obj
 0001:000570dc       ??$IOProfileData@V?$basic_string@_WU?$char_traits@_W@std@@V?$allocator@_W@2@@std@@@CDataProfile@@QEAA_NV?$basic_string_view@_WU?$char_traits@_W@std@@@std@@0AEAV?$basic_string@_WU?$char_traits@_W@std@@V?$allocator@_W@2@@2@@Z 00000001400580dc f i CDlgPluginOption.obj
 0001:00057160       ??$SelectDir@$0BAF@@@YAHPEAUHWND__@@PEB_W1AEAY0BAF@_W@Z 0000000140058160 f i CDlgPluginOption.obj
 0001:00057178       ??_ECDataProfile@@UEAAPEAXI@Z 0000000140058178 f i * CIL library *:* CIL module *
 0001:00057178       ??_GCDataProfile@@UEAAPEAXI@Z 0000000140058178 f i CDlgPluginOption.obj
 0001:000571bc       ??1CDataProfile@@UEAA@XZ   00000001400581bc f i CDlgPluginOption.obj
 0001:000571dc       ??1?$vector@USection@CProfile@@V?$allocator@USection@CProfile@@@std@@@std@@QEAA@XZ 00000001400581dc f i CDlgPluginOption.obj
 0001:00057294       ?SetData_EnumFontFamProc@@YAHPEAUtagENUMLOGFONTW@@PEAUtagNEWTEXTMETRICW@@H_J@Z 0000000140058294 f   CDlgPrintSetting.obj
 0001:00057318       ?DoModal@CDlgPrintSetting@@QEAAHPEAUHINSTANCE__@@PEAUHWND__@@PEAHPEAUPRINTSETTING@@H@Z 0000000140058318 f   CDlgPrintSetting.obj
 0001:000573f8       ?OnInitDialog@CDlgPrintSetting@@MEAAHPEAUHWND__@@_K_J@Z 00000001400583f8 f   CDlgPrintSetting.obj
 0001:000574d4       ?OnDestroy@CDlgPrintSetting@@MEAAHXZ 00000001400584d4 f   CDlgPrintSetting.obj
 0001:0005755c       ?OnNotify@CDlgPrintSetting@@MEAAHPEAUtagNMHDR@@@Z 000000014005855c f   CDlgPrintSetting.obj
 0001:000575c8       ?OnCbnSelChange@CDlgPrintSetting@@MEAAHPEAUHWND__@@H@Z 00000001400585c8 f   CDlgPrintSetting.obj
 0001:00057604       ?OnBnClicked@CDlgPrintSetting@@MEAAHH@Z 0000000140058604 f   CDlgPrintSetting.obj
 0001:00057c58       ?OnStnClicked@CDlgPrintSetting@@MEAAHH@Z 0000000140058c58 f   CDlgPrintSetting.obj
 0001:00057c8c       ?OnEnChange@CDlgPrintSetting@@MEAAHPEAUHWND__@@H@Z 0000000140058c8c f   CDlgPrintSetting.obj
 0001:00057d28       ?OnEnSetFocus@CDlgPrintSetting@@MEAAHPEAUHWND__@@H@Z 0000000140058d28 f   CDlgPrintSetting.obj
 0001:00057d54       ?OnEnKillFocus@CDlgPrintSetting@@MEAAHPEAUHWND__@@H@Z 0000000140058d54 f   CDlgPrintSetting.obj
 0001:00057dc4       ?SetData@CDlgPrintSetting@@MEAAXXZ 0000000140058dc4 f   CDlgPrintSetting.obj
 0001:00057f70       ?GetData@CDlgPrintSetting@@MEAAHXZ 0000000140058f70 f   CDlgPrintSetting.obj
 0001:000587b8       ?OnChangeSettingType@CDlgPrintSetting@@IEAAXH@Z 00000001400597b8 f   CDlgPrintSetting.obj
 0001:00058d74       ?OnSpin@CDlgPrintSetting@@IEAAXHH@Z 0000000140059d74 f   CDlgPrintSetting.obj
 0001:00058e4c       ?DataCheckAndCorrect@CDlgPrintSetting@@IEAAHHH@Z 0000000140059e4c f   CDlgPrintSetting.obj
 0001:00058f14       ?CalcPrintableLineAndColumn@CDlgPrintSetting@@IEAAHXZ 0000000140059f14 f   CDlgPrintSetting.obj
 0001:000590dc       ?UpdatePrintableLineAndColumn@CDlgPrintSetting@@IEAAXXZ 000000014005a0dc f   CDlgPrintSetting.obj
 0001:0005911c       ?GetHelpIdTable@CDlgPrintSetting@@MEAAPEAXXZ 000000014005a11c f   CDlgPrintSetting.obj
 0001:00059124       ?SetFontName@CDlgPrintSetting@@IEAAXHHAEAUtagLOGFONTW@@H@Z 000000014005a124 f   CDlgPrintSetting.obj
 0001:00059338       ?TrySelectProfile@CDlgProfileMgr@@SA_NPEAVCCommandLine@@@Z 000000014005a338 f   CDlgProfileMgr.obj
 0001:00059418       ??1SProfileSettings@@QEAA@XZ 000000014005a418 f i CDlgProfileMgr.obj
 0001:00059424       ??0CDlgProfileMgr@@QEAA@XZ 000000014005a424 f   CDlgProfileMgr.obj
 0001:00059460       ??_ECDlgProfileMgr@@UEAAPEAXI@Z 000000014005a460 f i * CIL library *:* CIL module *
 0001:00059460       ??_GCDlgProfileMgr@@UEAAPEAXI@Z 000000014005a460 f i CDlgProfileMgr.obj
 0001:000594a0       ?DoModal@CDlgProfileMgr@@QEAAHPEAUHINSTANCE__@@PEAUHWND__@@_J@Z 000000014005a4a0 f   CDlgProfileMgr.obj
 0001:000594bc       ?GetProfileMgrFileName@@YA?AVpath@filesystem@std@@XZ 000000014005a4bc f   CDlgProfileMgr.obj
 0001:00059664       ?GetProfileDirectory@@YA?AVpath@filesystem@std@@AEBV?$basic_string@_WU?$char_traits@_W@std@@V?$allocator@_W@2@@3@@Z 000000014005a664 f   CDlgProfileMgr.obj
 0001:000597f4       ?GetProfileMgrFileName@@YA?AV?$basic_string@_WU?$char_traits@_W@std@@V?$allocator@_W@2@@std@@AEBV?$basic_string_view@_WU?$char_traits@_W@std@@@2@@Z 000000014005a7f4 f   CDlgProfileMgr.obj
 0001:00059890       ?SetData@CDlgProfileMgr@@MEAAXXZ 000000014005a890 f   CDlgProfileMgr.obj
 0001:00059898       ?SetData@CDlgProfileMgr@@IEAAXH@Z 000000014005a898 f   CDlgProfileMgr.obj
 0001:00059b7c       ?GetData@CDlgProfileMgr@@MEAAHXZ 000000014005ab7c f   CDlgProfileMgr.obj
 0001:00059b84       ?GetData@CDlgProfileMgr@@IEAAH_N@Z 000000014005ab84 f   CDlgProfileMgr.obj
 0001:00059cf8       ?OnBnClicked@CDlgProfileMgr@@MEAAHH@Z 000000014005acf8 f   CDlgProfileMgr.obj
 0001:00059e88       ?DispatchEvent@CDlgProfileMgr@@MEAA_JPEAUHWND__@@I_K_J@Z 000000014005ae88 f   CDlgProfileMgr.obj
 0001:00059f38       ?UpdateIni@CDlgProfileMgr@@IEAAXXZ 000000014005af38 f   CDlgProfileMgr.obj
 0001:0005a1e4       ?CreateProf@CDlgProfileMgr@@IEAAXXZ 000000014005b1e4 f   CDlgProfileMgr.obj
 0001:0005a4fc       ?DeleteProf@CDlgProfileMgr@@IEAAXXZ 000000014005b4fc f   CDlgProfileMgr.obj
 0001:0005a588       ?RenameProf@CDlgProfileMgr@@IEAAXXZ 000000014005b588 f   CDlgProfileMgr.obj
 0001:0005a9ac       ?SetDefaultProf@CDlgProfileMgr@@IEAAXH@Z 000000014005b9ac f   CDlgProfileMgr.obj
 0001:0005aa5c       ?ClearDefaultProf@CDlgProfileMgr@@IEAAXXZ 000000014005ba5c f   CDlgProfileMgr.obj
 0001:0005af80       ?ReadProfSettings@CDlgProfileMgr@@SA_NAEAUSProfileSettings@@@Z 000000014005bf80 f   CDlgProfileMgr.obj
 0001:0005affc       ?WriteProfSettings@CDlgProfileMgr@@SA_NAEAUSProfileSettings@@@Z 000000014005bffc f   CDlgProfileMgr.obj
 0001:0005b004       ?GetHelpIdTable@CDlgProfileMgr@@MEAAPEAXXZ 000000014005c004 f   CDlgProfileMgr.obj
 0001:0005b00c       ??$TryParse@H@profile_data@@YA_NV?$basic_string_view@_WU?$char_traits@_W@std@@@std@@AEAH@Z 000000014005c00c f i CDlgProfileMgr.obj
 0001:0005b00c       ??$TryParse@J@profile_data@@YA_NV?$basic_string_view@_WU?$char_traits@_W@std@@@std@@AEAJ@Z 000000014005c00c f i CShareData_IO.obj
 0001:0005b00c       ??$TryParse@W4EBackgroundImagePos@@@profile_data@@YA_NV?$basic_string_view@_WU?$char_traits@_W@std@@@std@@AEAW4EBackgroundImagePos@@@Z 000000014005c00c f i CShareData_IO.obj
 0001:0005b00c       ??$TryParse@W4ECodeType@@@profile_data@@YA_NV?$basic_string_view@_WU?$char_traits@_W@std@@@std@@AEAW4ECodeType@@@Z 000000014005c00c f i CShareData_IO.obj
 0001:0005b00c       ??$TryParse@W4EDispTabClose@@@profile_data@@YA_NV?$basic_string_view@_WU?$char_traits@_W@std@@@std@@AEAW4EDispTabClose@@@Z 000000014005c00c f i CShareData_IO.obj
 0001:0005b00c       ??$TryParse@W4EDockSide@@@profile_data@@YA_NV?$basic_string_view@_WU?$char_traits@_W@std@@@std@@AEAW4EDockSide@@@Z 000000014005c00c f i CShareData_IO.obj
 0001:0005b00c       ??$TryParse@W4EFileTreeItemType@@@profile_data@@YA_NV?$basic_string_view@_WU?$char_traits@_W@std@@@std@@AEAW4EFileTreeItemType@@@Z 000000014005c00c f i CShareData_IO.obj
 0001:0005b00c       ??$TryParse@W4EFunctionCode@@@profile_data@@YA_NV?$basic_string_view@_WU?$char_traits@_W@std@@@std@@AEAW4EFunctionCode@@@Z 000000014005c00c f i CShareData_IO.obj
 0001:0005b00c       ??$TryParse@W4EKeyHelpRMenuType@@@profile_data@@YA_NV?$basic_string_view@_WU?$char_traits@_W@std@@@std@@AEAW4EKeyHelpRMenuType@@@Z 000000014005c00c f i CShareData_IO.obj
 0001:0005b00c       ??$TryParse@W4EOpenDialogDir@@@profile_data@@YA_NV?$basic_string_view@_WU?$char_traits@_W@std@@@std@@AEAW4EOpenDialogDir@@@Z 000000014005c00c f i CShareData_IO.obj
 0001:0005b00c       ??$TryParse@W4EOutlineType@@@profile_data@@YA_NV?$basic_string_view@_WU?$char_traits@_W@std@@@std@@AEAW4EOutlineType@@@Z 000000014005c00c f i CShareData_IO.obj
 0001:0005b00c       ??$TryParse@W4EShareMode@@@profile_data@@YA_NV?$basic_string_view@_WU?$char_traits@_W@std@@@std@@AEAW4EShareMode@@@Z 000000014005c00c f i CShareData_IO.obj
 0001:0005b00c       ??$TryParse@W4ESmartIndentType@@@profile_data@@YA_NV?$basic_string_view@_WU?$char_traits@_W@std@@@std@@AEAW4ESmartIndentType@@@Z 000000014005c00c f i CShareData_IO.obj
 0001:0005b00c       ??$TryParse@W4ETabArrow@@@profile_data@@YA_NV?$basic_string_view@_WU?$char_traits@_W@std@@@std@@AEAW4ETabArrow@@@Z 000000014005c00c f i CShareData_IO.obj
 0001:0005b00c       ??$TryParse@W4ETabPosition@@@profile_data@@YA_NV?$basic_string_view@_WU?$char_traits@_W@std@@@std@@AEAW4ETabPosition@@@Z 000000014005c00c f i CShareData_IO.obj
 0001:0005b00c       ??$TryParse@W4EWinSizeMode@@@profile_data@@YA_NV?$basic_string_view@_WU?$char_traits@_W@std@@@std@@AEAW4EWinSizeMode@@@Z 000000014005c00c f i CShareData_IO.obj
 0001:0005b074       ??$ToString@H$0A@@profile_data@@YA?AV?$basic_string@_WU?$char_traits@_W@std@@V?$allocator@_W@2@@std@@H@Z 000000014005c074 f i CDlgProfileMgr.obj
 0001:0005b074       ??$ToString@J$0A@@profile_data@@YA?AV?$basic_string@_WU?$char_traits@_W@std@@V?$allocator@_W@2@@std@@J@Z 000000014005c074 f i CShareData_IO.obj
 0001:0005b0bc       ??$IOProfileData@H@CDataProfile@@QEAA_NV?$basic_string_view@_WU?$char_traits@_W@std@@@std@@0AEAH@Z 000000014005c0bc f i CDlgProfileMgr.obj
 0001:0005b0bc       ??$IOProfileData@J@CDataProfile@@QEAA_NV?$basic_string_view@_WU?$char_traits@_W@std@@@std@@0AEAJ@Z 000000014005c0bc f i CShareData_IO.obj
 0001:0005b1f4       ??$IOProfileData@_N@CDataProfile@@QEAA_NV?$basic_string_view@_WU?$char_traits@_W@std@@@std@@0AEA_N@Z 000000014005c1f4 f i CDlgProfileMgr.obj
 0001:0005b348       ??$List_GetText@$0BAE@@ApiWrap@@YA_JPEAUHWND__@@HAEAY0BAE@_W@Z 000000014005c348 f i CDlgProfileMgr.obj
 0001:0005b354       ??$_Convert_Source_to_wide@V?$basic_string@_WU?$char_traits@_W@std@@V?$allocator@_W@2@@std@@U_Normal_conversion@filesystem@2@@filesystem@std@@YA?AV?$basic_string@_WU?$char_traits@_W@std@@V?$allocator@_W@2@@1@AEBV21@U_Normal_conversion@01@@Z 000000014005c354 f i CDlgProfileMgr.obj
 0001:0005b388       ??$_Stringoid_from_Source@_WU?$char_traits@_W@std@@V?$allocator@_W@2@@filesystem@std@@YA?A_PAEBV?$basic_string@_WU?$char_traits@_W@std@@V?$allocator@_W@2@@1@@Z 000000014005c388 f i CDlgProfileMgr.obj
 0001:0005b3a4       ??$_Convert_Source_to_wide@$$BY09_WU_Normal_conversion@filesystem@std@@@filesystem@std@@YA?AV?$basic_string@_WU?$char_traits@_W@std@@V?$allocator@_W@2@@1@AEAY09$$CB_WU_Normal_conversion@01@@Z 000000014005c3a4 f i CDlgProfileMgr.obj
 0001:0005b3d8       ??$_Stringoid_from_Source@$$BY09_W@filesystem@std@@YA?A_PAEAY09$$CB_W@Z 000000014005c3d8 f i CDlgProfileMgr.obj
 0001:0005b3f0       ??$_Convert_Source_to_wide@$$BY05_WU_Normal_conversion@filesystem@std@@@filesystem@std@@YA?AV?$basic_string@_WU?$char_traits@_W@std@@V?$allocator@_W@2@@1@AEAY05$$CB_WU_Normal_conversion@01@@Z 000000014005c3f0 f i CDlgProfileMgr.obj
 0001:0005b424       ??$_Stringoid_from_Source@$$BY05_W@filesystem@std@@YA?A_PAEAY05$$CB_W@Z 000000014005c424 f i CDlgProfileMgr.obj
 0001:0005b43c       ??_0path@filesystem@std@@QEAAAEAV012@AEBV012@@Z 000000014005c43c f i CDlgProfileMgr.obj
 0001:0005b634       ??$_UIntegral_to_buff@_WI@std@@YAPEA_WPEA_WI@Z 000000014005c634 f i CDlgProfileMgr.obj
 0001:0005b634       ??$_UIntegral_to_buff@_WK@std@@YAPEA_WPEA_WK@Z 000000014005c634 f i CShareData_IO.obj
 0001:0005b670       ??$_Construct@$00PEA_W@?$basic_string@_WU?$char_traits@_W@std@@V?$allocator@_W@2@@std@@AEAAXQEA_W_K@Z 000000014005c670 f i CDlgProfileMgr.obj
 0001:0005b768       ??$_Integral_to_string@_WH@std@@YA?AV?$basic_string@_WU?$char_traits@_W@std@@V?$allocator@_W@2@@0@H@Z 000000014005c768 f i CDlgProfileMgr.obj
 0001:0005b768       ??$_Integral_to_string@_WJ@std@@YA?AV?$basic_string@_WU?$char_traits@_W@std@@V?$allocator@_W@2@@0@J@Z 000000014005c768 f i CShareData_IO.obj
 0001:0005b800       ?remove_filename@path@filesystem@std@@QEAAAEAV123@XZ 000000014005c800 f i CDlgProfileMgr.obj
 0001:0005b8a4       ?replace_extension@path@filesystem@std@@QEAAAEAV123@XZ 000000014005c8a4 f i CDlgProfileMgr.obj
 0001:0005b9a0       ?parent_path@path@filesystem@std@@QEBA?AV123@XZ 000000014005c9a0 f i CDlgProfileMgr.obj
 0001:0005ba5c       ??$_Stringoid_from_Source@_WU?$char_traits@_W@std@@@filesystem@std@@YA?A_PAEBV?$basic_string_view@_WU?$char_traits@_W@std@@@1@@Z 000000014005ca5c f i CDlgProfileMgr.obj
 0001:0005ba70       ??$_Convert_Source_to_wide@V?$basic_string_view@_WU?$char_traits@_W@std@@@std@@U_Normal_conversion@filesystem@2@@filesystem@std@@YA?AV?$basic_string@_WU?$char_traits@_W@std@@V?$allocator@_W@2@@1@AEBV?$basic_string_view@_WU?$char_traits@_W@std@@@1@U_Normal_conversion@01@@Z 000000014005ca70 f i CDlgProfileMgr.obj
 0001:0005baa4       ??$_Unaligned_load@I@filesystem@std@@YAIPEBX@Z 000000014005caa4 f i CDlgProfileMgr.obj
 0001:0005bae0       ?_Find_root_name_end@filesystem@std@@YAPEB_WQEB_W0@Z 000000014005cae0 f i CDlgProfileMgr.obj
 0001:0005bbd8       ?filename@path@filesystem@std@@QEBA?AV123@XZ 000000014005cbd8 f i CDlgProfileMgr.obj
 0001:0005bc7c       ?DoModal@CDlgProperty@@QEAAHPEAUHINSTANCE__@@PEAUHWND__@@_J@Z 000000014005cc7c f   CDlgProperty.obj
 0001:0005bc98       ?OnBnClicked@CDlgProperty@@MEAAHH@Z 000000014005cc98 f   CDlgProperty.obj
 0001:0005bcf4       ?SetData@CDlgProperty@@MEAAXXZ 000000014005ccf4 f   CDlgProperty.obj
 0001:0005ca38       ?GetHelpIdTable@CDlgProperty@@MEAAPEAXXZ 000000014005da38 f   CDlgProperty.obj
 0001:0005ca40       ??0CDlgReplace@@QEAA@XZ    000000014005da40 f   CDlgReplace.obj
 0001:0005cb28       ??_ECDlgReplace@@UEAAPEAXI@Z 000000014005db28 f i * CIL library *:* CIL module *
 0001:0005cb28       ??_GCDlgReplace@@UEAAPEAXI@Z 000000014005db28 f i CDlgReplace.obj
 0001:0005cb5c       ??1CDlgReplace@@UEAA@XZ    000000014005db5c f i CDlgReplace.obj
 0001:0005cbe0       ?OnCbnDropDown@CDlgReplace@@MEAAHPEAUHWND__@@H@Z 000000014005dbe0 f   CDlgReplace.obj
 0001:0005ccfc       ?DoModeless@CDlgReplace@@QEAAPEAUHWND__@@PEAUHINSTANCE__@@PEAU2@_JH@Z 000000014005dcfc f   CDlgReplace.obj
 0001:0005cd88       ?SetData@CDlgReplace@@MEAAXXZ 000000014005dd88 f   CDlgReplace.obj
 0001:0005cf28       ?SetCombosList@CDlgReplace@@IEAAXXZ 000000014005df28 f   CDlgReplace.obj
 0001:0005d0e0       ?GetData@CDlgReplace@@MEAAHXZ 000000014005e0e0 f   CDlgReplace.obj
 0001:0005d478       ?OnInitDialog@CDlgReplace@@MEAAHPEAUHWND__@@_K_J@Z 000000014005e478 f   CDlgReplace.obj
 0001:0005d688       ?OnDestroy@CDlgReplace@@MEAAHXZ 000000014005e688 f   CDlgReplace.obj
 0001:0005d6b8       ?OnBnClicked@CDlgReplace@@MEAAHH@Z 000000014005e6b8 f   CDlgReplace.obj
 0001:0005dc20       ?GetHelpIdTable@CDlgReplace@@MEAAPEAXXZ 000000014005ec20 f   CDlgReplace.obj
 0001:0005dc28       ??0CDlgSetCharSet@@QEAA@XZ 000000014005ec28 f   CDlgSetCharSet.obj
 0001:0005dc50       ??_ECDlgSetCharSet@@UEAAPEAXI@Z 000000014005ec50 f i * CIL library *:* CIL module *
 0001:0005dc50       ??_GCDlgSetCharSet@@UEAAPEAXI@Z 000000014005ec50 f i CDlgSetCharSet.obj
 0001:0005dc84       ?DoModal@CDlgSetCharSet@@QEAAHPEAUHINSTANCE__@@PEAUHWND__@@PEAW4ECodeType@@PEA_N@Z 000000014005ec84 f   CDlgSetCharSet.obj
 0001:0005dcac       ?OnInitDialog@CDlgSetCharSet@@MEAAHPEAUHWND__@@_K_J@Z 000000014005ecac f   CDlgSetCharSet.obj
 0001:0005ddb8       ?OnBnClicked@CDlgSetCharSet@@MEAAHH@Z 000000014005edb8 f   CDlgSetCharSet.obj
 0001:0005de74       ?SetBOM@CDlgSetCharSet@@IEAAXXZ 000000014005ee74 f   CDlgSetCharSet.obj
 0001:0005df38       ?OnCbnSelChange@CDlgSetCharSet@@MEAAHPEAUHWND__@@H@Z 000000014005ef38 f   CDlgSetCharSet.obj
 0001:0005e010       ?GetHelpIdTable@CDlgSetCharSet@@MEAAPEAXXZ 000000014005f010 f   CDlgSetCharSet.obj
 0001:0005e018       ?SetData@CDlgSetCharSet@@MEAAXXZ 000000014005f018 f   CDlgSetCharSet.obj
 0001:0005e138       ?GetData@CDlgSetCharSet@@MEAAHXZ 000000014005f138 f   CDlgSetCharSet.obj
 0001:0005e1a8       ??0CDlgTagJumpList@@QEAA@_N@Z 000000014005f1a8 f   CDlgTagJumpList.obj
 0001:0005e2f4       ??_ECDlgTagJumpList@@UEAAPEAXI@Z 000000014005f2f4 f i * CIL library *:* CIL module *
 0001:0005e2f4       ??_GCDlgTagJumpList@@UEAAPEAXI@Z 000000014005f2f4 f i CDlgTagJumpList.obj
 0001:0005e328       ??1CDlgTagJumpList@@UEAA@XZ 000000014005f328 f   CDlgTagJumpList.obj
 0001:0005e40c       ?StopTimer@CDlgTagJumpList@@AEAAXXZ 000000014005f40c f   CDlgTagJumpList.obj
 0001:0005e43c       ?StartTimer@CDlgTagJumpList@@AEAAXH@Z 000000014005f43c f   CDlgTagJumpList.obj
 0001:0005e478       ?Empty@CDlgTagJumpList@@AEAAXXZ 000000014005f478 f   CDlgTagJumpList.obj
 0001:0005e488       ?DoModal@CDlgTagJumpList@@QEAAHPEAUHINSTANCE__@@PEAUHWND__@@_J@Z 000000014005f488 f   CDlgTagJumpList.obj
 0001:0005e4c0       ?SetData@CDlgTagJumpList@@EEAAXXZ 000000014005f4c0 f   CDlgTagJumpList.obj
 0001:0005e69c       ?UpdateData@CDlgTagJumpList@@AEAAX_N@Z 000000014005f69c f   CDlgTagJumpList.obj
 0001:0005ea28       ?GetData@CDlgTagJumpList@@EEAAHXZ 000000014005fa28 f   CDlgTagJumpList.obj
 0001:0005eb4c       ?OnInitDialog@CDlgTagJumpList@@MEAAHPEAUHWND__@@_K_J@Z 000000014005fb4c f   CDlgTagJumpList.obj
 0001:0005ef5c       ?OnDestroy@CDlgTagJumpList@@MEAAHXZ 000000014005ff5c f   CDlgTagJumpList.obj
 0001:0005efa8       ?OnBnClicked@CDlgTagJumpList@@MEAAHH@Z 000000014005ffa8 f   CDlgTagJumpList.obj
 0001:0005f0dc       ?DispatchEvent@CDlgTagJumpList@@MEAA_JPEAUHWND__@@I_K_J@Z 00000001400600dc f   CDlgTagJumpList.obj
 0001:0005f124       ?OnSize@CDlgTagJumpList@@MEAAH_K_J@Z 0000000140060124 f   CDlgTagJumpList.obj
 0001:0005f204       ?OnMinMaxInfo@CDlgTagJumpList@@IEAAH_J@Z 0000000140060204 f   CDlgTagJumpList.obj
 0001:0005f234       ?OnNotify@CDlgTagJumpList@@MEAAHPEAUtagNMHDR@@@Z 0000000140060234 f   CDlgTagJumpList.obj
 0001:0005f290       ?OnTimer@CDlgTagJumpList@@MEAAH_K@Z 0000000140060290 f   CDlgTagJumpList.obj
 0001:0005f2b4       ?OnCbnEditChange@CDlgTagJumpList@@MEAAHPEAUHWND__@@H@Z 00000001400602b4 f   CDlgTagJumpList.obj
 0001:0005f2b4       ?OnCbnSelChange@CDlgTagJumpList@@MEAAHPEAUHWND__@@H@Z 00000001400602b4 f   CDlgTagJumpList.obj
 0001:0005f2cc       ?GetHelpIdTable@CDlgTagJumpList@@MEAAPEAXXZ 00000001400602cc f   CDlgTagJumpList.obj
 0001:0005f2d4       ?GetSelectedFullPathAndLine@CDlgTagJumpList@@QEAA_NPEA_WHPEAH1@Z 00000001400602d4 f   CDlgTagJumpList.obj
 0001:0005f314       ?GetFullPathAndLine@CDlgTagJumpList@@AEAA_NHPEA_WHPEAH1@Z 0000000140060314 f   CDlgTagJumpList.obj
 0001:0005f460       ?GetNameByType@CDlgTagJumpList@@AEAAPEA_W_WPEB_W@Z 0000000140060460 f   CDlgTagJumpList.obj
 0001:0005f578       ?SetFileName@CDlgTagJumpList@@QEAAXPEB_W@Z 0000000140060578 f   CDlgTagJumpList.obj
 0001:0005f5c0       ?SetKeyword@CDlgTagJumpList@@QEAAXPEB_W@Z 00000001400605c0 f   CDlgTagJumpList.obj
 0001:0005f600       ?SearchBestTag@CDlgTagJumpList@@AEAAHXZ 0000000140060600 f   CDlgTagJumpList.obj
 0001:0005fa80       ?FindNext@CDlgTagJumpList@@AEAAX_N@Z 0000000140060a80 f   CDlgTagJumpList.obj
 0001:0005fb80       ?FindDirectTagJump@CDlgTagJumpList@@QEAAHXZ 0000000140060b80 f   CDlgTagJumpList.obj
 0001:0005fbb8       ?find_key@CDlgTagJumpList@@AEAAXPEB_W@Z 0000000140060bb8 f   CDlgTagJumpList.obj
 0001:0005fc9c       ?find_key_core@CDlgTagJumpList@@AEAAHHPEB_W_N111H@Z 0000000140060c9c f   CDlgTagJumpList.obj
 0001:00060250       ?ReadTagsParameter@CDlgTagJumpList@@AEAA_NPEAU_iobuf@@_NPEAUSTagFindState@1@AEAVCSortedTagJumpList@@PEAHPEA_N55PEA_W4@Z 0000000140061250 f   CDlgTagJumpList.obj
 0001:000605b4       ?parseTagsLine@CDlgTagJumpList@@AEAA_NQEAY0EAA@DPEADPEAHH@Z 00000001400615b4 f   CDlgTagJumpList.obj
 0001:00060650       ?find_key_for_BinarySearch@CDlgTagJumpList@@AEAAXPEAU_iobuf@@PEBDHPEAUSTagFindState@1@PEBUSTagSearchRule@1@@Z 0000000140061650 f   CDlgTagJumpList.obj
 0001:000608f0       ?find_key_for_LinearSearch@CDlgTagJumpList@@AEAAXPEAU_iobuf@@PEBDHPEAUSTagFindState@1@PEBUSTagSearchRule@1@_N4H@Z 00000001400618f0 f   CDlgTagJumpList.obj
 0001:00060af4       ?GetFileName@CDlgTagJumpList@@AEAAPEB_WXZ 0000000140061af4 f   CDlgTagJumpList.obj
 0001:00060b10       ?SetTextDir@CDlgTagJumpList@@AEAAXXZ 0000000140061b10 f   CDlgTagJumpList.obj
 0001:00060c10       ?CalcMaxUpDirectory@CDlgTagJumpList@@SAHPEB_W@Z 0000000140061c10 f   CDlgTagJumpList.obj
 0001:00060c34       ?GetFullPathFromDepth@CDlgTagJumpList@@CAPEA_WPEA_WH0PEB_WH@Z 0000000140061c34 f   CDlgTagJumpList.obj
 0001:00060ce0       ?CopyDirDir@CDlgTagJumpList@@CAPEA_WPEA_WPEB_W1@Z 0000000140061ce0 f   CDlgTagJumpList.obj
 0001:00060d3c       ?DirUp@CDlgTagJumpList@@SAPEA_WPEA_W@Z 0000000140061d3c f   CDlgTagJumpList.obj
 0001:00060d6c       ??$strncmp_literal@$0M@@@YAHPEBDAEAY0M@$$CBD@Z 0000000140061d6c f i CDlgTagJumpList.obj
 0001:00060d78       ??$strncmp_literal@$0O@@@YAHPEBDAEAY0O@$$CBD@Z 0000000140061d78 f i CDlgTagJumpList.obj
 0001:00060d84       ??$strncmp_literal@$0P@@@YAHPEBDAEAY0P@$$CBD@Z 0000000140061d84 f i CDlgTagJumpList.obj
 0001:00060d98       sscanf                     0000000140061d98 f i CDlgTagJumpList.obj
 0001:00060de4       ??0CDlgTagsMake@@QEAA@XZ   0000000140061de4 f   CDlgTagsMake.obj
 0001:00060e14       ??_ECDlgTagsMake@@UEAAPEAXI@Z 0000000140061e14 f i * CIL library *:* CIL module *
 0001:00060e14       ??_GCDlgTagsMake@@UEAAPEAXI@Z 0000000140061e14 f i CDlgTagsMake.obj
 0001:00060e48       ?DoModal@CDlgTagsMake@@QEAAHPEAUHINSTANCE__@@PEAUHWND__@@_JPEB_W@Z 0000000140061e48 f   CDlgTagsMake.obj
 0001:00060e98       ?OnBnClicked@CDlgTagsMake@@MEAAHH@Z 0000000140061e98 f   CDlgTagsMake.obj
 0001:00060f98       ?SelectFolder@CDlgTagsMake@@AEAAXPEAUHWND__@@@Z 0000000140061f98 f   CDlgTagsMake.obj
 0001:00061028       ?SetData@CDlgTagsMake@@MEAAXXZ 0000000140062028 f   CDlgTagsMake.obj
 0001:000610f0       ?GetData@CDlgTagsMake@@MEAAHXZ 00000001400620f0 f   CDlgTagsMake.obj
 0001:000611b0       ?GetHelpIdTable@CDlgTagsMake@@MEAAPEAXXZ 00000001400621b0 f   CDlgTagsMake.obj
 0001:000611b8       ??0CDlgWindowList@@QEAA@XZ 00000001400621b8 f   CDlgWindowList.obj
 0001:000611f4       ??_ECDlgWindowList@@UEAAPEAXI@Z 00000001400621f4 f i * CIL library *:* CIL module *
 0001:000611f4       ??_GCDlgWindowList@@UEAAPEAXI@Z 00000001400621f4 f i CDlgWindowList.obj
 0001:00061228       ?DoModal@CDlgWindowList@@QEAAHPEAUHINSTANCE__@@PEAUHWND__@@_J@Z 0000000140062228 f   CDlgWindowList.obj
 0001:0006124c       ?OnBnClicked@CDlgWindowList@@MEAAHH@Z 000000014006224c f   CDlgWindowList.obj
 0001:000612d0       ?GetDataListView@CDlgWindowList@@IEAAXAEAV?$vector@PEAUHWND__@@V?$allocator@PEAUHWND__@@@std@@@std@@@Z 00000001400622d0 f   CDlgWindowList.obj
 0001:000613fc       ?CommandSave@CDlgWindowList@@IEAAXXZ 00000001400623fc f   CDlgWindowList.obj
 0001:000614fc       ?CommandClose@CDlgWindowList@@IEAAXXZ 00000001400624fc f   CDlgWindowList.obj
 0001:000615f8       ?SetData@CDlgWindowList@@MEAAXXZ 00000001400625f8 f   CDlgWindowList.obj
 0001:000617f8       ?GetHelpIdTable@CDlgWindowList@@MEAAPEAXXZ 00000001400627f8 f   CDlgWindowList.obj
 0001:00061800       ?DispatchEvent@CDlgWindowList@@MEAA_JPEAUHWND__@@I_K_J@Z 0000000140062800 f   CDlgWindowList.obj
 0001:00061848       ?OnInitDialog@CDlgWindowList@@MEAAHPEAUHWND__@@_K_J@Z 0000000140062848 f   CDlgWindowList.obj
 0001:00061a10       ?OnDestroy@CDlgWindowList@@MEAAHXZ 0000000140062a10 f   CDlgWindowList.obj
 0001:00061a5c       ?OnSize@CDlgWindowList@@MEAAH_K_J@Z 0000000140062a5c f   CDlgWindowList.obj
 0001:00061b38       ?OnMinMaxInfo@CDlgWindowList@@IEAAH_J@Z 0000000140062b38 f   CDlgWindowList.obj
 0001:00061b64       ?OnActivate@CDlgWindowList@@MEAAH_K_J@Z 0000000140062b64 f   CDlgWindowList.obj
 0001:00061b8c       ??0CDlgWinSize@@QEAA@XZ    0000000140062b8c f   CDlgWinSize.obj
 0001:00061bac       ??_ECDlgWinSize@@UEAAPEAXI@Z 0000000140062bac f i * CIL library *:* CIL module *
 0001:00061bac       ??_GCDlgWinSize@@UEAAPEAXI@Z 0000000140062bac f i CDlgWinSize.obj
 0001:00061be0       ??1CDlgWinSize@@UEAA@XZ    0000000140062be0 f   CDlgWinSize.obj
 0001:00061bf0       ?DoModal@CDlgWinSize@@QEAAHPEAUHINSTANCE__@@PEAUHWND__@@AEAW4EWinSizeMode@@2AEAHAEAUtagRECT@@@Z 0000000140062bf0 f   CDlgWinSize.obj
 0001:00061c80       ?OnInitDialog@CDlgWinSize@@MEAAHPEAUHWND__@@_K_J@Z 0000000140062c80 f   CDlgWinSize.obj
 0001:00061df8       ?OnBnClicked@CDlgWinSize@@MEAAHH@Z 0000000140062df8 f   CDlgWinSize.obj
 0001:00061ea4       ?OnEnSetFocus@CDlgWinSize@@MEAAHPEAUHWND__@@H@Z 0000000140062ea4 f   CDlgWinSize.obj
 0001:00061ed0       ?OnEnKillFocus@CDlgWinSize@@MEAAHPEAUHWND__@@H@Z 0000000140062ed0 f   CDlgWinSize.obj
 0001:00061efc       ?SetData@CDlgWinSize@@MEAAXXZ 0000000140062efc f   CDlgWinSize.obj
 0001:00062024       ?GetData@CDlgWinSize@@MEAAHXZ 0000000140063024 f   CDlgWinSize.obj
 0001:00062180       ?RenewItemState@CDlgWinSize@@IEAAXXZ 0000000140063180 f   CDlgWinSize.obj
 0001:00062254       ?GetHelpIdTable@CDlgWinSize@@MEAAPEAXXZ 0000000140063254 f   CDlgWinSize.obj
 0001:0006225c       ?IsBookmarked@CBookmarkGetter@@QEBA_NXZ 000000014006325c f   CBookmarkManager.obj
 0001:00062264       ?SetBookmark@CBookmarkSetter@@QEAAX_N@Z 0000000140063264 f   CBookmarkManager.obj
 0001:0006226c       ?ResetAllBookMark@CBookmarkManager@@QEAAXXZ 000000014006326c f   CBookmarkManager.obj
 0001:0006229c       ?SearchBookMark@CBookmarkManager@@QEAA_NHW4ESearchDirection@@PEAH@Z 000000014006329c f   CBookmarkManager.obj
 0001:00062328       ?SetBookMarks@CBookmarkManager@@QEAAXPEA_W@Z 0000000140063328 f   CBookmarkManager.obj
 0001:000624b4       ?GetBookMarks@CBookmarkManager@@QEAAPEB_WXZ 00000001400634b4 f   CBookmarkManager.obj
 0001:0006264c       ?MarkSearchWord@CBookmarkManager@@QEAAXAEBVCSearchStringPattern@@@Z 000000014006364c f   CBookmarkManager.obj
 0001:00062858       ??0CTypeSupport@@QEAA@PEBVCEditView@@W4EColorIndexType@@@Z 0000000140063858 f i CDiffManager.obj
 0001:000628d0       ??1CTypeSupport@@UEAA@XZ   00000001400638d0 f i CDiffManager.obj
 0001:00062918       ??_ECTypeSupport@@UEAAPEAXI@Z 0000000140063918 f i * CIL library *:* CIL module *
 0001:00062918       ??_GCTypeSupport@@UEAAPEAXI@Z 0000000140063918 f i CDiffManager.obj
 0001:00062984       ?GetLineDiffMark@CDiffLineGetter@@QEBA?AW4EDiffMark@@XZ 0000000140063984 f   CDiffManager.obj
 0001:0006298c       ?GetDiffColor@CDiffLineGetter@@QEBA_NPEAW4EColorIndexType@@@Z 000000014006398c f   CDiffManager.obj
 0001:00062a1c       ?DrawDiffMark@CDiffLineGetter@@QEBA_NAEAVCGraphics@@HHK@Z 0000000140063a1c f   CDiffManager.obj
 0001:00062ba8       ?SetLineDiffMark@CDiffLineSetter@@QEAAXW4EDiffMark@@@Z 0000000140063ba8 f   CDiffManager.obj
 0001:00062bb0       ?ResetAllDiffMark@CDiffLineMgr@@QEAAXXZ 0000000140063bb0 f   CDiffManager.obj
 0001:00062c14       ?SearchDiffMark@CDiffLineMgr@@QEAA_NHW4ESearchDirection@@PEAH@Z 0000000140063c14 f   CDiffManager.obj
 0001:00062ca0       ?SetDiffMarkRange@CDiffLineMgr@@QEAAXW4EDiffMark@@HH@Z 0000000140063ca0 f   CDiffManager.obj
 0001:00062d70       ?GetLineFuncList@CFuncListManager@@QEBA_NPEBVCDocLine@@@Z 0000000140063d70 f   CFuncListManager.obj
 0001:00062d74       ?SetLineFuncList@CFuncListManager@@QEAAXPEAVCDocLine@@_N@Z 0000000140063d74 f   CFuncListManager.obj
 0001:00062d7c       ?SearchFuncListMark@CFuncListManager@@QEBA_NPEBVCDocLineMgr@@HW4ESearchDirection@@PEAH@Z 0000000140063d7c f   CFuncListManager.obj
 0001:00062df8       ?ResetAllFucListMark@CFuncListManager@@QEAAXPEAVCDocLineMgr@@_N@Z 0000000140063df8 f   CFuncListManager.obj
 0001:00062e20       ?OnAfterSave@CModifyManager@@UEAAXAEBUSSaveInfo@@@Z 0000000140063e20 f   CModifyManager.obj
 0001:00062e40       ?IsLineModified@CModifyVisitor@@QEBA_NPEBVCDocLine@@H@Z 0000000140063e40 f   CModifyManager.obj
 0001:00062e48       ?GetLineModifiedSeq@CModifyVisitor@@QEBAHPEBVCDocLine@@@Z 0000000140063e48 f   CModifyManager.obj
 0001:00062e4c       ?SetLineModified@CModifyVisitor@@QEAAXPEAVCDocLine@@H@Z 0000000140063e4c f   CModifyManager.obj
 0001:00062e54       ?ResetAllModifyFlag@CModifyVisitor@@QEAAXPEAVCDocLineMgr@@H@Z 0000000140063e54 f   CModifyManager.obj
 0001:00062e78       ??0CBlockComment@@QEAA@XZ  0000000140063e78 f   CBlockComment.obj
 0001:00062e8c       ?SetBlockCommentRule@CBlockComment@@QEAAXPEB_W0@Z 0000000140063e8c f   CBlockComment.obj
 0001:00062f24       ?Match_CommentFrom@CBlockComment@@QEBA_NHAEBVCStringRef@@@Z 0000000140063f24 f   CBlockComment.obj
 0001:00062f6c       ?Match_CommentTo@CBlockComment@@QEBAHHAEBVCStringRef@@@Z 0000000140063f6c f   CBlockComment.obj
 0001:00062fe8       ??0CDocEditor@@QEAA@PEAVCEditDoc@@@Z 0000000140063fe8 f   CDocEditor.obj
 0001:00063044       ??_ECDocEditor@@UEAAPEAXI@Z 0000000140064044 f i * CIL library *:* CIL module *
 0001:00063044       ??_GCDocEditor@@UEAAPEAXI@Z 0000000140064044 f i CDocEditor.obj
 0001:00063084       ??1CDocEditor@@UEAA@XZ     0000000140064084 f i CDocEditor.obj
 0001:000630a4       ?SetModified@CDocEditor@@QEAAX_N0@Z 00000001400640a4 f   CDocEditor.obj
 0001:000630fc       ?OnBeforeLoad@CDocEditor@@UEAAXPEAUSLoadInfo@@@Z 00000001400640fc f   CDocEditor.obj
 0001:00063114       ?OnAfterLoad@CDocEditor@@UEAAXAEBUSLoadInfo@@@Z 0000000140064114 f   CDocEditor.obj
 0001:00063238       ?OnAfterSave@CDocEditor@@UEAAXAEBUSSaveInfo@@@Z 0000000140064238 f   CDocEditor.obj
 0001:0006329c       ?SetImeMode@CDocEditor@@QEAAXH@Z 000000014006429c f   CDocEditor.obj
 0001:0006339c       ?IsEnablePaste@CDocEditor@@QEBA_NXZ 000000014006439c f   CDocEditor.obj
 0001:000633a4       ?AddLineStrX@CDocEditAgent@@QEAAXPEB_WH@Z 00000001400643a4 f   CDocEditor.obj
 0001:000633e4       ?GetSaveFilePath@CDocFile@@QEBAPEB_WXZ 00000001400643e4 f   CDocFile.obj
 0001:000633f8       ?what@CFlowInterruption@@UEBAPEBDXZ 00000001400643f8 f i CDocFileOperation.obj
 0001:00063400       ?_ToDoLock@CDocFileOperation@@QEBA_NXZ 0000000140064400 f   CDocFileOperation.obj
 0001:00063438       ?DoFileLock@CDocFileOperation@@QEAAX_N@Z 0000000140064438 f   CDocFileOperation.obj
 0001:0006347c       ?DoFileUnlock@CDocFileOperation@@QEAAXXZ 000000014006447c f   CDocFileOperation.obj
 0001:0006348c       ?OpenFileDialog@CDocFileOperation@@QEAA_NPEAUHWND__@@PEB_WPEAUSLoadInfo@@AEAV?$vector@V?$basic_string@_WU?$char_traits@_W@std@@V?$allocator@_W@2@@std@@V?$allocator@V?$basic_string@_WU?$char_traits@_W@std@@V?$allocator@_W@2@@std@@@2@@std@@@Z 000000014006448c f   CDocFileOperation.obj
 0001:000636b4       ?DoLoadFlow@CDocFileOperation@@QEAA_NPEAUSLoadInfo@@@Z 00000001400646b4 f   CDocFileOperation.obj
 0001:00063758       ??0CFlowInterruption@@QEAA@XZ 0000000140064758 f i CDocFileOperation.obj
 0001:00063770       ??0CFlowInterruption@@QEAA@AEBV0@@Z 0000000140064770 f i CDocFileOperation.obj
 0001:000637ac       ?FileLoad@CDocFileOperation@@QEAA_NPEAUSLoadInfo@@@Z 00000001400647ac f   CDocFileOperation.obj
 0001:0006380c       ?FileLoadWithoutAutoMacro@CDocFileOperation@@QEAA_NPEAUSLoadInfo@@@Z 000000014006480c f   CDocFileOperation.obj
 0001:00063814       ?ReloadCurrentFile@CDocFileOperation@@QEAAXW4ECodeType@@@Z 0000000140064814 f   CDocFileOperation.obj
 0001:00063b0c       ?SaveFileDialog@CDocFileOperation@@QEAA_NPEAUSSaveInfo@@@Z 0000000140064b0c f   CDocFileOperation.obj
 0001:00063fa0       ?SaveFileDialog@CDocFileOperation@@QEAA_NPEA_W@Z 0000000140064fa0 f   CDocFileOperation.obj
 0001:000640c4       ?DoSaveFlow@CDocFileOperation@@QEAA_NPEAUSSaveInfo@@@Z 00000001400650c4 f   CDocFileOperation.obj
 0001:000642a8       ?FileSave@CDocFileOperation@@QEAA_NXZ 00000001400652a8 f   CDocFileOperation.obj
 0001:0006434c       ?FileSaveAs@CDocFileOperation@@QEAA_NPEB_WW4ECodeType@@W4EEolType@@_N@Z 000000014006534c f   CDocFileOperation.obj
 0001:0006458c       ?FileClose@CDocFileOperation@@QEAA_NXZ 000000014006558c f   CDocFileOperation.obj
 0001:00064664       ?FileCloseOpen@CDocFileOperation@@QEAAXAEBUSLoadInfo@@@Z 0000000140065664 f   CDocFileOperation.obj
 0001:00064a74       ?IsSamePath@SLoadInfo@@QEBA_NPEB_W@Z 0000000140065a74 f   CDocListener.obj
 0001:00064a74       ?IsSamePath@SSaveInfo@@QEBA_NPEB_W@Z 0000000140065a74 f   CDocListener.obj
 0001:00064a88       ??1CDocSubject@@UEAA@XZ    0000000140065a88 f   CDocListener.obj
 0001:00064a98       ??_ECDocSubject@@UEAAPEAXI@Z 0000000140065a98 f i * CIL library *:* CIL module *
 0001:00064a98       ??_GCDocSubject@@UEAAPEAXI@Z 0000000140065a98 f i CDocListener.obj
 0001:00064acc       ?NotifyCheckLoad@CDocSubject@@QEAA?AW4ECallbackResult@@PEAUSLoadInfo@@@Z 0000000140065acc f   CDocListener.obj
 0001:00064b30       ?NotifyBeforeLoad@CDocSubject@@QEAAXPEAUSLoadInfo@@@Z 0000000140065b30 f   CDocListener.obj
 0001:00064b90       ?NotifyLoad@CDocSubject@@QEAA?AW4ELoadResult@@AEBUSLoadInfo@@@Z 0000000140065b90 f   CDocListener.obj
 0001:00064c14       ?NotifyAfterLoad@CDocSubject@@QEAAXAEBUSLoadInfo@@@Z 0000000140065c14 f   CDocListener.obj
 0001:00064c74       ?NotifyFinalLoad@CDocSubject@@QEAAXW4ELoadResult@@@Z 0000000140065c74 f   CDocListener.obj
 0001:00064cd0       ?NotifyCheckSave@CDocSubject@@QEAA?AW4ECallbackResult@@PEAUSSaveInfo@@@Z 0000000140065cd0 f   CDocListener.obj
 0001:00064d34       ?NotifyPreBeforeSave@CDocSubject@@QEAA?AW4ECallbackResult@@PEAUSSaveInfo@@@Z 0000000140065d34 f   CDocListener.obj
 0001:00064d98       ?NotifyBeforeSave@CDocSubject@@QEAAXAEBUSSaveInfo@@@Z 0000000140065d98 f   CDocListener.obj
 0001:00064df8       ?NotifySave@CDocSubject@@QEAAXAEBUSSaveInfo@@@Z 0000000140065df8 f   CDocListener.obj
 0001:00064e58       ?NotifyAfterSave@CDocSubject@@QEAAXAEBUSSaveInfo@@@Z 0000000140065e58 f   CDocListener.obj
 0001:00064eb8       ?NotifyFinalSave@CDocSubject@@QEAAXW4ESaveResult@@@Z 0000000140065eb8 f   CDocListener.obj
 0001:00064f14       ?NotifyBeforeClose@CDocSubject@@QEAA?AW4ECallbackResult@@XZ 0000000140065f14 f   CDocListener.obj
 0001:00064f68       ??0CDocListener@@QEAA@PEAVCDocSubject@@@Z 0000000140065f68 f   CDocListener.obj
 0001:00064fc0       ??1?$CListenerT@VCDocSubject@@@@UEAA@XZ 0000000140065fc0 f i CDocListener.obj
 0001:00064fc8       ??1CDocListener@@UEAA@XZ   0000000140065fc8 f   CDocListener.obj
 0001:00064fd8       ?GetListeningDoc@CDocListenerEx@@QEBAPEAVCEditDoc@@XZ 0000000140065fd8 f   CDocListener.obj
 0001:00064fd8       ?_Getmark@?$_Builder@PEB_W_WV?$regex_traits@_W@std@@@std@@QEBAPEAV_Node_base@2@XZ 0000000140065fd8 f   file.obj
 0001:00064fe0       ?NotifyProgress@CProgressSubject@@QEAAXH@Z 0000000140065fe0 f   CDocListener.obj
 0001:0006503c       ??0CDocLocker@@QEAA@XZ     000000014006603c f   CDocLocker.obj
 0001:00065064       ??_ECDocLocker@@UEAAPEAXI@Z 0000000140066064 f i * CIL library *:* CIL module *
 0001:00065064       ??_GCDocLocker@@UEAAPEAXI@Z 0000000140066064 f i CDocLocker.obj
 0001:00065098       ?OnAfterLoad@CDocLocker@@UEAAXAEBUSLoadInfo@@@Z 0000000140066098 f   CDocLocker.obj
 0001:000650ec       ?OnBeforeSave@CDocLocker@@UEAAXAEBUSSaveInfo@@@Z 00000001400660ec f   CDocLocker.obj
 0001:00065108       ?OnAfterSave@CDocLocker@@UEAAXAEBUSSaveInfo@@@Z 0000000140066108 f   CDocLocker.obj
 0001:00065128       ?CheckWritable@CDocLocker@@QEAAX_N@Z 0000000140066128 f   CDocLocker.obj
 0001:000651e0       ?Good@CStream@@UEBA_NXZ    00000001400661e0 f i CDocOutline.obj
 0001:00065204       ?ReadRuleFile@CDocOutline@@QEAAHPEB_WPEAUSOneRule@@HAEA_NAEAV?$basic_string@_WU?$char_traits@_W@std@@V?$allocator@_W@2@@std@@@Z 0000000140066204 f   CDocOutline.obj
 0001:00065960       ?MakeFuncList_RuleFile@CDocOutline@@QEAAXPEAVCFuncInfoArr@@AEAV?$basic_string@_WU?$char_traits@_W@std@@V?$allocator@_W@2@@std@@@Z 0000000140066960 f   CDocOutline.obj
 0001:000662cc       ??_ECBregexp@@UEAAPEAXI@Z  00000001400672cc f i CDocOutline.obj
 0001:00066348       ?MakeFuncList_BookMark@CDocOutline@@QEAAXPEAVCFuncInfoArr@@@Z 0000000140067348 f   CDocOutline.obj
 0001:00066604       ??$wcsnicmp_literal@$0N@@@YAHPEB_WAEAY0N@$$CB_W@Z 0000000140067604 f i CDocOutline.obj
 0001:00066610       ??$wcsnicmp_literal@$06@@YAHPEB_WAEAY06$$CB_W@Z 0000000140067610 f i CDocOutline.obj
 0001:0006661c       ?GetLineStrWithoutEOL@CDocReader@@QEAAPEB_WHPEAH@Z 000000014006761c f   CDocReader.obj
 0001:00066658       ??0CDocType@@QEAA@PEAVCEditDoc@@@Z 0000000140067658 f   CDocType.obj
 0001:00066698       ?SetDocumentType@CDocType@@QEAAXVCTypeConfig@@_N1@Z 0000000140067698 f   CDocType.obj
 0001:0006687c       ?SetDocumentTypeIdx@CDocType@@QEAAXH_N@Z 000000014006787c f   CDocType.obj
 0001:000668dc       ?SetDocumentIcon@CDocType@@QEAAXXZ 00000001400678dc f   CDocType.obj
 0001:00066964       ?GetDefaultColorInfo@@YAXPEAUColorInfo@@H@Z 0000000140067964 f   CDocTypeSetting.obj
 0001:000669ac       ?GetDefaultColorInfoName@@YAXPEAUColorInfo@@H@Z 00000001400679ac f   CDocTypeSetting.obj
 0001:000669dc       ?SetAllEol@CDocVisitor@@QEAAXVCEol@@@Z 00000001400679dc f   CDocVisitor.obj
 0001:00066d00       ??_ECDocFile@@UEAAPEAXI@Z  0000000140067d00 f i * CIL library *:* CIL module *
 0001:00066d00       ??_GCDocFile@@UEAAPEAXI@Z  0000000140067d00 f i CEditDoc.obj
 0001:00066d34       ??1CDocFile@@UEAA@XZ       0000000140067d34 f i CEditDoc.obj
 0001:00066d3c       ??0CEditDoc@@QEAA@PEAVCEditApp@@@Z 0000000140067d3c f   CEditDoc.obj
 0001:00067130       ??_ECEditDoc@@UEAAPEAXI@Z  0000000140068130 f i * CIL library *:* CIL module *
 0001:00067130       ??_GCEditDoc@@UEAAPEAXI@Z  0000000140068130 f i CEditDoc.obj
 0001:00067164       ??1CCookieManager@@QEAA@XZ 0000000140068164 f i CEditDoc.obj
 0001:00067184       ??1CEditDoc@@UEAA@XZ       0000000140068184 f   CEditDoc.obj
 0001:0006725c       ?Clear@CEditDoc@@QEAAXXZ   000000014006825c f   CEditDoc.obj
 0001:00067414       ?InitDoc@CEditDoc@@QEAAXXZ 0000000140068414 f   CEditDoc.obj
 0001:000674e4       ?SetBackgroundImage@CEditDoc@@QEAAXXZ 00000001400684e4 f   CEditDoc.obj
 0001:00067838       ?InitAllView@CEditDoc@@QEAAXXZ 0000000140068838 f   CEditDoc.obj
 0001:00067894       ?Create@CEditDoc@@QEAAHXZ  0000000140068894 f   CEditDoc.obj
 0001:000678cc       ?SetFilePathAndIcon@CEditDoc@@QEAAXPEB_W@Z 00000001400688cc f   CEditDoc.obj
 0001:00067954       ?GetDocumentEncoding@CEditDoc@@QEBA?AW4ECodeType@@XZ 0000000140068954 f   CEditDoc.obj
 0001:0006795c       ?GetDocumentBomExist@CEditDoc@@QEBA_NXZ 000000014006895c f   CEditDoc.obj
 0001:00067964       ?SetDocumentEncoding@CEditDoc@@QEAAXW4ECodeType@@_N@Z 0000000140068964 f   CEditDoc.obj
 0001:000679d4       ?GetSaveInfo@CEditDoc@@QEBAXPEAUSSaveInfo@@@Z 00000001400689d4 f   CEditDoc.obj
 0001:00067adc       ?GetEditInfo@CEditDoc@@QEBAXPEAUEditInfo@@@Z 0000000140068adc f   CEditDoc.obj
 0001:00067bc8       ?IsModificationForbidden@CEditDoc@@QEBA_NW4EFunctionCode@@@Z 0000000140068bc8 f   CEditDoc.obj
 0001:00067c40       ?IsAcceptLoad@CEditDoc@@QEBA_NXZ 0000000140068c40 f   CEditDoc.obj
 0001:00067c7c       ?HandleCommand@CEditDoc@@QEAAHW4EFunctionCode@@@Z 0000000140068c7c f   CEditDoc.obj
 0001:00067d44       ?OnChangeType@CEditDoc@@QEAAXXZ 0000000140068d44 f   CEditDoc.obj
 0001:00067e10       ?OnChangeSetting@CEditDoc@@QEAAX_N00@Z 0000000140068e10 f   CEditDoc.obj
 0001:0006832c       ?OnFileClose@CEditDoc@@QEAAH_N@Z 000000014006932c f   CEditDoc.obj
 0001:000686c4       ?RunAutoMacro@CEditDoc@@QEAAXHPEB_W@Z 00000001400696c4 f   CEditDoc.obj
 0001:000687a0       ?SetCurDirNotitle@CEditDoc@@QEAAXXZ 00000001400697a0 f   CEditDoc.obj
 0001:00068938       ??1?$TInstanceHolder@VCEditDoc@@@@MEAA@XZ 0000000140069938 f i CEditDoc.obj
 0001:000689a8       ??_E?$TInstanceHolder@VCEditDoc@@@@MEAAPEAXI@Z 00000001400699a8 f i * CIL library *:* CIL module *
 0001:000689a8       ??_G?$TInstanceHolder@VCEditDoc@@@@MEAAPEAXI@Z 00000001400699a8 f i CEditDoc.obj
 0001:000689dc       ??$_Emplace_reallocate@PEAVCEditDoc@@@?$vector@PEAVCEditDoc@@V?$allocator@PEAVCEditDoc@@@std@@@std@@AEAAPEAPEAVCEditDoc@@QEAPEAV2@$$QEAPEAV2@@Z 00000001400699dc f i CEditDoc.obj
 0001:00068b6c       ??_ECEditDoc@@WCA@EAAPEAXI@Z 0000000140069b6c f i CEditDoc.obj
 0001:00068b78       ??0CLineComment@@QEAA@XZ   0000000140069b78 f   CLineComment.obj
 0001:00068ba4       ?CopyTo@CLineComment@@QEAAXHPEB_WH@Z 0000000140069ba4 f   CLineComment.obj
 0001:00068c1c       ?Match@CLineComment@@QEBA_NHAEBVCStringRef@@@Z 0000000140069c1c f   CLineComment.obj
 0001:00068cbc       ?GetLayoutXOfChar@CLayoutMgr@@QEBAHPEB_WHH@Z 0000000140069cbc f i CLayout.obj
 0001:00068d48       ??1CLayout@@QEAA@XZ        0000000140069d48 f   CLayout.obj
 0001:00068d64       ?CalcLayoutWidth@CLayout@@QEBAHAEBVCLayoutMgr@@@Z 0000000140069d64 f   CLayout.obj
 0001:00068e98       ??_ECViewFont@@UEAAPEAXI@Z 0000000140069e98 f i * CIL library *:* CIL module *
 0001:00068e98       ??_GCViewFont@@UEAAPEAXI@Z 0000000140069e98 f i CLayoutMgr.obj
 0001:00068ed8       ?ScaleY@CDPI@@SAHH@Z       0000000140069ed8 f i CLayoutMgr.obj
 0001:00068f54       ??0CLayoutMgr@@QEAA@XZ     0000000140069f54 f   CLayoutMgr.obj
 0001:00069070       ??_ECLayoutMgr@@UEAAPEAXI@Z 000000014006a070 f i * CIL library *:* CIL module *
 0001:00069070       ??_GCLayoutMgr@@UEAAPEAXI@Z 000000014006a070 f i CLayoutMgr.obj
 0001:000690a4       ??1?$_Bt_state_t@PEB_W@std@@QEAA@XZ 000000014006a0a4 f i file.obj
 0001:000690a4       ??1?$_Bt_state_t@V?$_String_const_iterator@V?$_String_val@U?$_Simple_types@_W@std@@@std@@@std@@@std@@QEAA@XZ 000000014006a0a4 f i shell.obj
 0001:000690a4       ??1CTsvModeInfo@@QEAA@XZ   000000014006a0a4 f i CLayoutMgr.obj
 0001:00069104       ??1CLayoutMgr@@UEAA@XZ     000000014006a104 f   CLayoutMgr.obj
 0001:00069308       ?Create@CLayoutMgr@@QEAAXPEAVCEditDoc@@PEAVCDocLineMgr@@@Z 000000014006a308 f   CLayoutMgr.obj
 0001:00069348       ?Init@CLayoutMgr@@QEAAXXZ  000000014006a348 f   CLayoutMgr.obj
 0001:00069378       ?_Empty@CLayoutMgr@@QEAAXXZ 000000014006a378 f   CLayoutMgr.obj
 0001:000693d0       ?SetLayoutInfo@CLayoutMgr@@QEAAX_N0AEBUSTypeConfig@@HHHHPEBUtagLOGFONTW@@AEAVCCharWidthCache@@@Z 000000014006a3d0 f   CLayoutMgr.obj
 0001:000696dc       ?SearchLineByLayoutY@CLayoutMgr@@QEBAPEBVCLayout@@H@Z 000000014006a6dc f   CLayoutMgr.obj
 0001:000697c8       ?AddLineBottom@CLayoutMgr@@IEAAXPEAVCLayout@@@Z 000000014006a7c8 f   CLayoutMgr.obj
 0001:00069800       ?InsertLineNext@CLayoutMgr@@IEAAPEAVCLayout@@PEAV2@0@Z 000000014006a800 f   CLayoutMgr.obj
 0001:00069878       ?CreateLayout@CLayoutMgr@@IEAAPEAVCLayout@@PEAVCDocLine@@V?$CStrictPoint@USLogicPoint@@HH@@HW4EColorIndexType@@HHPEAVCLayoutColorInfo@@@Z 000000014006a878 f   CLayoutMgr.obj
 0001:00069940       ?GetLineStr@CLayoutMgr@@QEBAPEB_WHPEAH@Z 000000014006a940 f   CLayoutMgr.obj
 0001:00069974       ?GetLineStr@CLayoutMgr@@QEBAPEB_WHPEAHPEAPEBVCLayout@@@Z 000000014006a974 f   CLayoutMgr.obj
 0001:000699b4       ?IsEndOfLine@CLayoutMgr@@QEAA_NAEBV?$CStrictPoint@USLayoutPoint@@HH@@@Z 000000014006a9b4 f   CLayoutMgr.obj
 0001:000699e4       ?GetEndLayoutPos@CLayoutMgr@@QEAAXPEAV?$CStrictPoint@USLayoutPoint@@HH@@@Z 000000014006a9e4 f   CLayoutMgr.obj
 0001:00069ae4       ?DeleteLayoutAsLogical@CLayoutMgr@@IEAAPEAVCLayout@@PEAV2@HHHV?$CStrictPoint@USLogicPoint@@HH@@PEAH@Z 000000014006aae4 f   CLayoutMgr.obj
 0001:00069c08       ?ShiftLogicalLineNum@CLayoutMgr@@IEAAXPEAVCLayout@@H@Z 000000014006ac08 f   CLayoutMgr.obj
 0001:00069c2c       ?ChangeLayoutParam@CLayoutMgr@@QEAA_NHHH@Z 000000014006ac2c f   CLayoutMgr.obj
 0001:00069c88       ?WhereCurrentWord@CLayoutMgr@@QEAA_NHHPEAV?$CRangeBase@V?$CStrictPoint@USLayoutPoint@@HH@@@@PEAVCNativeW@@1@Z 000000014006ac88 f   CLayoutMgr.obj
 0001:00069d7c       ?PrevOrNextWord@CLayoutMgr@@IEAAHHHPEAV?$CStrictPoint@USLayoutPoint@@HH@@HH@Z 000000014006ad7c f   CLayoutMgr.obj
 0001:00069e28       ?SearchWord@CLayoutMgr@@QEAAHHHW4ESearchDirection@@PEAV?$CRangeBase@V?$CStrictPoint@USLayoutPoint@@HH@@@@AEBVCSearchStringPattern@@@Z 000000014006ae28 f   CLayoutMgr.obj
 0001:00069f08       ?LogicToLayout@CLayoutMgr@@QEAAXAEBV?$CStrictPoint@USLogicPoint@@HH@@PEAV?$CStrictPoint@USLayoutPoint@@HH@@H@Z 000000014006af08 f   CLayoutMgr.obj
 0001:0006a214       ?LayoutToLogicEx@CLayoutMgr@@QEBAXAEBV?$CStrictPoint@USLayoutPoint@@HH@@PEAVCLogicPointEx@@@Z 000000014006b214 f   CLayoutMgr.obj
 0001:0006a47c       ?LayoutToLogic@CLayoutMgr@@QEBAXAEBV?$CStrictPoint@USLayoutPoint@@HH@@PEAV?$CStrictPoint@USLogicPoint@@HH@@@Z 000000014006b47c f   CLayoutMgr.obj
 0001:0006a4a8       ?do_is_equal@?$CPoolResource@VCDocLine@@@@MEBA_NAEBVmemory_resource@pmr@std@@@Z 000000014006b4a8 f i CDocLineMgr.obj
 0001:0006a4a8       ?do_is_equal@?$CPoolResource@VCLayout@@@@MEBA_NAEBVmemory_resource@pmr@std@@@Z 000000014006b4a8 f i CLayoutMgr.obj
 0001:0006a4b0       ?do_deallocate@?$CPoolResource@VCDocLine@@@@MEAAXPEAX_K1@Z 000000014006b4b0 f i CDocLineMgr.obj
 0001:0006a4b0       ?do_deallocate@?$CPoolResource@VCLayout@@@@MEAAXPEAX_K1@Z 000000014006b4b0 f i CLayoutMgr.obj
 0001:0006a4c4       ?do_allocate@?$CPoolResource@VCLayout@@@@MEAAPEAX_K0@Z 000000014006b4c4 f i CLayoutMgr.obj
 0001:0006a514       ??_E?$CPoolResource@VCLayout@@@@UEAAPEAXI@Z 000000014006b514 f i * CIL library *:* CIL module *
 0001:0006a514       ??_G?$CPoolResource@VCLayout@@@@UEAAPEAXI@Z 000000014006b514 f i CLayoutMgr.obj
 0001:0006a57c       ?AllocateBlock@?$CPoolResource@VCLayout@@@@AEAAXXZ 000000014006b57c f i CLayoutMgr.obj
 0001:0006a608       ??$t_abs@H@@YAHH@Z         000000014006b608 f i CLayoutMgr.obj
 0001:0006a608       abs                        000000014006b608 f i libucrt:abs.obj
 0001:0006a608       labs                       000000014006b608 f i libucrt:labs.obj
 0001:0006a610       ??0bad_alloc@std@@QEAA@XZ  000000014006b610 f i CLayoutMgr.obj
 0001:0006a718       ?_CreateLayout@SLayoutWork@CLayoutMgr@@QEAAPEAVCLayout@@PEAV2@@Z 000000014006b718 f   CLayoutMgr_DoLayout.obj
 0001:0006a780       ?_DoKinsokuSkip@CLayoutMgr@@IEAA_NPEAUSLayoutWork@1@P81@EAAX0@Z@Z 000000014006b780 f   CLayoutMgr_DoLayout.obj
 0001:0006a7ec       ?_DoWordWrap@CLayoutMgr@@IEAAXPEAUSLayoutWork@1@P81@EAAX0@Z@Z 000000014006b7ec f   CLayoutMgr_DoLayout.obj
 0001:0006a8ac       ?_DoKutoBurasage@CLayoutMgr@@IEBAXPEAUSLayoutWork@1@@Z 000000014006b8ac f   CLayoutMgr_DoLayout.obj
 0001:0006a94c       ?_DoGyotoKinsoku@CLayoutMgr@@IEAAXPEAUSLayoutWork@1@P81@EAAX0@Z@Z 000000014006b94c f   CLayoutMgr_DoLayout.obj
 0001:0006aa9c       ?_DoGyomatsuKinsoku@CLayoutMgr@@IEAAXPEAUSLayoutWork@1@P81@EAAX0@Z@Z 000000014006ba9c f   CLayoutMgr_DoLayout.obj
 0001:0006ab9c       ?_DoTab@CLayoutMgr@@IEAA_NPEAUSLayoutWork@1@P81@EAAX0@Z@Z 000000014006bb9c f   CLayoutMgr_DoLayout.obj
 0001:0006ac08       ?_MakeOneLine@CLayoutMgr@@IEAAXPEAUSLayoutWork@1@P81@EAAX0@Z@Z 000000014006bc08 f   CLayoutMgr_DoLayout.obj
 0001:0006adb8       ?_OnLine1@CLayoutMgr@@IEAAXPEAUSLayoutWork@1@@Z 000000014006bdb8 f   CLayoutMgr_DoLayout.obj
 0001:0006ae5c       ?_DoLayout@CLayoutMgr@@QEAAX_N@Z 000000014006be5c f   CLayoutMgr_DoLayout.obj
 0001:0006b108       ??1SLayoutWork@CLayoutMgr@@QEAA@XZ 000000014006c108 f i CLayoutMgr_DoLayout.obj
 0001:0006b124       ?_OnLine2@CLayoutMgr@@IEAAXPEAUSLayoutWork@1@@Z 000000014006c124 f   CLayoutMgr_DoLayout.obj
 0001:0006b230       ?DoLayout_Range@CLayoutMgr@@IEAAHPEAVCLayout@@HV?$CStrictPoint@USLogicPoint@@HH@@W4EColorIndexType@@PEAVCLayoutColorInfo@@PEBUCalTextWidthArg@@PEAH@Z 000000014006c230 f   CLayoutMgr_DoLayout.obj
 0001:0006b4cc       ?CalculateTextWidth_Range@CLayoutMgr@@IEAAXPEBUCalTextWidthArg@@@Z 000000014006c4cc f   CLayoutMgr_DoLayout.obj
 0001:0006b594       ?IsKinsokuHead@CLayoutMgr@@AEBA_N_W@Z 000000014006c594 f   CLayoutMgr_New.obj
 0001:0006b5c4       ?IsKinsokuTail@CLayoutMgr@@AEBA_N_W@Z 000000014006c5c4 f   CLayoutMgr_New.obj
 0001:0006b5f4       ?IsKinsokuKuto@CLayoutMgr@@AEBA_N_W@Z 000000014006c5f4 f   CLayoutMgr_New.obj
 0001:0006b624       ?getIndentOffset_Tx2x@CLayoutMgr@@AEAAHPEAVCLayout@@@Z 000000014006c624 f   CLayoutMgr_New.obj
 0001:0006b708       ?getIndentOffset_LeftSpace@CLayoutMgr@@AEAAHPEAVCLayout@@@Z 000000014006c708 f   CLayoutMgr_New.obj
 0001:0006b888       ?CalculateTextWidth@CLayoutMgr@@QEAAHHHH@Z 000000014006c888 f   CLayoutMgr_New.obj
 0001:0006b9e0       ?ClearLayoutLineWidth@CLayoutMgr@@QEAAXXZ 000000014006c9e0 f   CLayoutMgr_New.obj
 0001:0006b9f4       ?ReplaceData_CLayoutMgr@CLayoutMgr@@QEAAXPEAULayoutReplaceArg@@@Z 000000014006c9f4 f   CLayoutMgr_New2.obj
 0001:0006bc9c       ?CalcTabLength@CTsvModeInfo@@QEAAXPEAVCDocLineMgr@@@Z 000000014006cc9c f   CTsvModeInfo.obj
 0001:0006bef0       ?GetActualTabLength@CTsvModeInfo@@QEBAHHH@Z 000000014006cef0 f   CTsvModeInfo.obj
 0001:0006bf2c       ??0CDocLine@@QEAA@XZ       000000014006cf2c f   CDocLine.obj
 0001:0006bf48       ??1CDocLine@@QEAA@XZ       000000014006cf48 f   CDocLine.obj
 0001:0006bf54       ?IsEmptyLine@CDocLine@@QEBA_NXZ 000000014006cf54 f   CDocLine.obj
 0001:0006bfa0       ?SetEol@CDocLine@@QEAAX_N@Z 000000014006cfa0 f   CDocLine.obj
 0001:0006c018       ?SetDocLineString@CDocLine@@QEAAXPEB_WH_N@Z 000000014006d018 f   CDocLine.obj
 0001:0006c04c       ?SetDocLineStringMove@CDocLine@@QEAAXPEAVCNativeW@@_N@Z 000000014006d04c f   CDocLine.obj
 0001:0006c070       ??0CDocLineMgr@@QEAA@XZ    000000014006d070 f   CDocLineMgr.obj
 0001:0006c0dc       ??1CDocLineMgr@@QEAA@XZ    000000014006d0dc f   CDocLineMgr.obj
 0001:0006c104       ?InsertNewLine@CDocLineMgr@@QEAAPEAVCDocLine@@PEAV2@@Z 000000014006d104 f   CDocLineMgr.obj
 0001:0006c14c       ?AddNewLine@CDocLineMgr@@QEAAPEAVCDocLine@@XZ 000000014006d14c f   CDocLineMgr.obj
 0001:0006c184       ?DeleteAllLine@CDocLineMgr@@QEAAXXZ 000000014006d184 f   CDocLineMgr.obj
 0001:0006c1e0       ?DeleteLine@CDocLineMgr@@QEAAXPEAVCDocLine@@@Z 000000014006d1e0 f   CDocLineMgr.obj
 0001:0006c260       ?GetLine@CDocLineMgr@@QEBAPEBVCDocLine@@H@Z 000000014006d260 f   CDocLineMgr.obj
 0001:0006c340       ?_Init@CDocLineMgr@@IEAAXXZ 000000014006d340 f   CDocLineMgr.obj
 0001:0006c3a8       ?_PushBottom@CDocLineMgr@@IEAAXPEAVCDocLine@@@Z 000000014006d3a8 f   CDocLineMgr.obj
 0001:0006c3d4       ?_InsertBeforePos@CDocLineMgr@@IEAAXPEAVCDocLine@@0@Z 000000014006d3d4 f   CDocLineMgr.obj
 0001:0006c408       ?do_allocate@?$CPoolResource@VCDocLine@@@@MEAAPEAX_K0@Z 000000014006d408 f i CDocLineMgr.obj
 0001:0006c458       ??_E?$CPoolResource@VCDocLine@@@@UEAAPEAXI@Z 000000014006d458 f i * CIL library *:* CIL module *
 0001:0006c458       ??_G?$CPoolResource@VCDocLine@@@@UEAAPEAXI@Z 000000014006d458 f i CDocLineMgr.obj
 0001:0006c4c0       ?AllocateBlock@?$CPoolResource@VCDocLine@@@@AEAAXXZ 000000014006d4c0 f i CDocLineMgr.obj
 0001:0006c54c       ??0EditInfo@@QEAA@XZ       000000014006d54c f   EditInfo.obj
 0001:0006c668       ?GetEditNodeAt@CAppNodeGroupHandle@@QEAAPEAUEditNode@@H@Z 000000014006d668 f   CAppNodeManager.obj
 0001:0006c700       ?AddEditWndList@CAppNodeGroupHandle@@QEAAHPEAUHWND__@@@Z 000000014006d700 f   CAppNodeManager.obj
 0001:0006ca10       ?DeleteEditWndList@CAppNodeGroupHandle@@QEAAXPEAUHWND__@@@Z 000000014006da10 f   CAppNodeManager.obj
 0001:0006caec       ?RequestCloseEditor@CAppNodeGroupHandle@@QEAAHPEAUEditNode@@HHHPEAUHWND__@@@Z 000000014006daec f   CAppNodeManager.obj
 0001:0006cd60       ?GetEditorWindowsNum@CAppNodeGroupHandle@@QEAAH_N@Z 000000014006dd60 f   CAppNodeManager.obj
 0001:0006ce38       ?PostMessageToAllEditors@CAppNodeGroupHandle@@QEAAHI_K_JPEAUHWND__@@@Z 000000014006de38 f   CAppNodeManager.obj
 0001:0006cf90       ?SendMessageToAllEditors@CAppNodeGroupHandle@@QEAAHI_K_JPEAUHWND__@@@Z 000000014006df90 f   CAppNodeManager.obj
 0001:0006d0e8       ?ResetGroupId@CAppNodeManager@@QEAAXXZ 000000014006e0e8 f   CAppNodeManager.obj
 0001:0006d158       ?GetEditNode@CAppNodeManager@@QEAAPEAUEditNode@@PEAUHWND__@@@Z 000000014006e158 f   CAppNodeManager.obj
 0001:0006d1d8       ?GetNoNameNumber@CAppNodeManager@@QEAAHPEAUHWND__@@@Z 000000014006e1d8 f   CAppNodeManager.obj
 0001:0006d214       ?GetOpenedWindowArr@CAppNodeManager@@QEAAHPEAPEAUEditNode@@HH@Z 000000014006e214 f   CAppNodeManager.obj
 0001:0006d27c       ?_GetOpenedWindowArrCore@CAppNodeManager@@IEAAHPEAPEAUEditNode@@HH@Z 000000014006e27c f   CAppNodeManager.obj
 0001:0006d518       ?ReorderTab@CAppNodeManager@@QEAA_NPEAUHWND__@@0@Z 000000014006e518 f   CAppNodeManager.obj
 0001:0006d6e0       ?SeparateGroup@CAppNodeManager@@QEAAPEAUHWND__@@PEAU2@0_NQEAH@Z 000000014006e6e0 f   CAppNodeManager.obj
 0001:0006d8f0       ?IsSameGroup@CAppNodeManager@@SA_NPEAUHWND__@@0@Z 000000014006e8f0 f   CAppNodeManager.obj
 0001:0006d9cc       ?GetFreeGroupId@CAppNodeManager@@QEAAHXZ 000000014006e9cc f   CAppNodeManager.obj
 0001:0006d9e4       ?GetNextTab@CAppNodeManager@@QEAAPEAUHWND__@@PEAU2@@Z 000000014006e9e4 f   CAppNodeManager.obj
 0001:0006db40       ?GetDocumentTypeOfPath@CDocTypeManager@@QEAA?AVCTypeConfig@@PEB_W@Z 000000014006eb40 f   CDocTypeManager.obj
 0001:0006dbe0       ?GetDocumentTypeOfExt@CDocTypeManager@@QEAA?AVCTypeConfig@@PEB_W@Z 000000014006ebe0 f   CDocTypeManager.obj
 0001:0006dbf8       ?GetDocumentTypeOfId@CDocTypeManager@@QEAA?AVCTypeConfig@@H@Z 000000014006ebf8 f   CDocTypeManager.obj
 0001:0006dc4c       ?GetTypeConfig@CDocTypeManager@@QEAA_NVCTypeConfig@@AEAUSTypeConfig@@@Z 000000014006ec4c f   CDocTypeManager.obj
 0001:0006dd10       ?SetTypeConfig@CDocTypeManager@@QEAA_NVCTypeConfig@@AEBUSTypeConfig@@@Z 000000014006ed10 f   CDocTypeManager.obj
 0001:0006dda8       ?GetTypeConfigMini@CDocTypeManager@@QEAA_NVCTypeConfig@@PEAPEBUSTypeConfigMini@@@Z 000000014006eda8 f   CDocTypeManager.obj
 0001:0006ddd4       ?AddTypeConfig@CDocTypeManager@@QEAA_NVCTypeConfig@@@Z 000000014006edd4 f   CDocTypeManager.obj
 0001:0006de30       ?DelTypeConfig@CDocTypeManager@@QEAA_NVCTypeConfig@@@Z 000000014006ee30 f   CDocTypeManager.obj
 0001:0006de8c       ?IsFileNameMatch@CDocTypeManager@@SA_NPEB_W0@Z 000000014006ee8c f   CDocTypeManager.obj
 0001:0006df74       ?GetFirstExt@CDocTypeManager@@SAXPEB_WQEA_WH@Z 000000014006ef74 f   CDocTypeManager.obj
 0001:0006e028       ?ConvertTypesExtToDlgExt@CDocTypeManager@@SA?AV?$basic_string@_WU?$char_traits@_W@std@@V?$allocator@_W@2@@std@@PEB_W0@Z 000000014006f028 f   CDocTypeManager.obj
 0001:0006e22c       ?GetTransformFileNameFast@CFileNameManager@@QEAAPEA_WPEB_WPEA_WHPEAUHDC__@@_NH@Z 000000014006f22c f   CFileNameManager.obj
 0001:0006e500       ?TransformFileName_MakeCache@CFileNameManager@@QEAAHXZ 000000014006f500 f   CFileNameManager.obj
 0001:0006e5b0       ?GetFilePathFormat@CFileNameManager@@SAPEB_WV?$basic_string_view@_WU?$char_traits@_W@std@@@std@@PEA_W_K00@Z 000000014006f5b0 f   CFileNameManager.obj
 0001:0006e6ac       ?ExpandMetaToFolder@CFileNameManager@@SA_NPEB_WPEA_WH@Z 000000014006f6ac f   CFileNameManager.obj
 0001:0006ea40       ?GetAccessKeyByIndex@CFileNameManager@@SA_WH_N@Z 000000014006fa40 f   CFileNameManager.obj
 0001:0006ead4       ?GetMenuFullLabel@CFileNameManager@@QEAA_NPEA_WH_NPEBUEditInfo@@H1H1PEAUHDC__@@@Z 000000014006fad4 f   CFileNameManager.obj
 0001:0006ed10       ?GetMenuFullLabel@CFileNameManager@@QEAA_NPEA_WH_NPEB_WH1W4ECodeType@@1H1PEAUHDC__@@@Z 000000014006fd10 f   CFileNameManager.obj
 0001:0006ef18       ?MyGetDateFormat@CFormatManager@@QEAAPEB_WAEBU_SYSTEMTIME@@PEA_WH@Z 000000014006ff18 f   CFormatManager.obj
 0001:0006ef40       ?MyGetDateFormat@CFormatManager@@QEAAPEB_WAEBU_SYSTEMTIME@@PEA_WHHPEB_W@Z 000000014006ff40 f   CFormatManager.obj
 0001:0006efac       ?MyGetTimeFormat@CFormatManager@@QEAAPEB_WAEBU_SYSTEMTIME@@PEA_WH@Z 000000014006ffac f   CFormatManager.obj
 0001:0006efd4       ?MyGetTimeFormat@CFormatManager@@QEAAPEB_WAEBU_SYSTEMTIME@@PEA_WHHPEB_W@Z 000000014006ffd4 f   CFormatManager.obj
 0001:0006f02c       ?ExtWinHelpIsSet@CHelpManager@@QEAA_NPEBUSTypeConfig@@@Z 000000014007002c f   CHelpManager.obj
 0001:0006f050       ?GetExtWinHelp@CHelpManager@@QEAAPEB_WPEBUSTypeConfig@@@Z 0000000140070050 f   CHelpManager.obj
 0001:0006f070       ?ExtHTMLHelpIsSet@CHelpManager@@QEAA_NPEBUSTypeConfig@@@Z 0000000140070070 f   CHelpManager.obj
 0001:0006f094       ?GetExtHTMLHelp@CHelpManager@@QEAAPEB_WPEBUSTypeConfig@@@Z 0000000140070094 f   CHelpManager.obj
 0001:0006f0b4       ?HTMLHelpIsSingle@CHelpManager@@QEAA_NPEBUSTypeConfig@@@Z 00000001400700b4 f   CHelpManager.obj
 0001:0006f0d8       ??1?$vector@UCommonValueInfo@@V?$allocator@UCommonValueInfo@@@std@@@std@@QEAA@XZ 00000001400700d8 f i CommonSetting.obj
 0001:0006f154       ??1CDCFont@@QEAA@XZ        0000000140070154 f i CSakuraEnvironment.obj
 0001:0006f198       ?GetMainWindow@CSakuraEnvironment@@SAPEAVCEditWnd@@XZ 0000000140070198 f   CSakuraEnvironment.obj
 0001:0006f1a0       ?ExpandParameter@CSakuraEnvironment@@SAXPEB_WPEA_WH@Z 00000001400701a0 f   CSakuraEnvironment.obj
 0001:00070030       ?_ExParam_SkipCond@CSakuraEnvironment@@CAPEB_WPEB_WH@Z 0000000140071030 f   CSakuraEnvironment.obj
 0001:000700a4       ?_ExParam_Evaluate@CSakuraEnvironment@@CAHPEB_W@Z 00000001400710a4 f   CSakuraEnvironment.obj
 0001:000701d4       ?ExParam_LongName@@YAPEA_WPEA_W0W4EExpParamName@@@Z 00000001400711d4 f   CSakuraEnvironment.obj
 0001:00070224       ?GetDlgInitialDir@CSakuraEnvironment@@SA?AV?$basic_string@_WU?$char_traits@_W@std@@V?$allocator@_W@2@@std@@_N@Z 0000000140071224 f   CSakuraEnvironment.obj
 0001:000704fc       ?ResolvePath@CSakuraEnvironment@@SAXPEA_W@Z 00000001400714fc f   CSakuraEnvironment.obj
 0001:00070588       ?IsSakuraMainWindow@@YAHPEAUHWND__@@@Z 0000000140071588 f   CSakuraEnvironment.obj
 0001:00070610       ?AddToSearchKeyArr@CSearchKeywordManager@@QEAAXPEB_W@Z 0000000140071610 f   CSearchKeywordManager.obj
 0001:0007067c       ?AddToReplaceKeyArr@CSearchKeywordManager@@QEAAXPEB_W@Z 000000014007167c f   CSearchKeywordManager.obj
 0001:000706e8       ?AddToGrepFileArr@CSearchKeywordManager@@QEAAXPEB_W@Z 00000001400716e8 f   CSearchKeywordManager.obj
 0001:0007073c       ?AddToGrepFolderArr@CSearchKeywordManager@@QEAAXPEB_W@Z 000000014007173c f   CSearchKeywordManager.obj
 0001:00070790       ?AddToExcludeFileArr@CSearchKeywordManager@@QEAAXPEB_W@Z 0000000140071790 f   CSearchKeywordManager.obj
 0001:000707e4       ?AddToExcludeFolderArr@CSearchKeywordManager@@QEAAXPEB_W@Z 00000001400717e4 f   CSearchKeywordManager.obj
 0001:00070838       ??0CShareData@@QEAA@XZ     0000000140071838 f   CShareData.obj
 0001:00070894       ??_ECShareData@@UEAAPEAXI@Z 0000000140071894 f i * CIL library *:* CIL module *
 0001:00070894       ??_GCShareData@@UEAAPEAXI@Z 0000000140071894 f i CShareData.obj
 0001:000708c8       ??1CShareData@@UEAA@XZ     00000001400718c8 f   CShareData.obj
 0001:00070a04       ?GetMutexShareWork@CShareData@@SAAEAVCMutex@@XZ 0000000140071a04 f   CShareData.obj
 0001:00070a0c       ?InitShareData@CShareData@@QEAA_NXZ 0000000140071a0c f   CShareData.obj
 0001:00071b20       ?ConvertLangValues@CShareData@@QEAAXAEAV?$vector@V?$basic_string@_WU?$char_traits@_W@std@@V?$allocator@_W@2@@std@@V?$allocator@V?$basic_string@_WU?$char_traits@_W@std@@V?$allocator@_W@2@@std@@@2@@std@@_N@Z 0000000140072b20 f   CShareData.obj
 0001:000722bc       ?IsPathOpened@CShareData@@QEAAHPEB_WPEAPEAUHWND__@@@Z 00000001400732bc f   CShareData.obj
 0001:000723c0       ?ActiveAlreadyOpenedWindow@CShareData@@QEAAHPEB_WPEAPEAUHWND__@@W4ECodeType@@@Z 00000001400733c0 f   CShareData.obj
 0001:0007254c       ?TraceOutString@CShareData@@QEAAXPEB_WH@Z 000000014007354c f   CShareData.obj
 0001:0007273c       ?OpenDebugWindow@CShareData@@QEAA_NPEAUHWND__@@_N@Z 000000014007373c f   CShareData.obj
 0001:000728b8       ?IsPrivateSettings@CShareData@@QEBA_NXZ 00000001400738b8 f   CShareData.obj
 0001:000728ec       ?GetMacroFilename@CShareData@@QEAAHHPEA_WH@Z 00000001400738ec f   CShareData.obj
 0001:00072a5c       ?BeReloadWhenExecuteMacro@CShareData@@QEAA_NH@Z 0000000140073a5c f   CShareData.obj
 0001:00072a80       ?InitToolButtons@CShareData@@IEAAXPEAUDLLSHAREDATA@@@Z 0000000140073a80 f   CShareData.obj
 0001:00072ac4       ?InitPopupMenu@CShareData@@IEAAXPEAUDLLSHAREDATA@@@Z 0000000140073ac4 f   CShareData.obj
 0001:00072db0       ?RefreshString@CShareData@@QEAAXXZ 0000000140073db0 f   CShareData.obj
 0001:00072dbc       ?CreateTypeSettings@CShareData@@QEAAXXZ 0000000140073dbc f   CShareData.obj
 0001:00072df0       ?GetTypeSettings@CShareData@@QEAAAEAV?$vector@PEAUSTypeConfig@@V?$allocator@PEAUSTypeConfig@@@std@@@std@@XZ 0000000140073df0 f   CShareData.obj
 0001:00072df8       ?InitFileTree@CShareData@@SAXPEAUSFileTree@@@Z 0000000140073df8 f   CShareData.obj
 0001:00072ef0       ??_E?$TSingleInstance@VCShareData@@@@MEAAPEAXI@Z 0000000140073ef0 f i * CIL library *:* CIL module *
 0001:00072ef0       ??_G?$TSingleInstance@VCShareData@@@@MEAAPEAXI@Z 0000000140073ef0 f i CShareData.obj
 0001:00072f24       ??0multi_instance_not_allowed@@QEAA@AEBV0@@Z 0000000140073f24 f i CShareData.obj
 0001:00072f60       ??0domain_error@std@@QEAA@AEBV01@@Z 0000000140073f60 f i CShareData.obj
 0001:00072f9c       ??$_Convert_Source_to_wide@$$BY04_WU_Normal_conversion@filesystem@std@@@filesystem@std@@YA?AV?$basic_string@_WU?$char_traits@_W@std@@V?$allocator@_W@2@@1@AEAY04$$CB_WU_Normal_conversion@01@@Z 0000000140073f9c f i CShareData.obj
 0001:00072fd0       ??$_Stringoid_from_Source@$$BY04_W@filesystem@std@@YA?A_PAEAY04$$CB_W@Z 0000000140073fd0 f i CShareData.obj
 0001:00072fe8       ??0multi_instance_not_allowed@@QEAA@XZ 0000000140073fe8 f i CShareData.obj
 0001:00073050       ?replace_extension@path@filesystem@std@@QEAAAEAV123@AEBV123@@Z 0000000140074050 f i CShareData.obj
 0001:000730e0       ?GetIniFileNameForIO@@YA?AVpath@filesystem@std@@_N@Z 00000001400740e0 f   CShareData_IO.obj
 0001:00073238       ?LoadShareData@CShareData_IO@@SA_NXZ 0000000140074238 f   CShareData_IO.obj
 0001:00073240       ?SaveShareData@CShareData_IO@@SAXXZ 0000000140074240 f   CShareData_IO.obj
 0001:00073248       ?ShareData_IO_2@CShareData_IO@@KA_N_N@Z 0000000140074248 f   CShareData_IO.obj
 0001:00073724       ?ShareData_IO_Mru@CShareData_IO@@KAXAEAVCDataProfile@@@Z 0000000140074724 f   CShareData_IO.obj
 0001:00074124       ?ShareData_IO_Keys@CShareData_IO@@KAXAEAVCDataProfile@@@Z 0000000140075124 f   CShareData_IO.obj
 0001:000743bc       ?ShareData_IO_Grep@CShareData_IO@@KAXAEAVCDataProfile@@@Z 00000001400753bc f   CShareData_IO.obj
 0001:00074880       ?ShareData_IO_Folders@CShareData_IO@@KAXAEAVCDataProfile@@@Z 0000000140075880 f   CShareData_IO.obj
 0001:00074974       ?ShareData_IO_Cmd@CShareData_IO@@KAXAEAVCDataProfile@@@Z 0000000140075974 f   CShareData_IO.obj
 0001:00074c0c       ?ShareData_IO_Nickname@CShareData_IO@@KAXAEAVCDataProfile@@@Z 0000000140075c0c f   CShareData_IO.obj
 0001:00075098       ?ShareData_IO_Common@CShareData_IO@@KAXAEAVCDataProfile@@@Z 0000000140076098 f   CShareData_IO.obj
 0001:00078b34       ?GetPlugCmdInfoByName@@YA?AW4EFunctionCode@@PEB_W@Z 0000000140079b34 f   CShareData_IO.obj
 0001:00078c64       ?GetPlugCmdInfoByFuncCode@@YA_NW4EFunctionCode@@PEA_W@Z 0000000140079c64 f   CShareData_IO.obj
 0001:00078dd8       ?ShareData_IO_Toolbar@CShareData_IO@@KAXAEAVCDataProfile@@PEAVCMenuDrawer@@@Z 0000000140079dd8 f   CShareData_IO.obj
 0001:00079150       ?ShareData_IO_CustMenu@CShareData_IO@@KAXAEAVCDataProfile@@@Z 000000014007a150 f   CShareData_IO.obj
 0001:00079168       ?IO_CustMenu@CShareData_IO@@SAXAEAVCDataProfile@@AEAUCommonSetting_CustomMenu@@_N@Z 000000014007a168 f   CShareData_IO.obj
 0001:00079950       ?ShareData_IO_Font@CShareData_IO@@KAXAEAVCDataProfile@@@Z 000000014007a950 f   CShareData_IO.obj
 0001:00079a04       ?ShareData_IO_KeyBind@CShareData_IO@@KAXAEAVCDataProfile@@@Z 000000014007aa04 f   CShareData_IO.obj
 0001:00079a1c       ?IO_KeyBind@CShareData_IO@@SAXAEAVCDataProfile@@AEAUCommonSetting_KeyBind@@_N@Z 000000014007aa1c f   CShareData_IO.obj
 0001:0007a02c       ?ShareData_IO_Print@CShareData_IO@@KAXAEAVCDataProfile@@@Z 000000014007b02c f   CShareData_IO.obj
 0001:0007acb0       ?ShareData_IO_Types@CShareData_IO@@KAXAEAVCDataProfile@@@Z 000000014007bcb0 f   CShareData_IO.obj
 0001:0007b3d4       ?ShareData_IO_Type_One@CShareData_IO@@SAXAEAVCDataProfile@@AEAUSTypeConfig@@PEB_W@Z 000000014007c3d4 f   CShareData_IO.obj
 0001:0007df98       ?ShareData_IO_KeyWords@CShareData_IO@@KAXAEAVCDataProfile@@@Z 000000014007ef98 f   CShareData_IO.obj
 0001:0007e678       ?ShareData_IO_Macro@CShareData_IO@@KAXAEAVCDataProfile@@@Z 000000014007f678 f   CShareData_IO.obj
 0001:0007e9b8       ?ShareData_IO_Statusbar@CShareData_IO@@KAXAEAVCDataProfile@@@Z 000000014007f9b8 f   CShareData_IO.obj
 0001:0007ebd0       ?ShareData_IO_Plugin@CShareData_IO@@KAXAEAVCDataProfile@@PEAVCMenuDrawer@@@Z 000000014007fbd0 f   CShareData_IO.obj
 0001:0007eeb4       ?ShareData_IO_MainMenu@CShareData_IO@@KAXAEAVCDataProfile@@@Z 000000014007feb4 f   CShareData_IO.obj
 0001:0007f3f8       ?IO_MainMenu@CShareData_IO@@SAXAEAVCDataProfile@@PEAV?$vector@V?$basic_string@_WU?$char_traits@_W@std@@V?$allocator@_W@2@@std@@V?$allocator@V?$basic_string@_WU?$char_traits@_W@std@@V?$allocator@_W@2@@std@@@2@@std@@AEAUCommonSetting_MainMenu@@_N@Z 00000001400803f8 f   CShareData_IO.obj
 0001:0007f8e4       ?ShareData_IO_Other@CShareData_IO@@KAXAEAVCDataProfile@@@Z 00000001400808e4 f   CShareData_IO.obj
 0001:0007fe6c       ?IO_ColorSet@CShareData_IO@@SAXPEAVCDataProfile@@PEB_WPEAUColorInfo@@@Z 0000000140080e6c f   CShareData_IO.obj
 0001:000800f0       ?ShareData_IO_Sub_LogFont@@YAXAEAVCDataProfile@@PEB_W111AEAUtagLOGFONTW@@AEAH@Z 00000001400810f0 f   CShareData_IO.obj
 0001:00080410       ?ShareData_IO_FileTree@CShareData_IO@@SAXAEAVCDataProfile@@AEAUSFileTree@@PEB_W@Z 0000000140081410 f   CShareData_IO.obj
 0001:00080588       ?ShareData_IO_FileTreeItem@CShareData_IO@@SAXAEAVCDataProfile@@AEAUSFileTreeItem@@PEB_WH@Z 0000000140081588 f   CShareData_IO.obj
 0001:00080af0       ??$SetValueLimit@H@@YAXAEAHH@Z 0000000140081af0 f i CShareData_IO.obj
 0001:00080afc       ??$IOProfileData@W4ECodeType@@@CDataProfile@@QEAA_NV?$basic_string_view@_WU?$char_traits@_W@std@@@std@@0AEAW4ECodeType@@@Z 0000000140081afc f i CShareData_IO.obj
 0001:00080afc       ??$IOProfileData@W4EDockSide@@@CDataProfile@@QEAA_NV?$basic_string_view@_WU?$char_traits@_W@std@@@std@@0AEAW4EDockSide@@@Z 0000000140081afc f i CShareData_IO.obj
 0001:00080afc       ??$IOProfileData@W4EWinSizeMode@@@CDataProfile@@QEAA_NV?$basic_string_view@_WU?$char_traits@_W@std@@@std@@0AEAW4EWinSizeMode@@@Z 0000000140081afc f i CShareData_IO.obj
 0001:00080c34       ??$IOProfileData@G@CDataProfile@@QEAA_NV?$basic_string_view@_WU?$char_traits@_W@std@@@std@@0AEAG@Z 0000000140081c34 f i CShareData_IO.obj
 0001:00080d70       ??$SetValueLimit@H@@YAXAEAHHH@Z 0000000140081d70 f i CShareData_IO.obj
 0001:00080d84       ??$ToString@W4EBackgroundImagePos@@$0A@@profile_data@@YA?AV?$basic_string@_WU?$char_traits@_W@std@@V?$allocator@_W@2@@std@@W4EBackgroundImagePos@@@Z 0000000140081d84 f i CShareData_IO.obj
 0001:00080d84       ??$ToString@W4ECodeType@@$0A@@profile_data@@YA?AV?$basic_string@_WU?$char_traits@_W@std@@V?$allocator@_W@2@@std@@W4ECodeType@@@Z 0000000140081d84 f i CShareData_IO.obj
 0001:00080d84       ??$ToString@W4EDispTabClose@@$0A@@profile_data@@YA?AV?$basic_string@_WU?$char_traits@_W@std@@V?$allocator@_W@2@@std@@W4EDispTabClose@@@Z 0000000140081d84 f i CShareData_IO.obj
 0001:00080d84       ??$ToString@W4EDockSide@@$0A@@profile_data@@YA?AV?$basic_string@_WU?$char_traits@_W@std@@V?$allocator@_W@2@@std@@W4EDockSide@@@Z 0000000140081d84 f i CShareData_IO.obj
 0001:00080d84       ??$ToString@W4EFileTreeItemType@@$0A@@profile_data@@YA?AV?$basic_string@_WU?$char_traits@_W@std@@V?$allocator@_W@2@@std@@W4EFileTreeItemType@@@Z 0000000140081d84 f i CShareData_IO.obj
 0001:00080d84       ??$ToString@W4EFunctionCode@@$0A@@profile_data@@YA?AV?$basic_string@_WU?$char_traits@_W@std@@V?$allocator@_W@2@@std@@W4EFunctionCode@@@Z 0000000140081d84 f i CShareData_IO.obj
 0001:00080d84       ??$ToString@W4EKeyHelpRMenuType@@$0A@@profile_data@@YA?AV?$basic_string@_WU?$char_traits@_W@std@@V?$allocator@_W@2@@std@@W4EKeyHelpRMenuType@@@Z 0000000140081d84 f i CShareData_IO.obj
 0001:00080d84       ??$ToString@W4EOpenDialogDir@@$0A@@profile_data@@YA?AV?$basic_string@_WU?$char_traits@_W@std@@V?$allocator@_W@2@@std@@W4EOpenDialogDir@@@Z 0000000140081d84 f i CShareData_IO.obj
 0001:00080d84       ??$ToString@W4EOutlineType@@$0A@@profile_data@@YA?AV?$basic_string@_WU?$char_traits@_W@std@@V?$allocator@_W@2@@std@@W4EOutlineType@@@Z 0000000140081d84 f i CShareData_IO.obj
 0001:00080d84       ??$ToString@W4EShareMode@@$0A@@profile_data@@YA?AV?$basic_string@_WU?$char_traits@_W@std@@V?$allocator@_W@2@@std@@W4EShareMode@@@Z 0000000140081d84 f i CShareData_IO.obj
 0001:00080d84       ??$ToString@W4ESmartIndentType@@$0A@@profile_data@@YA?AV?$basic_string@_WU?$char_traits@_W@std@@V?$allocator@_W@2@@std@@W4ESmartIndentType@@@Z 0000000140081d84 f i CShareData_IO.obj
 0001:00080d84       ??$ToString@W4ETabArrow@@$0A@@profile_data@@YA?AV?$basic_string@_WU?$char_traits@_W@std@@V?$allocator@_W@2@@std@@W4ETabArrow@@@Z 0000000140081d84 f i CShareData_IO.obj
 0001:00080d84       ??$ToString@W4ETabPosition@@$0A@@profile_data@@YA?AV?$basic_string@_WU?$char_traits@_W@std@@V?$allocator@_W@2@@std@@W4ETabPosition@@@Z 0000000140081d84 f i CShareData_IO.obj
 0001:00080d84       ??$ToString@W4EWinSizeMode@@$0A@@profile_data@@YA?AV?$basic_string@_WU?$char_traits@_W@std@@V?$allocator@_W@2@@std@@W4EWinSizeMode@@@Z 0000000140081d84 f i CShareData_IO.obj
 0001:00080d9c       ??$TryParse@G@profile_data@@YA_NV?$basic_string_view@_WU?$char_traits@_W@std@@@std@@AEAG@Z 0000000140081d9c f i CShareData_IO.obj
 0001:00080e04       ??$ToString@G$0A@@profile_data@@YA?AV?$basic_string@_WU?$char_traits@_W@std@@V?$allocator@_W@2@@std@@G@Z 0000000140081e04 f i CShareData_IO.obj
 0001:00080e20       ??$TryParse@W4EEolType@@@profile_data@@YA_NV?$basic_string_view@_WU?$char_traits@_W@std@@@std@@AEAW4EEolType@@@Z 0000000140081e20 f i CShareData_IO.obj
 0001:00080e88       ??$ToString@W4EEolType@@$0A@@profile_data@@YA?AV?$basic_string@_WU?$char_traits@_W@std@@V?$allocator@_W@2@@std@@W4EEolType@@@Z 0000000140081e88 f i CShareData_IO.obj
 0001:00080ea4       ??$TryParse@E@profile_data@@YA_NV?$basic_string_view@_WU?$char_traits@_W@std@@@std@@AEAE@Z 0000000140081ea4 f i CShareData_IO.obj
 0001:00080f0c       ??$ToString@E$0A@@profile_data@@YA?AV?$basic_string@_WU?$char_traits@_W@std@@V?$allocator@_W@2@@std@@E@Z 0000000140081f0c f i CShareData_IO.obj
 0001:00080f28       swscanf                    0000000140081f28 f i CShareData_IO.obj
 0001:00080f74       ?PushTagJump@CTagJumpManager@@QEAAXPEBUTagJump@@@Z 0000000140081f74 f   CTagJumpManager.obj
 0001:00080fc4       ?PopTagJump@CTagJumpManager@@QEAA_NPEAUTagJump@@@Z 0000000140081fc4 f   CTagJumpManager.obj
 0001:0008101c       ??0CShareDataLockCounter@@QEAA@XZ 000000014008201c f   DLLSHAREDATA.obj
 0001:00081058       ??1CShareDataLockCounter@@QEAA@XZ 0000000140082058 f   DLLSHAREDATA.obj
 0001:0008108c       ?OnInitDialog@CLockCancel@@UEAAHPEAUHWND__@@_K_J@Z 000000014008208c f i DLLSHAREDATA.obj
 0001:000812ac       ?WaitLock@CShareDataLockCounter@@SAXPEAUHWND__@@PEAPEAV1@@Z 00000001400822ac f   DLLSHAREDATA.obj
 0001:00081440       ??0CBregexp@@QEAA@XZ       0000000140082440 f   CBregexp.obj
 0001:00081470       ??1CBregexp@@UEAA@XZ       0000000140082470 f   CBregexp.obj
 0001:000814a8       ?CheckPattern@CBregexp@@AEAAHPEB_W@Z 00000001400824a8 f   CBregexp.obj
 0001:00081638       ?MakePatternSub@CBregexp@@AEAAPEA_WPEB_W00H@Z 0000000140082638 f   CBregexp.obj
 0001:000817b8       ?MakePatternAlternate@CBregexp@@AEAAPEA_WQEB_W0H@Z 00000001400827b8 f   CBregexp.obj
 0001:00081a04       ?Compile@CBregexp@@QEAA_NPEB_W0H_N@Z 0000000140082a04 f   CBregexp.obj
 0001:00081af0       ?Match@CBregexp@@QEAA_NPEB_WHH@Z 0000000140082af0 f   CBregexp.obj
 0001:00081bb4       ?Replace@CBregexp@@QEAAHPEB_WHH@Z 0000000140082bb4 f   CBregexp.obj
 0001:00081c60       ?GetLastMessage@CBregexp@@QEBAPEB_WXZ 0000000140082c60 f   CBregexp.obj
 0001:00081c68       ?InitRegexp@@YA_NPEAUHWND__@@AEAVCBregexp@@_N@Z 0000000140082c68 f   CBregexp.obj
 0001:00081cec       ?CheckRegexpVersion@@YA_NPEAUHWND__@@H_N@Z 0000000140082cec f   CBregexp.obj
 0001:00081dc8       ?CheckRegexpSyntax@@YA_NPEB_WPEAUHWND__@@_NH2@Z 0000000140082dc8 f   CBregexp.obj
 0001:00081f38       ??0CBregexpDll2@@QEAA@XZ   0000000140082f38 f   CBregexpDll2.obj
 0001:00081f54       ??_ECBregexpDll2@@UEAAPEAXI@Z 0000000140082f54 f i * CIL library *:* CIL module *
 0001:00081f54       ??_GCBregexpDll2@@UEAAPEAXI@Z 0000000140082f54 f i CBregexpDll2.obj
 0001:00081f88       ??1CBregexpDll2@@UEAA@XZ   0000000140082f88 f   CBregexpDll2.obj
 0001:00081f98       ?GetDllNameImp@CBregexpDll2@@MEAAPEB_WH@Z 0000000140082f98 f   CBregexpDll2.obj
 0001:00081fa0       ?InitDllImp@CBregexpDll2@@MEAA_NXZ 0000000140082fa0 f   CBregexpDll2.obj
 0001:00082080       ??0CDllImp@@QEAA@XZ        0000000140083080 f   CDllHandler.obj
 0001:000820ac       ??_ECDllImp@@UEAAPEAXI@Z   00000001400830ac f i * CIL library *:* CIL module *
 0001:000820ac       ??_GCDllImp@@UEAAPEAXI@Z   00000001400830ac f i CDllHandler.obj
 0001:000820e0       ??1CDllImp@@UEAA@XZ        00000001400830e0 f   CDllHandler.obj
 0001:00082110       ?InitDll@CDllImp@@QEAA?AW4EDllResult@@PEB_W@Z 0000000140083110 f   CDllHandler.obj
 0001:0008220c       ?DeinitDll@CDllImp@@QEAA_N_N@Z 000000014008320c f   CDllHandler.obj
 0001:0008227c       ?DeinitDllImp@CDllImp@@MEAA_NXZ 000000014008327c f   CDllHandler.obj
 0001:0008227c       ?Disp@CColor_Found@@UEBA_NXZ 000000014008327c f   CColor_Found.obj
 0001:0008227c       ?Disp@CColor_KeywordSet@@UEBA_NXZ 000000014008327c f   CColor_KeywordSet.obj
 0001:0008227c       ?Disp@CColor_Select@@UEBA_NXZ 000000014008327c f   CColorStrategy.obj
 0001:0008227c       ?Disp@CFigure_Eol@@UEBA_NXZ 000000014008327c f   CFigureManager.obj
 0001:0008227c       ?Disp@CFigure_Tab@@UEBA_NXZ 000000014008327c f   CFigureManager.obj
 0001:0008227c       ?Disp@CFigure_Text@@UEBA_NXZ 000000014008327c f   CFigureManager.obj
 0001:0008227c       ?EndColor@CColorStrategy@@UEAA_NAEBVCStringRef@@H@Z 000000014008327c f   CColorStrategy.obj
 0001:0008227c       ?ImportAscertain@CImpExpManager@@UEAA_NPEAUHINSTANCE__@@PEAUHWND__@@AEBV?$basic_string@_WU?$char_traits@_W@std@@V?$allocator@_W@2@@std@@AEAV45@@Z 000000014008327c f   CImpExpManager.obj
 0001:0008227c       ?InitDllImp@CDllPlugin@@UEAA_NXZ 000000014008327c f   CDllPlugin.obj
 0001:0008227c       ?IsActiveDebugWindow@COutputAdapter@@UEAA_NXZ 000000014008327c f   CEditView_Diff.obj
 0001:0008227c       ?IsEnableRunningDlg@COutputAdapter@@UEAA_NXZ 000000014008327c f   CEditView_Diff.obj
 0001:0008227c       ?IsValidVersion@CProcessFactory@@AEAA_NXZ 000000014008327c f   CProcessFactory.obj
 0001:0008227c       ?Match@CFigure_Text@@UEBA_NPEB_WH@Z 000000014008327c f   CFigureManager.obj
 0001:0008227c       ?OutputW@COutputAdapterDiff@@UEAA_NPEB_WH@Z 000000014008327c f   CEditView_Diff.obj
 0001:0008227c       ?ReadPluginOption@CDllPlugin@@UEAA_NPEAVCDataProfile@@@Z 000000014008327c f   CDllPlugin.obj
 0001:0008227c       ?ReadPluginOption@CWSHPlugin@@UEAA_NPEAVCDataProfile@@@Z 000000014008327c f   CWSHPlugin.obj
 0001:0008227c       ?ValidateReceiveType@CRecentEditNode@@UEBA_NPEBUEditNode@@@Z 000000014008327c f   CRecentEditNode.obj
 0001:0008227c       ?ValidateReceiveType@CRecentFile@@UEBA_NPEBUEditInfo@@@Z 000000014008327c f   CRecentFile.obj
 0001:0008227c       ?do_always_noconv@?$codecvt@DDU_Mbstatet@@@std@@MEBA_NXZ 000000014008327c f   libcpmt:clog.obj
 0001:0008227c       __acrt_uninitialize_command_line 000000014008327c f   libucrt:argv_data.obj
 0001:0008227c       _should_initialize_environment 000000014008327c f   LIBCMT:env_mode.obj
 0001:00082280       ?RegisterEntries@CDllImp@@IEAA_NQEBUImportTable@1@@Z 0000000140083280 f   CDllHandler.obj
 0001:000822f8       ??0CHtmlHelp@@QEAA@XZ      00000001400832f8 f   CHtmlHelp.obj
 0001:0008232c       ??_ECHtmlHelp@@UEAAPEAXI@Z 000000014008332c f i * CIL library *:* CIL module *
 0001:0008232c       ??_GCHtmlHelp@@UEAAPEAXI@Z 000000014008332c f i CHtmlHelp.obj
 0001:00082360       ?GetDllNameImp@CHtmlHelp@@MEAAPEB_WH@Z 0000000140083360 f   CHtmlHelp.obj
 0001:00082368       ?InitDllImp@CHtmlHelp@@MEAA_NXZ 0000000140083368 f   CHtmlHelp.obj
 0001:000823bc       ??0CIcu4cI18n@@QEAA@XZ     00000001400833bc f   CIcu4cI18n.obj
 0001:000823ec       ??_ECIcu4cI18n@@UEAAPEAXI@Z 00000001400833ec f i * CIL library *:* CIL module *
 0001:000823ec       ??_GCIcu4cI18n@@UEAAPEAXI@Z 00000001400833ec f i CIcu4cI18n.obj
 0001:00082420       ?GetDllNameImp@CIcu4cI18n@@MEAAPEB_WH@Z 0000000140083420 f   CIcu4cI18n.obj
 0001:00082428       ?InitDllImp@CIcu4cI18n@@MEAA_NXZ 0000000140083428 f   CIcu4cI18n.obj
 0001:000824cc       ?InitDllImp@CMigemo@@MEAA_NXZ 00000001400834cc f   CMigemo.obj
 0001:00082690       ?DeinitDllImp@CMigemo@@MEAA_NXZ 0000000140083690 f   CMigemo.obj
 0001:000826a0       ?GetDllNameImp@CMigemo@@MEAAPEB_WH@Z 00000001400836a0 f   CMigemo.obj
 0001:0008272c       ?migemo_open@CMigemo@@QEAAJPEAD@Z 000000014008372c f   CMigemo.obj
 0001:0008276c       ?migemo_close@CMigemo@@QEAAXXZ 000000014008376c f   CMigemo.obj
 0001:00082798       ?migemo_query@CMigemo@@QEAAPEAEPEAE@Z 0000000140083798 f   CMigemo.obj
 0001:000827dc       ?migemo_query_w@CMigemo@@QEAA?AV?$basic_string@_WU?$char_traits@_W@std@@V?$allocator@_W@2@@std@@PEB_W@Z 00000001400837dc f   CMigemo.obj
 0001:00082968       ?migemo_release@CMigemo@@QEAAXPEAE@Z 0000000140083968 f   CMigemo.obj
 0001:000829a4       ?migemo_setproc_char2int@CMigemo@@QEAAXP6AHPEBEPEAI@Z@Z 00000001400839a4 f   CMigemo.obj
 0001:000829e0       ?migemo_setproc_int2char@CMigemo@@QEAAXP6AHIPEAE@Z@Z 00000001400839e0 f   CMigemo.obj
 0001:00082a1c       ?migemo_load_a@CMigemo@@QEAAHHPEBD@Z 0000000140083a1c f   CMigemo.obj
 0001:00082a6c       ?migemo_load_w@CMigemo@@QEAAHHPEB_W@Z 0000000140083a6c f   CMigemo.obj
 0001:00082ad0       ?migemo_is_enable@CMigemo@@QEAAHXZ 0000000140083ad0 f   CMigemo.obj
 0001:00082b08       ?migemo_load_all@CMigemo@@QEAAHXZ 0000000140083b08 f   CMigemo.obj
 0001:00082d3c       ??1CMigemo@@UEAA@XZ        0000000140083d3c f   CMigemo.obj
 0001:00082d84       ??_ECMigemo@@UEAAPEAXI@Z   0000000140083d84 f i * CIL library *:* CIL module *
 0001:00082d84       ??_GCMigemo@@UEAAPEAXI@Z   0000000140083d84 f i CMigemo.obj
 0001:00082db8       ?pcre_char2int_sjis@@YAHPEBEPEAI@Z 0000000140083db8 f   CMigemo.obj
 0001:00082e98       ?pcre_char2int_utf8@@YAHPEBEPEAI@Z 0000000140083e98 f   CMigemo.obj
 0001:00082fa4       ?pcre_int2char_utf8@@YAHIPEAE@Z 0000000140083fa4 f   CMigemo.obj
 0001:000830c8       ??_E?$TSingleInstance@VCMigemo@@@@MEAAPEAXI@Z 00000001400840c8 f i * CIL library *:* CIL module *
 0001:000830c8       ??_G?$TSingleInstance@VCMigemo@@@@MEAAPEAXI@Z 00000001400840c8 f i CMigemo.obj
 0001:000830fc       ??_ECMigemo@@WDA@EAAPEAXI@Z 00000001400840fc f i CMigemo.obj
 0001:00083108       ?GetDllNameImp@CUchardet@@MEAAPEB_WH@Z 0000000140084108 f   CUchardet.obj
 0001:00083110       ?InitDllImp@CUchardet@@MEAA_NXZ 0000000140084110 f   CUchardet.obj
 0001:000831c4       ??0CUxTheme@@AEAA@XZ       00000001400841c4 f   CUxTheme.obj
 0001:000831f8       ??_ECUxTheme@@EEAAPEAXI@Z  00000001400841f8 f i * CIL library *:* CIL module *
 0001:000831f8       ??_GCUxTheme@@EEAAPEAXI@Z  00000001400841f8 f i CUxTheme.obj
 0001:0008322c       ??1CUxTheme@@EEAA@XZ       000000014008422c f   CUxTheme.obj
 0001:0008323c       ?InitThemeDll@CUxTheme@@IEAA_NPEA_W@Z 000000014008423c f   CUxTheme.obj
 0001:00083268       ?GetDllNameImp@CUxTheme@@MEAAPEB_WH@Z 0000000140084268 f   CUxTheme.obj
 0001:00083270       ?InitDllImp@CUxTheme@@MEAA_NXZ 0000000140084270 f   CUxTheme.obj
 0001:0008332c       ?IsThemeActive@CUxTheme@@QEAAHXZ 000000014008432c f   CUxTheme.obj
 0001:00083354       ?SetWindowTheme@CUxTheme@@QEAAJPEAUHWND__@@PEB_W1@Z 0000000140084354 f   CUxTheme.obj
 0001:00083394       ?OpenThemeData@CUxTheme@@QEAAPEAXPEAUHWND__@@PEB_W@Z 0000000140084394 f   CUxTheme.obj
 0001:000833cc       ?DrawThemeBackground@CUxTheme@@QEAAJPEAXPEAUHDC__@@HHPEAUtagRECT@@2@Z 00000001400843cc f   CUxTheme.obj
 0001:00083438       ?DrawThemeParentBackground@CUxTheme@@QEAAJPEAUHWND__@@PEAUHDC__@@PEAUtagRECT@@@Z 0000000140084438 f   CUxTheme.obj
 0001:0008348c       ?IsThemeBackgroundPartiallyTransparent@CUxTheme@@QEAAHPEAXHH@Z 000000014008448c f   CUxTheme.obj
 0001:000834dc       ?DispatchEvent_WM_APP@CWnd@@MEAA_JPEAUHWND__@@I_K_J@Z 00000001400844dc f i CWnd.obj
 0001:000834dc       ?OnCaptureChanged@CWnd@@MEAA_JPEAUHWND__@@I_K_J@Z 00000001400844dc f i CFuncKeyWnd.obj
 0001:000834dc       ?OnCommand@CWnd@@MEAA_JPEAUHWND__@@I_K_J@Z 00000001400844dc f i CAutoScrollWnd.obj
 0001:000834dc       ?OnDestroy@CWnd@@MEAA_JPEAUHWND__@@I_K_J@Z 00000001400844dc f i CAutoScrollWnd.obj
 0001:000834dc       ?OnDrawItem@CWnd@@MEAA_JPEAUHWND__@@I_K_J@Z 00000001400844dc f i CFuncKeyWnd.obj
 0001:000834dc       ?OnLButtonDblClk@CWnd@@MEAA_JPEAUHWND__@@I_K_J@Z 00000001400844dc f i CFuncKeyWnd.obj
 0001:000834dc       ?OnLButtonDown@CWnd@@MEAA_JPEAUHWND__@@I_K_J@Z 00000001400844dc f i CFuncKeyWnd.obj
 0001:000834dc       ?OnLButtonUp@CWnd@@MEAA_JPEAUHWND__@@I_K_J@Z 00000001400844dc f i CFuncKeyWnd.obj
 0001:000834dc       ?OnMButtonDown@CWnd@@MEAA_JPEAUHWND__@@I_K_J@Z 00000001400844dc f i CFuncKeyWnd.obj
 0001:000834dc       ?OnMeasureItem@CWnd@@MEAA_JPEAUHWND__@@I_K_J@Z 00000001400844dc f i CFuncKeyWnd.obj
 0001:000834dc       ?OnMouseMove@CWnd@@MEAA_JPEAUHWND__@@I_K_J@Z 00000001400844dc f i CFuncKeyWnd.obj
 0001:000834dc       ?OnNotify@CWnd@@MEAA_JPEAUHWND__@@I_K_J@Z 00000001400844dc f i CFuncKeyWnd.obj
 0001:000834dc       ?OnPaint@CWnd@@MEAA_JPEAUHWND__@@I_K_J@Z 00000001400844dc f i CFuncKeyWnd.obj
 0001:000834dc       ?OnRButtonDown@CWnd@@MEAA_JPEAUHWND__@@I_K_J@Z 00000001400844dc f i CFuncKeyWnd.obj
 0001:000834dc       ?OnSize@CWnd@@MEAA_JPEAUHWND__@@I_K_J@Z 00000001400844dc f i CAutoScrollWnd.obj
 0001:000834dc       ?OnTimer@CWnd@@MEAA_JPEAUHWND__@@I_K_J@Z 00000001400844dc f i CAutoScrollWnd.obj
 0001:000834ec       ??0CFuncKeyWnd@@QEAA@XZ    00000001400844ec f   CFuncKeyWnd.obj
 0001:000835fc       ??_ECFuncKeyWnd@@UEAAPEAXI@Z 00000001400845fc f i * CIL library *:* CIL module *
 0001:000835fc       ??_GCFuncKeyWnd@@UEAAPEAXI@Z 00000001400845fc f i CFuncKeyWnd.obj
 0001:00083630       ??1CFuncKeyWnd@@UEAA@XZ    0000000140084630 f   CFuncKeyWnd.obj
 0001:00083660       ?Open@CFuncKeyWnd@@QEAAPEAUHWND__@@PEAUHINSTANCE__@@PEAU2@PEAVCEditDoc@@_N@Z 0000000140084660 f   CFuncKeyWnd.obj
 0001:000837e4       ?Close@CFuncKeyWnd@@QEAAXXZ 00000001400847e4 f   CFuncKeyWnd.obj
 0001:000837ec       ?OnSize@CFuncKeyWnd@@MEAA_JPEAUHWND__@@I_K_J@Z 00000001400847ec f   CFuncKeyWnd.obj
 0001:000838d4       ?OnCommand@CFuncKeyWnd@@MEAA_JPEAUHWND__@@I_K_J@Z 00000001400848d4 f   CFuncKeyWnd.obj
 0001:00083938       ?OnTimer@CFuncKeyWnd@@MEAA_JPEAUHWND__@@I_K_J@Z 0000000140084938 f   CFuncKeyWnd.obj
 0001:00083aa4       ?OnDestroy@CFuncKeyWnd@@MEAA_JPEAUHWND__@@I_K_J@Z 0000000140084aa4 f   CFuncKeyWnd.obj
 0001:00083b14       ?CalcButtonSize@CFuncKeyWnd@@IEAAHXZ 0000000140084b14 f   CFuncKeyWnd.obj
 0001:00083be4       ?CreateButtons@CFuncKeyWnd@@IEAAXXZ 0000000140084be4 f   CFuncKeyWnd.obj
 0001:00083cfc       ?SizeBox_ONOFF@CFuncKeyWnd@@QEAAX_N@Z 0000000140084cfc f   CFuncKeyWnd.obj
 0001:00083df8       ?Timer_ONOFF@CFuncKeyWnd@@QEAAX_N@Z 0000000140084df8 f   CFuncKeyWnd.obj
 0001:00083e50       ?Pos2FuncCode@CFuncLookup@@QEBA?AW4EFunctionCode@@HH_N@Z 0000000140084e50 f   CFuncLookup.obj
 0001:00083efc       ?Pos2FuncName@CFuncLookup@@QEBA_NHHPEA_WH@Z 0000000140084efc f   CFuncLookup.obj
 0001:00083f34       ?Funccode2Name@CFuncLookup@@QEBA_NHPEA_WH@Z 0000000140084f34 f   CFuncLookup.obj
 0001:000840a0       ?Category2Name@CFuncLookup@@QEBAPEB_WH@Z 00000001400850a0 f   CFuncLookup.obj
 0001:000840e0       ?SetCategory2Combo@CFuncLookup@@QEBAXPEAUHWND__@@@Z 00000001400850e0 f   CFuncLookup.obj
 0001:000841a4       ?SetListItem@CFuncLookup@@QEBAXPEAUHWND__@@H@Z 00000001400851a4 f   CFuncLookup.obj
 0001:00084250       ?GetItemCount@CFuncLookup@@QEBAHH@Z 0000000140085250 f   CFuncLookup.obj
 0001:0008429c       ?Custmenu2Name@CFuncLookup@@QEBAPEB_WHQEA_WH@Z 000000014008529c f   CFuncLookup.obj
 0001:00084360       ?CreateAccerelator@CKeyBind@@SAPEAUHACCEL__@@HPEAUKEYDATA@@@Z 0000000140085360 f   CKeyBind.obj
 0001:0008449c       ?GetFuncCode@CKeyBind@@SA?AW4EFunctionCode@@GHPEAUKEYDATA@@H@Z 000000014008549c f   CKeyBind.obj
 0001:0008450c       ?CreateKeyBindList@CKeyBind@@SAHPEAUHINSTANCE__@@HPEAUKEYDATA@@AEAVCNativeW@@PEAVCFuncLookup@@H@Z 000000014008550c f   CKeyBind.obj
 0001:000849ac       ?GetKeyStrSub@CKeyBind@@KA_NAEAHHPEAUKEYDATA@@HAEAVCNativeW@@HH@Z 00000001400859ac f   CKeyBind.obj
 0001:00084afc       ?GetKeyStr@CKeyBind@@SAHPEAUHINSTANCE__@@HPEAUKEYDATA@@AEAVCNativeW@@HH@Z 0000000140085afc f   CKeyBind.obj
 0001:00084bd8       ?GetKeyStrList@CKeyBind@@SAHPEAUHINSTANCE__@@HPEAUKEYDATA@@PEAPEAPEAVCNativeW@@HH@Z 0000000140085bd8 f   CKeyBind.obj
 0001:00084d50       ?MakeMenuLabel@CKeyBind@@SAPEA_WPEB_W0@Z 0000000140085d50 f   CKeyBind.obj
 0001:00084f20       ?GetMenuLabel@CKeyBind@@SAPEA_WPEAUHINSTANCE__@@HPEAUKEYDATA@@HPEA_WPEB_WHHH@Z 0000000140085f20 f   CKeyBind.obj
 0001:00085060       ?GetDefFuncCode@CKeyBind@@SA?AW4EFunctionCode@@HH@Z 0000000140086060 f   CKeyBind.obj
 0001:000850c8       ?GetFuncCodeAt@CKeyBind@@SA?AW4EFunctionCode@@AEAUKEYDATA@@HH@Z 00000001400860c8 f   CKeyBind.obj
 0001:000850e4       ?InitKeyAssign@CShareData@@IEAA_NPEAUDLLSHAREDATA@@@Z 00000001400860e4 f   CKeyBind.obj
 0001:00085180       ?RefreshKeyAssignString@CShareData@@IEAAXPEAUDLLSHAREDATA@@@Z 0000000140086180 f   CKeyBind.obj
 0001:00085250       ?FuncID_To_HelpContextID@@YAHW4EFunctionCode@@@Z 0000000140086250 f   Funccode.obj
 0001:00086244       ?IsFuncEnable@@YA_NPEBVCEditDoc@@PEBUDLLSHAREDATA@@W4EFunctionCode@@@Z 0000000140087244 f   Funccode.obj
 0001:000868b4       ?IsFuncChecked@@YA_NPEBVCEditDoc@@PEBUDLLSHAREDATA@@W4EFunctionCode@@@Z 00000001400878b4 f   Funccode.obj
 0001:00086b7c       ??0GrepInfo@@QEAA@XZ       0000000140087b7c f   GrepInfo.obj
 0001:00086bd4       ??0CBinaryInputStream@@QEAA@PEB_W@Z 0000000140087bd4 f   CBinaryStream.obj
 0001:00086c00       ?GetLength@CBinaryInputStream@@QEAAHXZ 0000000140087c00 f   CBinaryStream.obj
 0001:00086c58       ?Read@CBinaryInputStream@@QEAAHPEAXH@Z 0000000140087c58 f   CBinaryStream.obj
 0001:00086c70       ??0CBinaryOutputStream@@QEAA@PEB_W_N@Z 0000000140087c70 f   CBinaryStream.obj
 0001:00086c9c       ??0CFile@@QEAA@PEB_W@Z     0000000140087c9c f   CFile.obj
 0001:00086ce4       ??_ECFile@@UEAAPEAXI@Z     0000000140087ce4 f i * CIL library *:* CIL module *
 0001:00086ce4       ??_GCFile@@UEAAPEAXI@Z     0000000140087ce4 f i CFile.obj
 0001:00086d18       ??1CFile@@UEAA@XZ          0000000140087d18 f   CFile.obj
 0001:00086d28       ?IsFileExist@CFile@@QEBA_NXZ 0000000140087d28 f   CFile.obj
 0001:00086d34       ?HasWritablePermission@CFile@@QEBA_NXZ 0000000140087d34 f   CFile.obj
 0001:00086d54       ?IsFileWritable@CFile@@QEBA_NXZ 0000000140087d54 f   CFile.obj
 0001:00086da0       ?IsFileReadable@CFile@@QEBA_NXZ 0000000140087da0 f   CFile.obj
 0001:00086dec       ?FileUnlock@CFile@@QEAAXXZ 0000000140087dec f   CFile.obj
 0001:00086e18       ?FileLock@CFile@@QEAA_NW4EShareMode@@_N@Z 0000000140087e18 f   CFile.obj
 0001:00086f34       ??0CError_FileOpen@@QEAA@W4EReason@0@@Z 0000000140087f34 f i CFileLoad.obj
 0001:00086f40       ?IsLoadableSize@CFileLoad@@SA_N_K_N@Z 0000000140087f40 f   CFileLoad.obj
 0001:00086f5c       ?GetSizeStringForHuman@CFileLoad@@SA?AV?$basic_string@_WU?$char_traits@_W@std@@V?$allocator@_W@2@@std@@_K@Z 0000000140087f5c f   CFileLoad.obj
 0001:0008708c       ??0CFileLoad@@QEAA@AEBUSEncodingConfig@@@Z 000000014008808c f   CFileLoad.obj
 0001:00087134       ??1CFileLoad@@QEAA@XZ      0000000140088134 f   CFileLoad.obj
 0001:000871a8       ?FileOpen@CFileLoad@@QEAA?AW4ECodeType@@PEB_W_NW42@HPEA_N@Z 00000001400881a8 f   CFileLoad.obj
 0001:000874c4       ?FileClose@CFileLoad@@QEAAXXZ 00000001400884c4 f   CFileLoad.obj
 0001:00087530       ?ReadLine@CFileLoad@@QEAA?AW4EConvertResult@@PEAVCNativeW@@PEAVCEol@@@Z 0000000140088530 f   CFileLoad.obj
 0001:000876b0       ?ReadLine_core@CFileLoad@@IEAA?AW4EConvertResult@@PEAVCNativeW@@PEAVCEol@@@Z 00000001400886b0 f   CFileLoad.obj
 0001:000878a8       ?Buffering@CFileLoad@@IEAAXXZ 00000001400888a8 f   CFileLoad.obj
 0001:000879d0       ?ReadBufEmpty@CFileLoad@@IEAAXXZ 00000001400889d0 f   CFileLoad.obj
 0001:00087a10       ?GetPercent@CFileLoad@@QEAAHXZ 0000000140088a10 f   CFileLoad.obj
 0001:00087a30       ?GetNextLineCharCode@CFileLoad@@IEAAPEBDPEBDHPEAH1PEAVCEol@@11@Z 0000000140088a30 f   CFileLoad.obj
 0001:00088108       swprintf_s                 0000000140089108 f i CFileLoad.obj
 0001:0008815c       ?FileToImpl@CIoBridge@@SA?AW4EConvertResult@@AEBVCMemory@@PEAVCNativeW@@PEAVCCodeBase@@H@Z 000000014008915c f   CIoBridge.obj
 0001:00088170       ?ImplToFile@CIoBridge@@SA?AW4EConvertResult@@AEBVCNativeW@@PEAVCMemory@@PEAVCCodeBase@@@Z 0000000140089170 f   CIoBridge.obj
 0001:00088184       ??0CStream@@QEAA@PEB_W0_N@Z 0000000140089184 f   CStream.obj
 0001:000881b4       ??1CStream@@UEAA@XZ        00000001400891b4 f   CStream.obj
 0001:000881c4       ?Open@CStream@@QEAAXPEB_W0@Z 00000001400891c4 f   CStream.obj
 0001:000882d4       ?Close@CStream@@QEAAXXZ    00000001400892d4 f   CStream.obj
 0001:00088360       ??0CTextInputStream@@QEAA@PEB_W@Z 0000000140089360 f   CTextStream.obj
 0001:00088414       ??_ECTextInputStream@@UEAAPEAXI@Z 0000000140089414 f i * CIL library *:* CIL module *
 0001:00088414       ??_ECTextInputStream_AbsIni@@UEAAPEAXI@Z 0000000140089414 f i * CIL library *:* CIL module *
 0001:00088414       ??_GCTextInputStream@@UEAAPEAXI@Z 0000000140089414 f i CTextStream.obj
 0001:00088414       ??_GCTextInputStream_AbsIni@@UEAAPEAXI@Z 0000000140089414 f i CTextStream.obj
 0001:00088448       ??1CTextInputStream@@UEAA@XZ 0000000140089448 f   CTextStream.obj
 0001:00088458       ?ReadLineW@CTextInputStream@@QEAA?AV?$basic_string@_WU?$char_traits@_W@std@@V?$allocator@_W@2@@std@@XZ 0000000140089458 f   CTextStream.obj
 0001:0008859c       ??0CTextOutputStream@@QEAA@PEB_WW4ECodeType@@_N2@Z 000000014008959c f   CTextStream.obj
 0001:00088664       ??_ECTextOutputStream@@UEAAPEAXI@Z 0000000140089664 f i * CIL library *:* CIL module *
 0001:00088664       ??_GCTextOutputStream@@UEAAPEAXI@Z 0000000140089664 f i CTextStream.obj
 0001:00088698       ??1CTextOutputStream@@UEAA@XZ 0000000140089698 f   CTextStream.obj
 0001:000886cc       ?WriteString@CTextOutputStream@@QEAAXPEB_WH@Z 00000001400896cc f   CTextStream.obj
 0001:0008886c       ?WriteF@CTextOutputStream@@QEAAXPEB_WZZ 000000014008986c f   CTextStream.obj
 0001:00088908       ??0CTextInputStream_AbsIni@@QEAA@PEB_W_N@Z 0000000140089908 f   CTextStream.obj
 0001:00088938       ??0CZipFile@@QEAA@XZ       0000000140089938 f   CZipFile.obj
 0001:00088998       ??1CZipFile@@QEAA@XZ       0000000140089998 f   CZipFile.obj
 0001:000889c8       ?SetZip@CZipFile@@QEAA_NAEBV?$basic_string@_WU?$char_traits@_W@std@@V?$allocator@_W@2@@std@@@Z 00000001400899c8 f   CZipFile.obj
 0001:00088a90       ?ChkPluginDef@CZipFile@@QEAA_NAEBV?$basic_string@_WU?$char_traits@_W@std@@V?$allocator@_W@2@@std@@AEAV23@@Z 0000000140089a90 f   CZipFile.obj
 0001:00088fb4       ?Unzip@CZipFile@@QEAA_NV?$basic_string@_WU?$char_traits@_W@std@@V?$allocator@_W@2@@std@@@Z 0000000140089fb4 f   CZipFile.obj
 0001:00089140       ?GetCookie@CCookieManager@@QEBA?AUSysString@@PEB_W0@Z 000000014008a140 f   CCookieManager.obj
 0001:00089254       ?GetCookieDefault@CCookieManager@@QEBA?AUSysString@@PEB_W00H@Z 000000014008a254 f   CCookieManager.obj
 0001:0008937c       ?SetCookie@CCookieManager@@QEAAHPEB_W00H@Z 000000014008a37c f   CCookieManager.obj
 0001:00089488       ?DeleteCookie@CCookieManager@@QEAAHPEB_W0@Z 000000014008a488 f   CCookieManager.obj
 0001:000895e0       ?GetCookieNames@CCookieManager@@QEBA?AUSysString@@PEB_W@Z 000000014008a5e0 f   CCookieManager.obj
 0001:0008976c       ?DeleteAll@CCookieManager@@QEAAHPEB_W@Z 000000014008a76c f   CCookieManager.obj
 0001:00089804       ?SelectCookieType@CCookieManager@@AEBAPEAV?$map@V?$basic_string@_WU?$char_traits@_W@std@@V?$allocator@_W@2@@std@@V12@U?$less@V?$basic_string@_WU?$char_traits@_W@std@@V?$allocator@_W@2@@std@@@2@V?$allocator@U?$pair@$$CBV?$basic_string@_WU?$char_traits@_W@std@@V?$allocator@_W@2@@std@@V12@@std@@@2@@std@@PEB_W@Z 000000014008a804 f   CCookieManager.obj
 0001:00089860       ?ValidateCookieName@CCookieManager@@AEBA_NPEB_W@Z 000000014008a860 f   CCookieManager.obj
 0001:000898a0       ?_Extract@?$_Tree_val@U?$_Tree_simple_types@U?$pair@$$CBHUSMainMenuWork@@@std@@@std@@@std@@QEAAPEAU?$_Tree_node@U?$pair@$$CBHUSMainMenuWork@@@std@@PEAX@2@V?$_Tree_unchecked_const_iterator@V?$_Tree_val@U?$_Tree_simple_types@U?$pair@$$CBHUSMainMenuWork@@@std@@@std@@@std@@U_Iterator_base0@2@@2@@Z 000000014008a8a0 f i CPropComMainMenu.obj
 0001:000898a0       ?_Extract@?$_Tree_val@U?$_Tree_simple_types@U?$pair@$$CBV?$basic_string@_WU?$char_traits@_W@std@@V?$allocator@_W@2@@std@@V12@@std@@@std@@@std@@QEAAPEAU?$_Tree_node@U?$pair@$$CBV?$basic_string@_WU?$char_traits@_W@std@@V?$allocator@_W@2@@std@@V12@@std@@PEAX@2@V?$_Tree_unchecked_const_iterator@V?$_Tree_val@U?$_Tree_simple_types@U?$pair@$$CBV?$basic_string@_WU?$char_traits@_W@std@@V?$allocator@_W@2@@std@@V12@@std@@@std@@@std@@U_Iterator_base0@2@@2@@Z 000000014008a8a0 f i CCookieManager.obj
 0001:00089d08       ?GetMacroCommandInfo@CEditorIfObj@@UEBAPEAUMacroFuncInfo@@XZ 000000014008ad08 f   CEditorIfObj.obj
 0001:00089d10       ?GetMacroFuncInfo@CEditorIfObj@@UEBAPEAUMacroFuncInfo@@XZ 000000014008ad10 f   CEditorIfObj.obj
 0001:00089d18       ?HandleFunction@CEditorIfObj@@UEAA_NPEAVCEditView@@W4EFunctionCode@@PEBUtagVARIANT@@HAEAU4@@Z 000000014008ad18 f   CEditorIfObj.obj
 0001:00089d40       ?HandleCommand@CEditorIfObj@@UEAA_NPEAVCEditView@@W4EFunctionCode@@QEAPEB_WQEBHH@Z 000000014008ad40 f   CEditorIfObj.obj
 0001:00089d64       ?GetTypeAttr@CIfObjTypeInfo@@UEAAJPEAPEAUtagTYPEATTR@@@Z 000000014008ad64 f i CIfObj.obj
 0001:00089d70       ?GetDocumentation@CIfObjTypeInfo@@UEAAJJPEAPEA_W0PEAK0@Z 000000014008ad70 f i CIfObj.obj
 0001:00089e40       ??0CIfObjTypeInfo@@QEAA@AEBV?$vector@UCMethodInfo@CIfObj@@V?$allocator@UCMethodInfo@CIfObj@@@std@@@std@@AEBV?$basic_string@_WU?$char_traits@_W@std@@V?$allocator@_W@2@@2@@Z 000000014008ae40 f   CIfObj.obj
 0001:00089eb0       ??_ECIfObjTypeInfo@@UEAAPEAXI@Z 000000014008aeb0 f i * CIL library *:* CIL module *
 0001:00089eb0       ??_GCIfObjTypeInfo@@UEAAPEAXI@Z 000000014008aeb0 f i CIfObj.obj
 0001:00089ed4       ?GetFuncDesc@CIfObjTypeInfo@@UEAAJIPEAPEAUtagFUNCDESC@@@Z 000000014008aed4 f   CIfObj.obj
 0001:00089eec       ?GetNames@CIfObjTypeInfo@@UEAAJJPEAPEA_WIPEAI@Z 000000014008aeec f   CIfObj.obj
 0001:00089f30       ??0CIfObj@@QEAA@PEB_W_N@Z  000000014008af30 f   CIfObj.obj
 0001:00089fa4       ??_ECIfObj@@UEAAPEAXI@Z    000000014008afa4 f i * CIL library *:* CIL module *
 0001:00089fa4       ??_GCIfObj@@UEAAPEAXI@Z    000000014008afa4 f i CIfObj.obj
 0001:00089fd8       ??1CIfObj@@UEAA@XZ         000000014008afd8 f   CIfObj.obj
 0001:0008a014       ?QueryInterface@CIfObj@@UEAAJAEBU_GUID@@PEAPEAX@Z 000000014008b014 f   CIfObj.obj
 0001:0008a090       ?Invoke@CIfObj@@UEAAJJAEBU_GUID@@KGPEAUtagDISPPARAMS@@PEAUtagVARIANT@@PEAUtagEXCEPINFO@@PEAI@Z 000000014008b090 f   CIfObj.obj
 0001:0008a124       ?GetTypeInfo@CIfObj@@UEAAJIKPEAPEAUITypeInfo@@@Z 000000014008b124 f   CIfObj.obj
 0001:0008a184       ?GetTypeInfoCount@CIfObj@@UEAAJPEAI@Z 000000014008b184 f   CIfObj.obj
 0001:0008a190       ?GetIDsOfNames@CIfObj@@UEAAJAEBU_GUID@@PEAPEA_WIKPEAJ@Z 000000014008b190 f   CIfObj.obj
 0001:0008a24c       ?AddMethod@CIfObj@@QEAAXPEB_WHPEAGHGP81@EAAJHPEAUtagDISPPARAMS@@PEAUtagVARIANT@@PEAX@Z@Z 000000014008b24c f   CIfObj.obj
 0001:0008a40c       ?Release@?$ImplementsIUnknown@UITypeInfo@@@@UEAAKXZ 000000014008b40c f i CIfObj.obj
 0001:0008a434       ?QueryInterface@?$ImplementsIUnknown@UITypeInfo@@@@UEAAJAEBU_GUID@@PEAPEAX@Z 000000014008b434 f i CIfObj.obj
 0001:0008a43c       ??1?$vector@UCMethodInfo@CIfObj@@V?$allocator@UCMethodInfo@CIfObj@@@std@@@std@@QEAA@XZ 000000014008b43c f i CIfObj.obj
 0001:0008a4b8       ??$_Emplace_reallocate@UCMethodInfo@CIfObj@@@?$vector@UCMethodInfo@CIfObj@@V?$allocator@UCMethodInfo@CIfObj@@@std@@@std@@AEAAPEAUCMethodInfo@CIfObj@@QEAU23@$$QEAU23@@Z 000000014008b4b8 f i CIfObj.obj
 0001:0008a6d8       ??0CKeyMacroMgr@@QEAA@XZ   000000014008b6d8 f   CKeyMacroMgr.obj
 0001:0008a700       ??_ECKeyMacroMgr@@UEAAPEAXI@Z 000000014008b700 f i * CIL library *:* CIL module *
 0001:0008a700       ??_GCKeyMacroMgr@@UEAAPEAXI@Z 000000014008b700 f i CKeyMacroMgr.obj
 0001:0008a734       ??1CKeyMacroMgr@@UEAA@XZ   000000014008b734 f   CKeyMacroMgr.obj
 0001:0008a75c       ?ClearAll@CKeyMacroMgr@@QEAAXXZ 000000014008b75c f   CKeyMacroMgr.obj
 0001:0008a7b0       ?Append@CKeyMacroMgr@@QEAAXW4EFunctionCode@@PEB_JPEAVCEditView@@@Z 000000014008b7b0 f   CKeyMacroMgr.obj
 0001:0008a824       ?Append@CKeyMacroMgr@@QEAAXPEAVCMacro@@@Z 000000014008b824 f   CKeyMacroMgr.obj
 0001:0008a840       ?SaveKeyMacro@CKeyMacroMgr@@QEBAHPEAUHINSTANCE__@@PEB_W@Z 000000014008b840 f   CKeyMacroMgr.obj
 0001:0008a900       ?ExecKeyMacro@CKeyMacroMgr@@UEBA_NPEAVCEditView@@H@Z 000000014008b900 f   CKeyMacroMgr.obj
 0001:0008a960       ?LoadKeyMacro@CKeyMacroMgr@@UEAAHPEAUHINSTANCE__@@PEB_W@Z 000000014008b960 f   CKeyMacroMgr.obj
 0001:0008b488       ?LoadKeyMacroStr@CKeyMacroMgr@@UEAAHPEAUHINSTANCE__@@PEB_W@Z 000000014008c488 f   CKeyMacroMgr.obj
 0001:0008b590       ?Creator@CKeyMacroMgr@@SAPEAVCMacroManagerBase@@PEB_W@Z 000000014008c590 f   CKeyMacroMgr.obj
 0001:0008b5d4       ?declare@CKeyMacroMgr@@SAXXZ 000000014008c5d4 f   CKeyMacroMgr.obj
 0001:0008b648       ?GetW@SysString@@QEAAXPEAPEA_WPEAH@Z 000000014008c648 f i CMacro.obj
 0001:0008b6cc       ??0CMacro@@QEAA@W4EFunctionCode@@@Z 000000014008c6cc f   CMacro.obj
 0001:0008b6e0       ??1CMacro@@QEAA@XZ         000000014008c6e0 f   CMacro.obj
 0001:0008b6e8       ?ClearMacroParam@CMacro@@QEAAXXZ 000000014008c6e8 f   CMacro.obj
 0001:0008b748       ?AddLParam@CMacro@@QEAAXPEB_JPEBVCEditView@@@Z 000000014008c748 f   CMacro.obj
 0001:0008be3c       ?SetStringParam@CMacroParam@@QEAAXPEB_WH@Z 000000014008ce3c f   CMacro.obj
 0001:0008bee4       ?SetIntParam@CMacroParam@@QEAAXH@Z 000000014008cee4 f   CMacro.obj
 0001:0008bf3c       ?AddStringParam@CMacro@@QEAAXPEB_WH@Z 000000014008cf3c f   CMacro.obj
 0001:0008bfb8       ?AddIntParam@CMacro@@QEAAXH@Z 000000014008cfb8 f   CMacro.obj
 0001:0008c024       ?Exec@CMacro@@QEBA_NPEAVCEditView@@H@Z 000000014008d024 f   CMacro.obj
 0001:0008c0f0       ?Save@CMacro@@QEBAXPEAUHINSTANCE__@@AEAVCTextOutputStream@@@Z 000000014008d0f0 f   CMacro.obj
 0001:0008c654       ?HandleCommand@CMacro@@SA_NPEAVCEditView@@W4EFunctionCode@@QEAPEB_WQEBHH@Z 000000014008d654 f   CMacro.obj
 0001:0008e7c8       ?HandleFunction@CMacro@@SA_NPEAVCEditView@@W4EFunctionCode@@PEBUtagVARIANT@@HAEAU4@@Z 000000014008f7c8 f   CMacro.obj
 0001:0009105c       ??$SelectDir@$0BAE@@@YAHPEAUHWND__@@PEB_W1AEAY0BAE@_W@Z 000000014009205c f i CMacro.obj
 0001:00091074       ??$fill@PEA_W_W@std@@YAXQEA_W0AEB_W@Z 0000000140092074 f i CMacro.obj
 0001:00091114       ??$_Is_all_bits_zero@_W@std@@YA_NAEB_W@Z 0000000140092114 f i CMacro.obj
 0001:00091158       ??$_Fill_zero_memset@PEA_W@std@@YAXPEA_W_K@Z 0000000140092158 f i CMacro.obj
 0001:00091164       ??0CMacroFactory@@AEAA@XZ  0000000140092164 f   CMacroFactory.obj
 0001:000911a4       ?Ext2Key@CMacroFactory@@AEAA?AV?$basic_string@_WU?$char_traits@_W@std@@V?$allocator@_W@2@@std@@PEB_W@Z 00000001400921a4 f   CMacroFactory.obj
 0001:0009124c       ?RegisterCreator@CMacroFactory@@QEAA_NP6APEAVCMacroManagerBase@@PEB_W@Z@Z 000000014009224c f   CMacroFactory.obj
 0001:000912cc       ?Create@CMacroFactory@@QEAAPEAVCMacroManagerBase@@PEB_W@Z 00000001400922cc f   CMacroFactory.obj
 0001:0009135c       ??1CMacroBeforeAfter@@UEAA@XZ 000000014009235c f i CMacroManagerBase.obj
 0001:0009135c       ??1CMacroManagerBase@@UEAA@XZ 000000014009235c f i CMacroManagerBase.obj
 0001:00091368       ??_ECMacroBeforeAfter@@UEAAPEAXI@Z 0000000140092368 f i * CIL library *:* CIL module *
 0001:00091368       ??_GCMacroBeforeAfter@@UEAAPEAXI@Z 0000000140092368 f i CMacroManagerBase.obj
 0001:00091394       ?ExecKeyMacroBefore@CMacroBeforeAfter@@UEAAXPEAVCEditView@@H@Z 0000000140092394 f   CMacroManagerBase.obj
 0001:000913c0       ?ExecKeyMacroAfter@CMacroBeforeAfter@@UEAAXPEAVCEditView@@H_N@Z 00000001400923c0 f   CMacroManagerBase.obj
 0001:00091490       ??0CMacroManagerBase@@QEAA@XZ 0000000140092490 f   CMacroManagerBase.obj
 0001:000914ac       ??_ECMacroManagerBase@@UEAAPEAXI@Z 00000001400924ac f i * CIL library *:* CIL module *
 0001:000914ac       ??_GCMacroManagerBase@@UEAAPEAXI@Z 00000001400924ac f i CMacroManagerBase.obj
 0001:000914e0       ?ExecKeyMacro2@CMacroManagerBase@@UEAAXPEAVCEditView@@H@Z 00000001400924e0 f   CMacroManagerBase.obj
 0001:00091530       ??0CPPA@@QEAA@XZ           0000000140092530 f   CPPA.obj
 0001:0009155c       ??_ECPPA@@UEAAPEAXI@Z      000000014009255c f i * CIL library *:* CIL module *
 0001:0009155c       ??_GCPPA@@UEAAPEAXI@Z      000000014009255c f i CPPA.obj
 0001:00091590       ??1CPPA@@UEAA@XZ           0000000140092590 f   CPPA.obj
 0001:000915a0       ?Execute@CPPA@@QEAA_NPEAVCEditView@@H@Z 00000001400925a0 f   CPPA.obj
 0001:000916b8       ??1PpaExecInfo@CPPA@@QEAA@XZ 00000001400926b8 f i CPPA.obj
 0001:000916d8       ?GetDllNameImp@CPPA@@UEAAPEB_WH@Z 00000001400926d8 f   CPPA.obj
 0001:000916e0       ?InitDllImp@CPPA@@MEAA_NXZ 00000001400926e0 f   CPPA.obj
 0001:00091ba4       ?GetDeclarations@CPPA@@SAPEADAEBUMacroFuncInfo@@PEAD@Z 0000000140092ba4 f   CPPA.obj
 0001:00091d98       ?stdStrObj@CPPA@@CAXPEBDHEPEAHPEAPEAD@Z 0000000140092d98 f   CPPA.obj
 0001:00091de4       ?stdError@CPPA@@CAXHPEBD@Z 0000000140092de4 f   CPPA.obj
 0001:00092034       ?stdProc@CPPA@@CAXPEBDHQEAPEBDHPEAH@Z 0000000140093034 f   CPPA.obj
 0001:0009216c       ?stdIntFunc@CPPA@@CAXPEBDHQEAPEBDHPEAH2@Z 000000014009316c f   CPPA.obj
 0001:00092224       ?stdStrFunc@CPPA@@CAXPEBDHQEAPEBDHPEAHPEAPEAD@Z 0000000140093224 f   CPPA.obj
 0001:00092350       ?CallHandleFunction@CPPA@@CA_NHQEAPEBDHPEAUtagVARIANT@@@Z 0000000140093350 f   CPPA.obj
 0001:000925dc       ?auto_sprintf@@YAHPEADPEBDZZ 00000001400935dc f i CPPA.obj
 0001:00092634       ??0CPPAMacroMgr@@QEAA@XZ   0000000140093634 f   CPPAMacroMgr.obj
 0001:0009265c       ??_ECPPAMacroMgr@@UEAAPEAXI@Z 000000014009365c f i * CIL library *:* CIL module *
 0001:0009265c       ??_GCPPAMacroMgr@@UEAAPEAXI@Z 000000014009365c f i CPPAMacroMgr.obj
 0001:00092690       ??1CPPAMacroMgr@@UEAA@XZ   0000000140093690 f   CPPAMacroMgr.obj
 0001:000926bc       ?ExecKeyMacro@CPPAMacroMgr@@UEBA_NPEAVCEditView@@H@Z 00000001400936bc f   CPPAMacroMgr.obj
 0001:000926f4       ?LoadKeyMacro@CPPAMacroMgr@@UEAAHPEAUHINSTANCE__@@PEB_W@Z 00000001400936f4 f   CPPAMacroMgr.obj
 0001:0009282c       ?LoadKeyMacroStr@CPPAMacroMgr@@UEAAHPEAUHINSTANCE__@@PEB_W@Z 000000014009382c f   CPPAMacroMgr.obj
 0001:00092850       ?Creator@CPPAMacroMgr@@SAPEAVCMacroManagerBase@@PEB_W@Z 0000000140093850 f   CPPAMacroMgr.obj
 0001:00092894       ?declare@CPPAMacroMgr@@SAXXZ 0000000140093894 f   CPPAMacroMgr.obj
 0001:0009291c       ??0CSMacroMgr@@QEAA@XZ     000000014009391c f   CSMacroMgr.obj
 0001:000929a8       ??1CSMacroMgr@@QEAA@XZ     00000001400939a8 f   CSMacroMgr.obj
 0001:000929c8       ?ClearAll@CSMacroMgr@@QEAAXXZ 00000001400939c8 f   CSMacroMgr.obj
 0001:00092a40       ?Append@CSMacroMgr@@QEAAHHW4EFunctionCode@@PEB_JPEAVCEditView@@@Z 0000000140093a40 f   CSMacroMgr.obj
 0001:00092b08       ?Exec@CSMacroMgr@@QEAAHHPEAUHINSTANCE__@@PEAVCEditView@@H@Z 0000000140093b08 f   CSMacroMgr.obj
 0001:00092c1c       ?Load@CSMacroMgr@@QEAAHHPEAUHINSTANCE__@@PEB_W1@Z 0000000140093c1c f   CSMacroMgr.obj
 0001:00092dac       ?UnloadAll@CSMacroMgr@@QEAAXXZ 0000000140093dac f   CSMacroMgr.obj
 0001:00092de8       ?Save@CSMacroMgr@@QEAAHHPEAUHINSTANCE__@@PEB_W@Z 0000000140093de8 f   CSMacroMgr.obj
 0001:00092e50       ?Clear@CSMacroMgr@@QEAAXH@Z 0000000140093e50 f   CSMacroMgr.obj
 0001:00092e80       ?GetFuncInfoByID@CSMacroMgr@@SAPEBUMacroFuncInfo@@H@Z 0000000140093e80 f   CSMacroMgr.obj
 0001:00092f1c       ?GetFuncInfoByID@CSMacroMgr@@SAPEA_WPEAUHINSTANCE__@@HPEA_W1@Z 0000000140093f1c f   CSMacroMgr.obj
 0001:00092fac       ?GetFuncInfoByName@CSMacroMgr@@SA?AW4EFunctionCode@@PEAUHINSTANCE__@@PEB_WPEA_W@Z 0000000140093fac f   CSMacroMgr.obj
 0001:000930c0       ?CanFuncIsKeyMacro@CSMacroMgr@@SAHH@Z 00000001400940c0 f   CSMacroMgr.obj
 0001:00093644       ?Idx2Ptr@CSMacroMgr@@AEAAPEAPEAVCMacroManagerBase@@H@Z 0000000140094644 f   CSMacroMgr.obj
 0001:00093670       ?IsSaveOk@CSMacroMgr@@QEAA_NXZ 0000000140094670 f   CSMacroMgr.obj
 0001:000936a0       ?SetTempMacro@CSMacroMgr@@QEAAPEAVCMacroManagerBase@@PEAV2@@Z 00000001400946a0 f   CSMacroMgr.obj
 0001:000936b0       ?AddRef@CWSHSite@@UEAAKXZ  00000001400946b0 f i CWSH.obj
 0001:000936bc       ?Release@CWSHSite@@UEAAKXZ 00000001400946bc f i CWSH.obj
 0001:000936dc       ?QueryInterface@CWSHSite@@UEAAJAEBU_GUID@@PEAPEAX@Z 00000001400946dc f i CWSH.obj
 0001:00093738       ?GetItemInfo@CWSHSite@@UEAAJPEB_WKPEAPEAUIUnknown@@PEAPEAUITypeInfo@@@Z 0000000140094738 f i CWSH.obj
 0001:000937cc       ?OnScriptError@CWSHSite@@UEAAJPEAUIActiveScriptError@@@Z 00000001400947cc f i CWSH.obj
 0001:000938f0       ?GetWindow@CWSHSite@@UEAAJPEAPEAUHWND__@@@Z 00000001400948f0 f i CWSH.obj
 0001:00093910       ??0CWSHClient@@QEAA@PEB_WP6AXPEA_W1PEAX@Z2@Z 0000000140094910 f   CWSH.obj
 0001:00093a74       ??1CWSHClient@@QEAA@XZ     0000000140094a74 f   CWSH.obj
 0001:00093cc0       ?Execute@CWSHClient@@QEAA_NPEB_W@Z 0000000140094cc0 f   CWSH.obj
 0001:00093ee0       ?Error@CWSHClient@@QEAAXPEA_W0@Z 0000000140094ee0 f   CWSH.obj
 0001:00093f04       ?Error@CWSHClient@@QEAAXPEB_W@Z 0000000140094f04 f   CWSH.obj
 0001:00093f68       ?AddInterfaceObject@CWSHClient@@QEAAXPEAVCIfObj@@@Z 0000000140094f68 f   CWSH.obj
 0001:00093fd8       ?QueryInterface@CWSHSite@@W7EAAJAEBU_GUID@@PEAPEAX@Z 0000000140094fd8 f i CWSH.obj
 0001:00093fe4       ?AddRef@CWSHSite@@W7EAAKXZ 0000000140094fe4 f i CWSH.obj
 0001:00093ff0       ?Release@CWSHSite@@W7EAAKXZ 0000000140094ff0 f i CWSH.obj
 0001:00093ffc       ?ReadyMethods@CWSHIfObj@@UEAAXPEAVCEditView@@H@Z 0000000140094ffc f   CWSHIfObj.obj
 0001:0009404c       ?ReadyCommands@CWSHIfObj@@IEAAXPEAUMacroFuncInfo@@H@Z 000000014009504c f   CWSHIfObj.obj
 0001:000941a4       ?MacroCommand@CWSHIfObj@@IEAAJHPEAUtagDISPPARAMS@@PEAUtagVARIANT@@PEAX@Z 00000001400951a4 f   CWSHIfObj.obj
 0001:00094558       ??_ECEditorIfObj@@UEAAPEAXI@Z 0000000140095558 f i * CIL library *:* CIL module *
 0001:00094558       ??_GCEditorIfObj@@UEAAPEAXI@Z 0000000140095558 f i CWSHManager.obj
 0001:000945a4       ??0CWSHMacroManager@@QEAA@V?$basic_string@_WU?$char_traits@_W@std@@V?$allocator@_W@2@@std@@@Z 00000001400955a4 f   CWSHManager.obj
 0001:00094664       ??_ECWSHMacroManager@@UEAAPEAXI@Z 0000000140095664 f i * CIL library *:* CIL module *
 0001:00094664       ??_GCWSHMacroManager@@UEAAPEAXI@Z 0000000140095664 f i CWSHManager.obj
 0001:00094698       ??1CWSHMacroManager@@UEAA@XZ 0000000140095698 f   CWSHManager.obj
 0001:0009470c       ?ExecKeyMacro@CWSHMacroManager@@UEBA_NPEAVCEditView@@H@Z 000000014009570c f   CWSHManager.obj
 0001:00094838       ?LoadKeyMacro@CWSHMacroManager@@UEAAHPEAUHINSTANCE__@@PEB_W@Z 0000000140095838 f   CWSHManager.obj
 0001:00094938       ?LoadKeyMacroStr@CWSHMacroManager@@UEAAHPEAUHINSTANCE__@@PEB_W@Z 0000000140095938 f   CWSHManager.obj
 0001:00094954       ?Creator@CWSHMacroManager@@SAPEAVCMacroManagerBase@@PEB_W@Z 0000000140095954 f   CWSHManager.obj
 0001:00094aa4       ?declare@CWSHMacroManager@@SAXXZ 0000000140095aa4 f   CWSHManager.obj
 0001:00094b18       ?AddParam@CWSHMacroManager@@QEAAXPEAVCWSHIfObj@@@Z 0000000140095b18 f   CWSHManager.obj
 0001:00094b8c       ?AddParam@CWSHMacroManager@@QEAAXAEAV?$list@PEAVCWSHIfObj@@V?$allocator@PEAVCWSHIfObj@@@std@@@std@@@Z 0000000140095b8c f   CWSHManager.obj
 0001:00094ca4       ?ClearParam@CWSHMacroManager@@QEAAXXZ 0000000140095ca4 f   CWSHManager.obj
 0001:00094cfc       ??1?$_List_node_insert_op2@V?$allocator@U?$_List_node@PEAVCWSHIfObj@@PEAX@std@@@std@@@std@@QEAA@XZ 0000000140095cfc f i CWSHManager.obj
 0001:00094d3c       ??0CMemory@@QEAA@PEBX_K@Z  0000000140095d3c f   CMemory.obj
 0001:00094d5c       ??0CMemory@@QEAA@AEBV0@@Z  0000000140095d5c f   CMemory.obj
 0001:00094d7c       ??0CMemory@@QEAA@$$QEAV0@@Z 0000000140095d7c f   CMemory.obj
 0001:00094d98       ??1CMemory@@QEAA@XZ        0000000140095d98 f   CMemory.obj
 0001:00094da0       ?SwapHLByte@CMemory@@SAXPEAD_K@Z 0000000140095da0 f   CMemory.obj
 0001:00094e1c       ?SwapHLByte@CMemory@@QEAAXXZ 0000000140095e1c f   CMemory.obj
 0001:00094e78       ?AllocBuffer@CMemory@@QEAAX_K@Z 0000000140095e78 f   CMemory.obj
 0001:00094f24       ?SetRawData@CMemory@@QEAAXPEBX_K@Z 0000000140095f24 f   CMemory.obj
 0001:00094f74       ?SetRawData@CMemory@@QEAAXAEBV1@@Z 0000000140095f74 f   CMemory.obj
 0001:00094f80       ?SetRawDataHoldBuffer@CMemory@@QEAAXPEBX_K@Z 0000000140095f80 f   CMemory.obj
 0001:00094fc8       ?SetRawDataHoldBuffer@CMemory@@QEAAXAEBV1@@Z 0000000140095fc8 f   CMemory.obj
 0001:00094fd4       ?AppendRawData@CMemory@@QEAAXPEBX_K@Z 0000000140095fd4 f   CMemory.obj
 0001:0009504c       ?Reset@CMemory@@QEAAXXZ    000000014009604c f   CMemory.obj
 0001:0009506c       ?_AppendSz@CMemory@@QEAAXV?$basic_string_view@DU?$char_traits@D@std@@@std@@@Z 000000014009606c f   CMemory.obj
 0001:00095078       ?_SetRawLength@CMemory@@QEAAX_K@Z 0000000140096078 f   CMemory.obj
 0001:000950d4       ?swap@CMemory@@QEAAXAEAV1@@Z 00000001400960d4 f   CMemory.obj
 0001:00095100       ??4CMemory@@QEAAAEAV0@AEBV0@@Z 0000000140096100 f   CMemory.obj
 0001:0009511c       ??4CMemory@@QEAAAEAV0@$$QEAV0@@Z 000000014009611c f   CMemory.obj
 0001:00095150       ?Clear@CNative@@QEAAXXZ    0000000140096150 f   CNative.obj
 0001:00095158       ??0CNativeA@@QEAA@PEBD@Z   0000000140096158 f   CNativeA.obj
 0001:00095180       ?SetString@CNativeA@@QEAAXPEBD@Z 0000000140096180 f   CNativeA.obj
 0001:000951a0       ?SetString@CNativeA@@QEAAXPEBD_K@Z 00000001400961a0 f   CNativeA.obj
 0001:000951a8       ?AppendString@CNativeA@@QEAAXPEBD@Z 00000001400961a8 f   CNativeA.obj
 0001:000951d8       ?AppendString@CNativeA@@QEAAXPEBD_K@Z 00000001400961d8 f   CNativeA.obj
 0001:000951e0       ?AppendStringF@CNativeA@@QEAAXPEBDZZ 00000001400961e0 f   CNativeA.obj
 0001:0009529c       ?GetStringLength@CNativeA@@QEBAHXZ 000000014009629c f   CNativeA.obj
 0001:000952a0       ??0CStringRef@@QEAA@PEB_W_K@Z 00000001400962a0 f   CNativeW.obj
 0001:000952ac       ?At@CStringRef@@QEBA_W_K@Z 00000001400962ac f   CNativeW.obj
 0001:000952cc       ??0CNativeW@@QEAA@PEB_W_K@Z 00000001400962cc f   CNativeW.obj
 0001:000952f4       ??0CNativeW@@QEAA@PEB_W@Z  00000001400962f4 f   CNativeW.obj
 0001:0009531c       ?SetString@CNativeW@@QEAAXPEB_W_K@Z 000000014009631c f   CNativeW.obj
 0001:00095324       ?SetString@CNativeW@@QEAAXPEB_W@Z 0000000140096324 f   CNativeW.obj
 0001:00095344       ?SetStringHoldBuffer@CNativeW@@QEAAXPEB_W_K@Z 0000000140096344 f   CNativeW.obj
 0001:0009534c       ?SetNativeData@CNativeW@@QEAAXAEBV1@@Z 000000014009634c f   CNativeW.obj
 0001:00095354       ?AllocStringBuffer@CNativeW@@QEAAX_K@Z 0000000140096354 f   CNativeW.obj
 0001:0009535c       ?AppendString@CNativeW@@QEAAXPEB_W_K@Z 000000014009635c f   CNativeW.obj
 0001:00095364       ?AppendString@CNativeW@@QEAAXV?$basic_string_view@_WU?$char_traits@_W@std@@@std@@@Z 0000000140096364 f   CNativeW.obj
 0001:00095370       ?AppendStringF@CNativeW@@QEAAXV?$basic_string_view@_WU?$char_traits@_W@std@@@std@@ZZ 0000000140096370 f   CNativeW.obj
 0001:0009546c       ?AppendNativeData@CNativeW@@QEAAXAEBV1@@Z 000000014009646c f   CNativeW.obj
 0001:00095478       ??ACNativeW@@QEBA_W_K@Z    0000000140096478 f   CNativeW.obj
 0001:00095494       ?Compare@CNativeW@@QEBAHAEBV1@@Z 0000000140096494 f   CNativeW.obj
 0001:00095508       ?IsEqual@CNativeW@@SA_NAEBV1@0@Z 0000000140096508 f   CNativeW.obj
 0001:00095550       ?Replace@CNativeW@@QEAAXV?$basic_string_view@_WU?$char_traits@_W@std@@@std@@0@Z 0000000140096550 f   CNativeW.obj
 0001:0009568c       ?Replace@CNativeW@@QEAAXPEB_W_K01@Z 000000014009668c f   CNativeW.obj
 0001:000956cc       ?GetSizeOfChar@CNativeW@@SAHPEB_WHH@Z 00000001400966cc f   CNativeW.obj
 0001:0009571c       ?GetKetaOfChar@CNativeW@@SAHPEB_WHHAEAVCCharWidthCache@@@Z 000000014009671c f   CNativeW.obj
 0001:000957a8       ?GetHabaOfChar@CNativeW@@SAHPEB_WHH_NAEAVCCharWidthCache@@@Z 00000001400967a8 f   CNativeW.obj
 0001:00095884       ?GetCharNext@CNativeW@@SAPEB_WPEB_WH0@Z 0000000140096884 f   CNativeW.obj
 0001:000958c4       ?GetCharPrev@CNativeW@@SAPEB_WPEB_W_K0@Z 00000001400968c4 f   CNativeW.obj
 0001:00095918       ?GetDefaultExtension@CImpExpFileTree@@UEAAPEB_WXZ 0000000140096918 f i CDlgFileTree.obj
 0001:00095918       ?GetDefaultExtension@CImpExpMainMenu@@UEAAPEB_WXZ 0000000140096918 f i CPropComMainMenu.obj
 0001:00095918       ?GetDefaultExtension@CImpExpType@@UEAAPEB_WXZ 0000000140096918 f i CDlgTypeList.obj
 0001:00095920       ?GetOriginExtension@CImpExpFileTree@@UEAAPEB_WXZ 0000000140096920 f i CDlgFileTree.obj
 0001:00095920       ?GetOriginExtension@CImpExpMainMenu@@UEAAPEB_WXZ 0000000140096920 f i CPropComMainMenu.obj
 0001:00095920       ?GetOriginExtension@CImpExpType@@UEAAPEB_WXZ 0000000140096920 f i CDlgTypeList.obj
 0001:00095928       ??0CDlgFileTree@@QEAA@XZ   0000000140096928 f   CDlgFileTree.obj
 0001:00095984       ??_ECDlgFileTree@@UEAAPEAXI@Z 0000000140096984 f i * CIL library *:* CIL module *
 0001:00095984       ??_GCDlgFileTree@@UEAAPEAXI@Z 0000000140096984 f i CDlgFileTree.obj
 0001:000959b8       ??1CDlgFileTree@@UEAA@XZ   00000001400969b8 f i CDlgFileTree.obj
 0001:00095a38       ?DoModal@CDlgFileTree@@QEAAHPEAUHINSTANCE__@@PEAUHWND__@@_J@Z 0000000140096a38 f   CDlgFileTree.obj
 0001:00095aec       ?SetData@CDlgFileTree@@EEAAXXZ 0000000140096aec f   CDlgFileTree.obj
 0001:00095e18       ?SetDataItem@CDlgFileTree@@AEAAXH@Z 0000000140096e18 f   CDlgFileTree.obj
 0001:00096038       ?ChangeEnableItemType@CDlgFileTree@@AEAAXXZ 0000000140097038 f   CDlgFileTree.obj
 0001:00096184       ?ChangeEnableAddInsert@CDlgFileTree@@AEAAXXZ 0000000140097184 f   CDlgFileTree.obj
 0001:00096220       ?GetData@CDlgFileTree@@EEAAHXZ 0000000140097220 f   CDlgFileTree.obj
 0001:00096528       ??1CImpExpColors@@QEAA@XZ  0000000140097528 f i CImpExpManager.obj
 0001:00096528       ??1CImpExpCustMenu@@QEAA@XZ 0000000140097528 f i CPropComCustmenu.obj
 0001:00096528       ??1CImpExpFileTree@@QEAA@XZ 0000000140097528 f i CDlgFileTree.obj
 0001:00096528       ??1CImpExpKeyHelp@@QEAA@XZ 0000000140097528 f i CPropTypesKeyHelp.obj
 0001:00096528       ??1CImpExpKeyWord@@QEAA@XZ 0000000140097528 f i CPropComKeyword.obj
 0001:00096528       ??1CImpExpKeybind@@QEAA@XZ 0000000140097528 f i CPropComKeybind.obj
 0001:00096528       ??1CImpExpMainMenu@@QEAA@XZ 0000000140097528 f i CPropComMainMenu.obj
 0001:00096528       ??1CImpExpRegex@@QEAA@XZ   0000000140097528 f i CPropTypesRegex.obj
 0001:00096548       ?GetDataTree@CDlgFileTree@@AEAA_NAEAV?$vector@USFileTreeItem@@V?$allocator@USFileTreeItem@@@std@@@std@@PEAU_TREEITEM@@HH@Z 0000000140097548 f   CDlgFileTree.obj
 0001:000966b0       ?GetDataItem@CDlgFileTree@@AEAAHAEAUSFileTreeItem@@@Z 00000001400976b0 f   CDlgFileTree.obj
 0001:00096804       ?OnInitDialog@CDlgFileTree@@EEAAHPEAUHWND__@@_K_J@Z 0000000140097804 f   CDlgFileTree.obj
 0001:0009691c       ?SetDataInit@CDlgFileTree@@AEAAXXZ 000000014009791c f   CDlgFileTree.obj
 0001:00096b80       ?InsertTreeItem@CDlgFileTree@@AEAAPEAU_TREEITEM@@AEAUSFileTreeItem@@PEAU2@1@Z 0000000140097b80 f   CDlgFileTree.obj
 0001:00096e80       ?OnBnClicked@CDlgFileTree@@EEAAHH@Z 0000000140097e80 f   CDlgFileTree.obj
 0001:0009859c       ?OnNotify@CDlgFileTree@@EEAAHPEAUtagNMHDR@@@Z 000000014009959c f   CDlgFileTree.obj
 0001:00098700       ?GetHelpIdTable@CDlgFileTree@@EEAAPEAXXZ 0000000140099700 f   CDlgFileTree.obj
 0001:00098708       ??1?$vector@USFileTreeItem@@V?$allocator@USFileTreeItem@@@std@@@std@@QEAA@XZ 0000000140099708 f i CDlgFileTree.obj
 0001:00098784       ??$_Resize_reallocate@U_Value_init_tag@std@@@?$vector@PEAU_TREEITEM@@V?$allocator@PEAU_TREEITEM@@@std@@@std@@AEAAX_KAEBU_Value_init_tag@1@@Z 0000000140099784 f i CDlgFileTree.obj
 0001:00098870       ??$_Emplace_reallocate@AEBUSFileTreeItem@@@?$vector@USFileTreeItem@@V?$allocator@USFileTreeItem@@@std@@@std@@AEAAPEAUSFileTreeItem@@QEAU2@AEBU2@@Z 0000000140099870 f i CDlgFileTree.obj
 0001:000989d8       ?_Change_array@?$vector@USFileTreeItem@@V?$allocator@USFileTreeItem@@@std@@@std@@AEAAXQEAUSFileTreeItem@@_K1@Z 00000001400999d8 f i CDlgFileTree.obj
 0001:00098a8c       ?MyFillRect@@YA_NQEAUHDC__@@AEBUtagRECT@@QEAUHBRUSH__@@@Z 0000000140099a8c f i CDlgFuncList.obj
 0001:00098b10       ??0CGraphics@@QEAA@PEAUHDC__@@@Z 0000000140099b10 f i CDlgFuncList.obj
 0001:00098b80       ?CompareFunc_Asc@CDlgFuncList@@KAH_J00@Z 0000000140099b80 f   CDlgFuncList.obj
 0001:00098c14       ?CompareFunc_Desc@CDlgFuncList@@KAH_J00@Z 0000000140099c14 f   CDlgFuncList.obj
 0001:00098c24       ?GetFuncCodeRedraw@CDlgFuncList@@QEAA?AW4EFunctionCode@@H@Z 0000000140099c24 f   CDlgFuncList.obj
 0001:00098c58       ??0CDlgFuncList@@QEAA@XZ   0000000140099c58 f   CDlgFuncList.obj
 0001:00098d70       ??_ECDlgFuncList@@UEAAPEAXI@Z 0000000140099d70 f i * CIL library *:* CIL module *
 0001:00098d70       ??_GCDlgFuncList@@UEAAPEAXI@Z 0000000140099d70 f i CDlgFuncList.obj
 0001:00098da4       ??1CDlgFuncList@@UEAA@XZ   0000000140099da4 f i CDlgFuncList.obj
 0001:00098e3c       ?DispatchEvent@CDlgFuncList@@MEAA_JPEAUHWND__@@I_K_J@Z 0000000140099e3c f   CDlgFuncList.obj
 0001:000990f0       ?DoModeless@CDlgFuncList@@QEAAPEAUHWND__@@PEAUHINSTANCE__@@PEAU2@_JPEAVCFuncInfoArr@@HHHH_N@Z 000000014009a0f0 f   CDlgFuncList.obj
 0001:00099378       ?SetData@CDlgFuncList@@MEAAXXZ 000000014009a378 f   CDlgFuncList.obj
 0001:0009a07c       ?GetTreeFileFullName@CDlgFuncList@@IEAA_NPEAUHWND__@@PEAU_TREEITEM@@PEAV?$basic_string@_WU?$char_traits@_W@std@@V?$allocator@_W@2@@std@@PEAH@Z 000000014009b07c f   CDlgFuncList.obj
 0001:0009a398       ?GetData@CDlgFuncList@@MEAAHXZ 000000014009b398 f   CDlgFuncList.obj
 0001:0009a560       ?SetTreeJava@CDlgFuncList@@IEAAXPEAUHWND__@@PEAU_TREEITEM@@H@Z 000000014009b560 f   CDlgFuncList.obj
 0001:0009b33c       ?SetListVB@CDlgFuncList@@IEAAXXZ 000000014009c33c f   CDlgFuncList.obj
 0001:0009b9c8       ?SetTree@CDlgFuncList@@IEAAXPEAU_TREEITEM@@_N1@Z 000000014009c9c8 f   CDlgFuncList.obj
 0001:0009bd94       ?SetDocLineFuncList@CDlgFuncList@@IEAAXXZ 000000014009cd94 f   CDlgFuncList.obj
 0001:0009be24       ?SetTreeFile@CDlgFuncList@@IEAAXXZ 000000014009ce24 f   CDlgFuncList.obj
 0001:0009c2d4       ?SetTreeFileSub@CDlgFuncList@@IEAAXPEAU_TREEITEM@@PEB_W@Z 000000014009d2d4 f   CDlgFuncList.obj
 0001:0009c814       ?OnInitDialog@CDlgFuncList@@MEAAHPEAUHWND__@@_K_J@Z 000000014009d814 f   CDlgFuncList.obj
 0001:0009cec4       ?OnBnClicked@CDlgFuncList@@MEAAHH@Z 000000014009dec4 f   CDlgFuncList.obj
 0001:0009d254       ?OnNotify@CDlgFuncList@@MEAAHPEAUtagNMHDR@@@Z 000000014009e254 f   CDlgFuncList.obj
 0001:0009d598       ?SortListView@CDlgFuncList@@IEAAXPEAUHWND__@@H@Z 000000014009e598 f   CDlgFuncList.obj
 0001:0009d76c       ?OnSize@CDlgFuncList@@MEAAH_K_J@Z 000000014009e76c f   CDlgFuncList.obj
 0001:0009d8ec       ?OnMinMaxInfo@CDlgFuncList@@IEAAH_J@Z 000000014009e8ec f   CDlgFuncList.obj
 0001:0009d9c8       ?OnDestroy@CDlgFuncList@@MEAAHXZ 000000014009e9c8 f   CDlgFuncList.obj
 0001:0009db74       ?OnCbnSelEndOk@CDlgFuncList@@MEAAHPEAUHWND__@@H@Z 000000014009eb74 f   CDlgFuncList.obj
 0001:0009de28       ?SortTree@CDlgFuncList@@IEAAXPEAUHWND__@@PEAU_TREEITEM@@@Z 000000014009ee28 f   CDlgFuncList.obj
 0001:0009debc       ?TagJumpTimer@CDlgFuncList@@IEAA_NPEB_WVCMyPoint@@_N@Z 000000014009eebc f   CDlgFuncList.obj
 0001:0009e000       ?OnJump@CDlgFuncList@@IEAAH_N0@Z 000000014009f000 f   CDlgFuncList.obj
 0001:0009e184       ?GetHelpIdTable@CDlgFuncList@@MEAAPEAXXZ 000000014009f184 f   CDlgFuncList.obj
 0001:0009e18c       ?Key2Command@CDlgFuncList@@IEAAXG@Z 000000014009f18c f   CDlgFuncList.obj
 0001:0009e27c       ?Redraw@CDlgFuncList@@QEAAXHHPEAVCFuncInfoArr@@HH@Z 000000014009f27c f   CDlgFuncList.obj
 0001:0009e350       ?SetWindowTextW@CDlgFuncList@@QEAAXPEB_W@Z 000000014009f350 f   CDlgFuncList.obj
 0001:0009e35c       ?SyncColor@CDlgFuncList@@QEAAXXZ 000000014009f35c f   CDlgFuncList.obj
 0001:0009e4b8       ?GetDockSpaceRect@CDlgFuncList@@IEAAXPEAUtagRECT@@@Z 000000014009f4b8 f   CDlgFuncList.obj
 0001:0009e5b0       ?GetCaptionRect@CDlgFuncList@@IEAAXPEAUtagRECT@@@Z 000000014009f5b0 f   CDlgFuncList.obj
 0001:0009e66c       ?GetCaptionButtonRect@CDlgFuncList@@IEAA_NHPEAUtagRECT@@@Z 000000014009f66c f   CDlgFuncList.obj
 0001:0009e6e0       ?HitTestSplitter@CDlgFuncList@@IEAA_NHH@Z 000000014009f6e0 f   CDlgFuncList.obj
 0001:0009e7b8       ?HitTestCaptionButton@CDlgFuncList@@IEAAHHH@Z 000000014009f7b8 f   CDlgFuncList.obj
 0001:0009e884       ?OnNcCalcSize@CDlgFuncList@@IEAA_JPEAUHWND__@@I_K_J@Z 000000014009f884 f   CDlgFuncList.obj
 0001:0009e91c       ?OnNcHitTest@CDlgFuncList@@IEAA_JPEAUHWND__@@I_K_J@Z 000000014009f91c f   CDlgFuncList.obj
 0001:0009e9f8       ?OnTimer@CDlgFuncList@@IEAA_JPEAUHWND__@@I_K_J@Z 000000014009f9f8 f   CDlgFuncList.obj
 0001:0009ebb8       ?OnNcMouseMove@CDlgFuncList@@IEAA_JPEAUHWND__@@I_K_J@Z 000000014009fbb8 f   CDlgFuncList.obj
 0001:0009ed30       ?OnMouseMove@CDlgFuncList@@IEAA_JPEAUHWND__@@I_K_J@Z 000000014009fd30 f   CDlgFuncList.obj
 0001:0009f0e0       ?OnNcLButtonDown@CDlgFuncList@@IEAA_JPEAUHWND__@@I_K_J@Z 00000001400a00e0 f   CDlgFuncList.obj
 0001:0009f238       ?OnLButtonUp@CDlgFuncList@@IEAA_JPEAUHWND__@@I_K_J@Z 00000001400a0238 f   CDlgFuncList.obj
 0001:0009f360       ?OnNcPaint@CDlgFuncList@@IEAA_JPEAUHWND__@@I_K_J@Z 00000001400a0360 f   CDlgFuncList.obj
 0001:0009f838       ?DoMenu@CDlgFuncList@@IEAAXUtagPOINT@@PEAUHWND__@@@Z 00000001400a0838 f   CDlgFuncList.obj
 0001:000a0470       ?Refresh@CDlgFuncList@@QEAAXXZ 00000001400a1470 f   CDlgFuncList.obj
 0001:000a0500       ?ChangeLayout@CDlgFuncList@@QEAA_NH@Z 00000001400a1500 f   CDlgFuncList.obj
 0001:000a0988       ?OnOutlineNotify@CDlgFuncList@@QEAAX_K_J@Z 00000001400a1988 f   CDlgFuncList.obj
 0001:000a09c0       ?PostOutlineNotifyToAllEditors@CDlgFuncList@@IEAAH_K_J@Z 00000001400a19c0 f   CDlgFuncList.obj
 0001:000a09f4       ?SetTypeConfig@CDlgFuncList@@IEAAXVCTypeConfig@@AEBUSTypeConfig@@@Z 00000001400a19f4 f   CDlgFuncList.obj
 0001:000a0a18       ?OnContextMenu@CDlgFuncList@@MEAAH_K_J@Z 00000001400a1a18 f   CDlgFuncList.obj
 0001:000a0af4       ?GetDropRect@CDlgFuncList@@IEAA?AW4EDockSide@@UtagPOINT@@0PEAUtagRECT@@_N@Z 00000001400a1af4 f   CDlgFuncList.obj
 0001:000a0fc0       ?Track@CDlgFuncList@@IEAAHUtagPOINT@@@Z 00000001400a1fc0 f   CDlgFuncList.obj
 0001:000a1470       ?LoadFileTreeSetting@CDlgFuncList@@QEAAXAEAVCFileTreeSetting@@AEAV?$StaticString@_W$0BAE@@@@Z 00000001400a2470 f   CDlgFuncList.obj
 0001:000a1888       ?NotifyCaretMovement@CDlgFuncList@@QEAAXHH@Z 00000001400a2888 f   CDlgFuncList.obj
 0001:000a1908       ?NotifyDocModification@CDlgFuncList@@QEAAXXZ 00000001400a2908 f   CDlgFuncList.obj
 0001:000a1910       ?SetItemSelection@CDlgFuncList@@IEAAXH_N@Z 00000001400a2910 f   CDlgFuncList.obj
 0001:000a1984       ?SetItemSelectionForTreeView@CDlgFuncList@@IEAAXPEAUHWND__@@H_N@Z 00000001400a2984 f   CDlgFuncList.obj
 0001:000a1c34       ?SetItemSelectionForListView@CDlgFuncList@@IEAAXPEAUHWND__@@H@Z 00000001400a2c34 f   CDlgFuncList.obj
 0001:000a1d4c       ?GetFuncInfoIndex@CDlgFuncList@@IEAA_NHHPEAH@Z 00000001400a2d4c f   CDlgFuncList.obj
 0001:000a1e70       ?getInstance@?$TSingleton@VCUxTheme@@@@SAPEAVCUxTheme@@XZ 00000001400a2e70 f i CDlgFuncList.obj
 0001:000a1ee0       ?resize@?$vector@USFileTreeItem@@V?$allocator@USFileTreeItem@@@std@@@std@@QEAAX_K@Z 00000001400a2ee0 f i CDlgFuncList.obj
 0001:000a1fa0       ?_Reallocate_exactly@?$vector@PEAU_TREEITEM@@V?$allocator@PEAU_TREEITEM@@@std@@@std@@AEAAX_K@Z 00000001400a2fa0 f i CDlgFuncList.obj
 0001:000a2028       ??$wcsncmp_literal@$09@@YAHPEB_WAEAY09$$CB_W@Z 00000001400a3028 f i CDlgFuncList.obj
 0001:000a2034       ??$_Resize_reallocate@U_Value_init_tag@std@@@?$vector@USFileTreeItem@@V?$allocator@USFileTreeItem@@@std@@@std@@AEAAX_KAEBU_Value_init_tag@1@@Z 00000001400a3034 f i CDlgFuncList.obj
 0001:000a218c       ??0CFuncInfo@@QEAA@HHHHPEB_W0H@Z 00000001400a318c f   CFuncInfo.obj
 0001:000a2204       ??1CFuncInfo@@QEAA@XZ      00000001400a3204 f   CFuncInfo.obj
 0001:000a2224       ??0CFuncInfoArr@@QEAA@XZ   00000001400a3224 f   CFuncInfoArr.obj
 0001:000a2290       ??1CFuncInfoArr@@QEAA@XZ   00000001400a3290 f   CFuncInfoArr.obj
 0001:000a22b0       ?Empty@CFuncInfoArr@@QEAAXXZ 00000001400a32b0 f   CFuncInfoArr.obj
 0001:000a23b0       ?GetAt@CFuncInfoArr@@QEAAPEAVCFuncInfo@@H@Z 00000001400a33b0 f   CFuncInfoArr.obj
 0001:000a23d0       ?AppendData@CFuncInfoArr@@QEAAXPEAVCFuncInfo@@@Z 00000001400a33d0 f   CFuncInfoArr.obj
 0001:000a2454       ?AppendData@CFuncInfoArr@@QEAAXHHHHPEB_W0HH@Z 00000001400a3454 f   CFuncInfoArr.obj
 0001:000a2508       ?AppendData@CFuncInfoArr@@QEAAXHHPEB_WHH@Z 00000001400a3508 f   CFuncInfoArr.obj
 0001:000a2548       ?SetAppendText@CFuncInfoArr@@QEAAXHV?$basic_string@_WU?$char_traits@_W@std@@V?$allocator@_W@2@@std@@_N@Z 00000001400a3548 f   CFuncInfoArr.obj
 0001:000a2684       ?GetAppendText@CFuncInfoArr@@QEAA?AV?$basic_string@_WU?$char_traits@_W@std@@V?$allocator@_W@2@@std@@H@Z 00000001400a3684 f   CFuncInfoArr.obj
 0001:000a2750       ??A?$map@HV?$basic_string@_WU?$char_traits@_W@std@@V?$allocator@_W@2@@std@@U?$less@H@2@V?$allocator@U?$pair@$$CBHV?$basic_string@_WU?$char_traits@_W@std@@V?$allocator@_W@2@@std@@@std@@@2@@std@@QEAAAEAV?$basic_string@_WU?$char_traits@_W@std@@V?$allocator@_W@2@@1@AEBH@Z 00000001400a3750 f i CFuncInfoArr.obj
 0001:000a284c       ??1?$_Tree@V?$_Tmap_traits@HV?$basic_string@_WU?$char_traits@_W@std@@V?$allocator@_W@2@@std@@U?$less@H@2@V?$allocator@U?$pair@$$CBHV?$basic_string@_WU?$char_traits@_W@std@@V?$allocator@_W@2@@std@@@std@@@2@$0A@@std@@@std@@QEAA@XZ 00000001400a384c f i CFuncInfoArr.obj
 0001:000a28b4       ??$insert@AEAU?$pair@HV?$basic_string@_WU?$char_traits@_W@std@@V?$allocator@_W@2@@std@@@std@@$0A@@?$map@HV?$basic_string@_WU?$char_traits@_W@std@@V?$allocator@_W@2@@std@@U?$less@H@2@V?$allocator@U?$pair@$$CBHV?$basic_string@_WU?$char_traits@_W@std@@V?$allocator@_W@2@@std@@@std@@@2@@std@@QEAA?AU?$pair@V?$_Tree_iterator@V?$_Tree_val@U?$_Tree_simple_types@U?$pair@$$CBHV?$basic_string@_WU?$char_traits@_W@std@@V?$allocator@_W@2@@std@@@std@@@std@@@std@@@std@@_N@1@AEAU?$pair@HV?$basic_string@_WU?$char_traits@_W@std@@V?$allocator@_W@2@@std@@@1@@Z 00000001400a38b4 f i CFuncInfoArr.obj
 0001:000a29d4       ??$_Erase_tree@V?$allocator@U?$_Tree_node@U?$pair@$$CBHV?$basic_string@_WU?$char_traits@_W@std@@V?$allocator@_W@2@@std@@@std@@PEAX@std@@@std@@@?$_Tree_val@U?$_Tree_simple_types@U?$pair@$$CBHV?$basic_string@_WU?$char_traits@_W@std@@V?$allocator@_W@2@@std@@@std@@@std@@@std@@QEAAXAEAV?$allocator@U?$_Tree_node@U?$pair@$$CBHV?$basic_string@_WU?$char_traits@_W@std@@V?$allocator@_W@2@@std@@@std@@PEAX@std@@@1@PEAU?$_Tree_node@U?$pair@$$CBHV?$basic_string@_WU?$char_traits@_W@std@@V?$allocator@_W@2@@std@@@std@@PEAX@1@@Z 00000001400a39d4 f i CFuncInfoArr.obj
 0001:000a2a30       ?WhereCurrentWord_2@CWordParse@@SA_NPEB_WHH_NPEAH2PEAVCNativeW@@3@Z 00000001400a3a30 f   CWordParse.obj
 0001:000a2bc8       ?WhatKindOfChar@CWordParse@@SA?AW4ECharKind@@PEB_WHH@Z 00000001400a3bc8 f   CWordParse.obj
 0001:000a2e54       ?WhatKindOfTwoChars@CWordParse@@SA?AW4ECharKind@@W42@0@Z 00000001400a3e54 f   CWordParse.obj
 0001:000a2ed4       ?WhatKindOfTwoChars4KW@CWordParse@@SA?AW4ECharKind@@W42@0@Z 00000001400a3ed4 f   CWordParse.obj
 0001:000a2f50       ?SearchNextWordPosition@CWordParse@@SA_NPEB_WHHPEAHH@Z 00000001400a3f50 f   CWordParse.obj
 0001:000a2fe8       ?SearchNextWordPosition4KW@CWordParse@@SA_NPEB_WHHPEAHH@Z 00000001400a3fe8 f   CWordParse.obj
 0001:000a3078       ?SearchPrevWordPosition@CWordParse@@SA_NPEB_WHHPEAHH@Z 00000001400a4078 f   CWordParse.obj
 0001:000a314c       ?wc_to_c@@YAE_W@Z          00000001400a414c f   CWordParse.obj
 0001:000a315c       ?IsURL@@YAHPEB_WHHPEAH@Z   00000001400a415c f   CWordParse.obj
 0001:000a32b4       ?IsMailAddress@@YAHPEB_WHHPEAH@Z 00000001400a42b4 f   CWordParse.obj
 0001:000a342c       ?IsZenkakuKigou@WCODE@@YA_N_W@Z 00000001400a442c f i CWordParse.obj
 0001:000a3678       ?DetectIndentationStyle@@YAXPEBVCEditDoc@@_KAEAUIndentationStyle@@@Z 00000001400a4678 f   DetectIndentationStyle.obj
 0001:000a37f8       ??0CPlug@@QEAA@AEAVCPlugin@@HV?$basic_string@_WU?$char_traits@_W@std@@V?$allocator@_W@2@@std@@11@Z 00000001400a47f8 f i CDllPlugin.obj
 0001:000a3930       ??_ECPlug@@UEAAPEAXI@Z     00000001400a4930 f i * CIL library *:* CIL module *
 0001:000a3930       ??_GCPlug@@UEAAPEAXI@Z     00000001400a4930 f i CDllPlugin.obj
 0001:000a3990       ??0CDllPlug@@QEAA@AEAVCPlugin@@HV?$basic_string@_WU?$char_traits@_W@std@@V?$allocator@_W@2@@std@@11@Z 00000001400a4990 f i CDllPlugin.obj
 0001:000a3ae4       ??_ECDllPlug@@UEAAPEAXI@Z  00000001400a4ae4 f i * CIL library *:* CIL module *
 0001:000a3ae4       ??_GCDllPlug@@UEAAPEAXI@Z  00000001400a4ae4 f i CDllPlugin.obj
 0001:000a3b44       ?GetPlugs@CDllPlugin@@UEBA?AV?$vector@PEAVCPlug@@V?$allocator@PEAVCPlug@@@std@@@std@@XZ 00000001400a4b44 f i CDllPlugin.obj
 0001:000a3b44       ?GetPlugs@CWSHPlugin@@UEBA?AV?$vector@PEAVCPlug@@V?$allocator@PEAVCPlug@@@std@@@std@@XZ 00000001400a4b44 f i CPluginManager.obj
 0001:000a3b68       ?GetDllNameImp@CDllPlugin@@UEAAPEB_WH@Z 00000001400a4b68 f i CDllPlugin.obj
 0001:000a3b70       ??_ECDllPlugin@@UEAAPEAXI@Z 00000001400a4b70 f i * CIL library *:* CIL module *
 0001:000a3b70       ??_GCDllPlugin@@UEAAPEAXI@Z 00000001400a4b70 f i CDllPlugin.obj
 0001:000a3ba4       ??1CDllPlugin@@UEAA@XZ     00000001400a4ba4 f   CDllPlugin.obj
 0001:000a3c68       ?CreatePlug@CDllPlugin@@UEAAPEAVCPlug@@AEAVCPlugin@@HV?$basic_string@_WU?$char_traits@_W@std@@V?$allocator@_W@2@@std@@11@Z 00000001400a4c68 f   CDllPlugin.obj
 0001:000a3dc8       ?ReadPluginDef@CDllPlugin@@UEAA_NPEAVCDataProfile@@0@Z 00000001400a4dc8 f   CDllPlugin.obj
 0001:000a3e88       ?InvokePlug@CDllPlugin@@UEAA_NPEAVCEditView@@AEAVCPlug@@AEAV?$list@PEAVCWSHIfObj@@V?$allocator@PEAVCWSHIfObj@@@std@@@std@@@Z 00000001400a4e88 f   CDllPlugin.obj
 0001:000a4010       ??0?$vector@PEAVCPlug@@V?$allocator@PEAVCPlug@@@std@@@std@@QEAA@AEBV01@@Z 00000001400a5010 f i CDllPlugin.obj
 0001:000a40e4       ??_ECDllPlugin@@WBII@EAAPEAXI@Z 00000001400a50e4 f i CDllPlugin.obj
 0001:000a40f0       ??0CJackManager@@AEAA@XZ   00000001400a50f0 f   CJackManager.obj
 0001:000a4310       ?GetJackDef@CJackManager@@QEBA?AV?$vector@UtagJackDef@@V?$allocator@UtagJackDef@@@std@@@std@@XZ 00000001400a5310 f   CJackManager.obj
 0001:000a444c       ?RegisterPlug@CJackManager@@QEAA?AW4ERegisterPlugResult@@V?$basic_string@_WU?$char_traits@_W@std@@V?$allocator@_W@2@@std@@PEAVCPlug@@@Z 00000001400a544c f   CJackManager.obj
 0001:000a4648       ?UnRegisterPlug@CJackManager@@QEAA_NV?$basic_string@_WU?$char_traits@_W@std@@V?$allocator@_W@2@@std@@PEAVCPlug@@@Z 00000001400a5648 f   CJackManager.obj
 0001:000a4780       ?GetJackFromName@CJackManager@@AEAA?AW4EJack@@V?$basic_string@_WU?$char_traits@_W@std@@V?$allocator@_W@2@@std@@@Z 00000001400a5780 f   CJackManager.obj
 0001:000a483c       ?GetUsablePlug@CJackManager@@QEAA_NW4EJack@@HPEAV?$vector@PEAVCPlug@@V?$allocator@PEAVCPlug@@@std@@@std@@@Z 00000001400a583c f   CJackManager.obj
 0001:000a48c0       ?InvokePlugins@CJackManager@@QEAAXW4EJack@@PEAVCEditView@@@Z 00000001400a58c0 f   CJackManager.obj
 0001:000a49d4       ?GetCommandCode@CJackManager@@QEBA?AW4EFunctionCode@@H@Z 00000001400a59d4 f   CJackManager.obj
 0001:000a4a8c       ?GetCommandName@CJackManager@@QEBAHHPEA_WH@Z 00000001400a5a8c f   CJackManager.obj
 0001:000a4afc       ?GetCommandCount@CJackManager@@QEBAHXZ 00000001400a5afc f   CJackManager.obj
 0001:000a4b10       ?GetCommandById@CJackManager@@QEBAPEAVCPlug@@H@Z 00000001400a5b10 f   CJackManager.obj
 0001:000a4b58       ?GetPlugs@CJackManager@@QEBAAEBV?$vector@PEAVCPlug@@V?$allocator@PEAVCPlug@@@std@@@std@@W4EJack@@@Z 00000001400a5b58 f   CJackManager.obj
 0001:000a4b64       ?_Reallocate_exactly@?$vector@UtagJackDef@@V?$allocator@UtagJackDef@@@std@@@std@@AEAAX_K@Z 00000001400a5b64 f i CJackManager.obj
 0001:000a4c40       ?_Change_array@?$vector@UtagJackDef@@V?$allocator@UtagJackDef@@@std@@@std@@AEAAXQEAUtagJackDef@@_K1@Z 00000001400a5c40 f i CJackManager.obj
 0001:000a4cfc       ??1?$_Uninitialized_backout_al@V?$allocator@UtagJackDef@@@std@@@std@@QEAA@XZ 00000001400a5cfc f i CJackManager.obj
 0001:000a4d08       ??1?$_Tidy_guard@V?$vector@UtagJackDef@@V?$allocator@UtagJackDef@@@std@@@std@@@std@@QEAA@XZ 00000001400a5d08 f i CJackManager.obj
 0001:000a4d20       ??$_Emplace_reallocate@AEBUtagJackDef@@@?$vector@UtagJackDef@@V?$allocator@UtagJackDef@@@std@@@std@@AEAAPEAUtagJackDef@@QEAU2@AEBU2@@Z 00000001400a5d20 f i CJackManager.obj
 0001:000a5020       ??0CPluginOption@@QEAA@PEAVCPlugin@@V?$basic_string@_WU?$char_traits@_W@std@@V?$allocator@_W@2@@std@@11111H@Z 00000001400a6020 f i CPlugin.obj
 0001:000a52bc       ?CreatePlug@CPlugin@@MEAAPEAVCPlug@@AEAV1@HV?$basic_string@_WU?$char_traits@_W@std@@V?$allocator@_W@2@@std@@11@Z 00000001400a62bc f i CPlugin.obj
 0001:000a5418       ?Invoke@CPlug@@QEAA_NPEAVCEditView@@AEAV?$list@PEAVCWSHIfObj@@V?$allocator@PEAVCWSHIfObj@@@std@@@std@@@Z 00000001400a6418 f   CPlugin.obj
 0001:000a5430       ?GetFunctionCode@CPlug@@QEBA?AW4EFunctionCode@@XZ 00000001400a6430 f   CPlugin.obj
 0001:000a5468       ??0CPlugin@@QEAA@AEBV?$basic_string@_WU?$char_traits@_W@std@@V?$allocator@_W@2@@std@@@Z 00000001400a6468 f   CPlugin.obj
 0001:000a55c8       ??_ECPlugin@@UEAAPEAXI@Z   00000001400a65c8 f i * CIL library *:* CIL module *
 0001:000a55c8       ??_GCPlugin@@UEAAPEAXI@Z   00000001400a65c8 f i CPlugin.obj
 0001:000a55fc       ??1CPlugin@@UEAA@XZ        00000001400a65fc f   CPlugin.obj
 0001:000a57bc       ?ReadPluginDefCommon@CPlugin@@IEAA_NPEAVCDataProfile@@0@Z 00000001400a67bc f   CPlugin.obj
 0001:000a5a68       ?ReadPluginDefPlug@CPlugin@@IEAA_NPEAVCDataProfile@@0@Z 00000001400a6a68 f   CPlugin.obj
 0001:000a6014       ?ReadPluginDefCommand@CPlugin@@IEAA_NPEAVCDataProfile@@0@Z 00000001400a7014 f   CPlugin.obj
 0001:000a6344       ?ReadPluginDefOption@CPlugin@@IEAA_NPEAVCDataProfile@@0@Z 00000001400a7344 f   CPlugin.obj
 0001:000a6c0c       ?GetFilePath@CPlugin@@QEBA?AV?$basic_string@_WU?$char_traits@_W@std@@V?$allocator@_W@2@@std@@AEBV23@@Z 00000001400a7c0c f   CPlugin.obj
 0001:000a6c9c       ?GetFolderName@CPlugin@@QEBA?AV?$basic_string@_WU?$char_traits@_W@std@@V?$allocator@_W@2@@std@@XZ 00000001400a7c9c f   CPlugin.obj
 0001:000a6cf0       ?AddCommand@CPlugin@@UEAAHPEB_W00_N@Z 00000001400a7cf0 f   CPlugin.obj
 0001:000a6e88       ?wstring_split@@YA?AV?$vector@V?$basic_string@_WU?$char_traits@_W@std@@V?$allocator@_W@2@@std@@V?$allocator@V?$basic_string@_WU?$char_traits@_W@std@@V?$allocator@_W@2@@std@@@2@@std@@V?$basic_string@_WU?$char_traits@_W@std@@V?$allocator@_W@2@@2@_W@Z 00000001400a7e88 f   CPlugin.obj
 0001:000a70d8       ?ReadPluginDefString@CPlugin@@IEAA_NPEAVCDataProfile@@0@Z 00000001400a80d8 f   CPlugin.obj
 0001:000a7330       ??0CWSHPlug@@QEAA@AEAVCPlugin@@HV?$basic_string@_WU?$char_traits@_W@std@@V?$allocator@_W@2@@std@@11@Z 00000001400a8330 f i CPluginManager.obj
 0001:000a7484       ??1CWSHPlug@@UEAA@XZ       00000001400a8484 f i CPluginManager.obj
 0001:000a74fc       ??_ECWSHPlug@@UEAAPEAXI@Z  00000001400a84fc f i * CIL library *:* CIL module *
 0001:000a74fc       ??_GCWSHPlug@@UEAAPEAXI@Z  00000001400a84fc f i CPluginManager.obj
 0001:000a7530       ?CreatePlug@CWSHPlugin@@UEAAPEAVCPlug@@AEAVCPlugin@@HV?$basic_string@_WU?$char_traits@_W@std@@V?$allocator@_W@2@@std@@11@Z 00000001400a8530 f i CPluginManager.obj
 0001:000a7690       ??_ECWSHPlugin@@UEAAPEAXI@Z 00000001400a8690 f i * CIL library *:* CIL module *
 0001:000a7690       ??_GCWSHPlugin@@UEAAPEAXI@Z 00000001400a8690 f i CPluginManager.obj
 0001:000a76c4       ??0CPluginManager@@AEAA@XZ 00000001400a86c4 f   CPluginManager.obj
 0001:000a783c       ?UnloadAllPlugin@CPluginManager@@QEAAXXZ 00000001400a883c f   CPluginManager.obj
 0001:000a78d0       ?SearchNewPlugin@CPluginManager@@QEAA_NAEAUCommonSetting@@PEAUHWND__@@@Z 00000001400a88d0 f   CPluginManager.obj
 0001:000a7af0       ?SearchNewPluginDir@CPluginManager@@QEAA_NAEAUCommonSetting@@PEAUHWND__@@AEBV?$basic_string@_WU?$char_traits@_W@std@@V?$allocator@_W@2@@std@@AEA_N@Z 00000001400a8af0 f   CPluginManager.obj
 0001:000a7df0       ?SearchNewPluginZip@CPluginManager@@QEAA_NAEAUCommonSetting@@PEAUHWND__@@AEBV?$basic_string@_WU?$char_traits@_W@std@@V?$allocator@_W@2@@std@@AEA_N@Z 00000001400a8df0 f   CPluginManager.obj
 0001:000a8010       ?InstZipPlugin@CPluginManager@@QEAA_NAEAUCommonSetting@@PEAUHWND__@@AEBV?$basic_string@_WU?$char_traits@_W@std@@V?$allocator@_W@2@@std@@_N@Z 00000001400a9010 f   CPluginManager.obj
 0001:000a8228       ?InstZipPluginSub@CPluginManager@@QEAA_NAEAUCommonSetting@@PEAUHWND__@@AEBV?$basic_string@_WU?$char_traits@_W@std@@V?$allocator@_W@2@@std@@2_NAEA_N@Z 00000001400a9228 f   CPluginManager.obj
 0001:000a8770       ?InstallPlugin@CPluginManager@@QEAAHAEAUCommonSetting@@PEB_WPEAUHWND__@@AEAV?$basic_string@_WU?$char_traits@_W@std@@V?$allocator@_W@2@@std@@_N@Z 00000001400a9770 f   CPluginManager.obj
 0001:000a8db4       ?LoadAllPlugin@CPluginManager@@QEAA_NPEAUCommonSetting@@@Z 00000001400a9db4 f   CPluginManager.obj
 0001:000a91e8       ?LoadPlugin@CPluginManager@@AEAAPEAVCPlugin@@PEB_W00@Z 00000001400aa1e8 f   CPluginManager.obj
 0001:000a977c       ?RegisterPlugin@CPluginManager@@AEAA_NPEAVCPlugin@@@Z 00000001400aa77c f   CPluginManager.obj
 0001:000a988c       ?UnRegisterPlugin@CPluginManager@@AEAA_NPEAVCPlugin@@@Z 00000001400aa88c f   CPluginManager.obj
 0001:000a999c       ?GetPlugin@CPluginManager@@QEAAPEAVCPlugin@@H@Z 00000001400aa99c f   CPluginManager.obj
 0001:000a99c0       ?UninstallPlugin@CPluginManager@@QEAAXAEAUCommonSetting@@H@Z 00000001400aa9c0 f   CPluginManager.obj
 0001:000a99e4       ??1CPluginIfObj@@UEAA@XZ   00000001400aa9e4 f i CWSHPlugin.obj
 0001:000a99f4       ?GetMacroCommandInfo@CPluginIfObj@@UEBAPEAUMacroFuncInfo@@XZ 00000001400aa9f4 f i CWSHPlugin.obj
 0001:000a99fc       ?GetMacroFuncInfo@CPluginIfObj@@UEBAPEAUMacroFuncInfo@@XZ 00000001400aa9fc f i CWSHPlugin.obj
 0001:000a9a04       ?HandleFunction@CPluginIfObj@@UEAA_NPEAVCEditView@@W4EFunctionCode@@PEBUtagVARIANT@@HAEAU4@@Z 00000001400aaa04 f i CWSHPlugin.obj
 0001:000aa080       ?HandleCommand@CPluginIfObj@@UEAA_NPEAVCEditView@@W4EFunctionCode@@QEAPEB_WQEBHH@Z 00000001400ab080 f i CWSHPlugin.obj
 0001:000aa38c       ??_ECPluginIfObj@@UEAAPEAXI@Z 00000001400ab38c f i * CIL library *:* CIL module *
 0001:000aa38c       ??_GCPluginIfObj@@UEAAPEAXI@Z 00000001400ab38c f i CWSHPlugin.obj
 0001:000aa3cc       ??1CWSHPlugin@@UEAA@XZ     00000001400ab3cc f   CWSHPlugin.obj
 0001:000aa424       ?ReadPluginDef@CWSHPlugin@@UEAA_NPEAVCDataProfile@@0@Z 00000001400ab424 f   CWSHPlugin.obj
 0001:000aa4e4       ?InvokePlug@CWSHPlugin@@UEAA_NPEAVCEditView@@AEAVCPlug@@AEAV?$list@PEAVCWSHIfObj@@V?$allocator@PEAVCWSHIfObj@@@std@@@std@@@Z 00000001400ab4e4 f   CWSHPlugin.obj
 0001:000aa6fc       ??0CPrint@@QEAA@XZ         00000001400ab6fc f   CPrint.obj
 0001:000aa710       ??1CPrint@@QEAA@XZ         00000001400ab710 f   CPrint.obj
 0001:000aa748       ?PrintDlgW@CPrint@@QEAAHPEAUtagPDW@@PEAUMYDEVMODE@@@Z 00000001400ab748 f   CPrint.obj
 0001:000aa8d4       ?GetDefaultPrinterW@CPrint@@QEAAHPEAUMYDEVMODE@@@Z 00000001400ab8d4 f   CPrint.obj
 0001:000aaa4c       ?CreateDCW@CPrint@@IEAAPEAUHDC__@@PEAUMYDEVMODE@@PEA_W@Z 00000001400aba4c f   CPrint.obj
 0001:000aaba8       ?GetPrintMetrics@CPrint@@QEAAHPEAUMYDEVMODE@@PEAF11111PEA_W@Z 00000001400abba8 f   CPrint.obj
 0001:000aad5c       ?GetPaperSize@CPrint@@SAHPEAF0PEAUMYDEVMODE@@@Z 00000001400abd5c f   CPrint.obj
 0001:000aae3c       ?PrintOpen@CPrint@@QEAAHPEA_WPEAUMYDEVMODE@@PEAPEAUHDC__@@0@Z 00000001400abe3c f   CPrint.obj
 0001:000aaf18       ?PrintStartPage@CPrint@@QEAAXPEAUHDC__@@@Z 00000001400abf18 f   CPrint.obj
 0001:000aaf24       ?PrintEndPage@CPrint@@QEAAXPEAUHDC__@@@Z 00000001400abf24 f   CPrint.obj
 0001:000aaf30       ?PrintClose@CPrint@@QEAAXPEAUHDC__@@@Z 00000001400abf30 f   CPrint.obj
 0001:000aaf54       ?GetPaperName@CPrint@@SAPEA_WHPEA_W@Z 00000001400abf54 f   CPrint.obj
 0001:000aaf8c       ?FindPaperInfo@CPrint@@KAPEBUPAPER_INFO@@H@Z 00000001400abf8c f   CPrint.obj
 0001:000aafbc       ?SettingInitialize@CPrint@@SAXAEAUPRINTSETTING@@PEB_W@Z 00000001400abfbc f   CPrint.obj
 0001:000ab0cc       ?CalculatePrintableColumns@CPrint@@SAHPEAUPRINTSETTING@@HH@Z 00000001400ac0cc f   CPrint.obj
 0001:000ab118       ?CalculatePrintableLines@CPrint@@SAHPEAUPRINTSETTING@@H@Z 00000001400ac118 f   CPrint.obj
 0001:000ab19c       ?CalcHeaderHeight@CPrint@@SAHPEAUPRINTSETTING@@@Z 00000001400ac19c f   CPrint.obj
 0001:000ab20c       ?CalcFooterHeight@CPrint@@SAHPEAUPRINTSETTING@@@Z 00000001400ac20c f   CPrint.obj
 0001:000ab27c       ??0CPrintPreview@@QEAA@PEAVCEditWnd@@@Z 00000001400ac27c f   CPrintPreview.obj
 0001:000ab344       ??1CPrintPreview@@QEAA@XZ  00000001400ac344 f   CPrintPreview.obj
 0001:000ab3a8       ?OnPaint@CPrintPreview@@QEAA_JPEAUHWND__@@I_K_J@Z 00000001400ac3a8 f   CPrintPreview.obj
 0001:000ab898       ?OnSize@CPrintPreview@@QEAA_J_K_J@Z 00000001400ac898 f   CPrintPreview.obj
 0001:000abb8c       ?OnVScroll@CPrintPreview@@QEAA_J_K_J@Z 00000001400acb8c f   CPrintPreview.obj
 0001:000abcdc       ?OnHScroll@CPrintPreview@@QEAA_J_K_J@Z 00000001400accdc f   CPrintPreview.obj
 0001:000abe18       ?OnMouseMove@CPrintPreview@@QEAA_J_K_J@Z 00000001400ace18 f   CPrintPreview.obj
 0001:000ac008       ?OnMouseWheel@CPrintPreview@@QEAA_J_K_J@Z 00000001400ad008 f   CPrintPreview.obj
 0001:000ac078       ?OnChangeSetting@CPrintPreview@@QEAAXXZ 00000001400ad078 f   CPrintPreview.obj
 0001:000ac0c4       ?OnChangePrintSetting@CPrintPreview@@QEAAXXZ 00000001400ad0c4 f   CPrintPreview.obj
 0001:000ac75c       ?OnPreviewGoDirectPage@CPrintPreview@@QEAAXXZ 00000001400ad75c f   CPrintPreview.obj
 0001:000ac89c       ?OnPreviewGoPage@CPrintPreview@@QEAAXH@Z 00000001400ad89c f   CPrintPreview.obj
 0001:000aca38       ?OnPreviewZoom@CPrintPreview@@QEAAXH@Z 00000001400ada38 f   CPrintPreview.obj
 0001:000acc18       ?OnCheckAntialias@CPrintPreview@@QEAAXXZ 00000001400adc18 f   CPrintPreview.obj
 0001:000acc84       ?OnPrint@CPrintPreview@@QEAAXXZ 00000001400adc84 f   CPrintPreview.obj
 0001:000ad264       ?DrawHeaderFooter@CPrintPreview@@IEAAXPEAUHDC__@@AEBVCMyRect@@_N@Z 00000001400ae264 f   CPrintPreview.obj
 0001:000ad754       ?DrawPageTextFirst@CPrintPreview@@IEAAPEAVCColorStrategy@@H@Z 00000001400ae754 f   CPrintPreview.obj
 0001:000ad8ac       ?DrawPageText@CPrintPreview@@IEAAPEAVCColorStrategy@@PEAUHDC__@@HHHPEAVCDlgCancel@@PEAV2@@Z 00000001400ae8ac f   CPrintPreview.obj
 0001:000add64       ?InitPreviewScrollBar@CPrintPreview@@QEAAXXZ 00000001400aed64 f   CPrintPreview.obj
 0001:000adea4       ?Print_DrawLine@CPrintPreview@@IEAAPEAVCColorStrategy@@PEAUHDC__@@UtagPOINT@@PEB_WHHHHPEBVCLayout@@PEAV2@@Z 00000001400aeea4 f   CPrintPreview.obj
 0001:000ae288       ?Print_DrawBlock@CPrintPreview@@IEAAXPEAUHDC__@@UtagPOINT@@PEB_WHHPEBVCLayout@@HHHHPEBH@Z 00000001400af288 f   CPrintPreview.obj
 0001:000ae42c       ?GetColorStrategy@CPrintPreview@@IEAAPEAVCColorStrategy@@AEBVCStringRef@@HPEAV2@AEA_N@Z 00000001400af42c f   CPrintPreview.obj
 0001:000ae4f4       ?SetPreviewFontHan@CPrintPreview@@IEAAXPEBUtagLOGFONTW@@@Z 00000001400af4f4 f   CPrintPreview.obj
 0001:000ae56c       ?SetPreviewFontZen@CPrintPreview@@IEAAXPEBUtagLOGFONTW@@@Z 00000001400af56c f   CPrintPreview.obj
 0001:000ae5e8       ?MyEnumFontFamProc@CPrintPreview@@SAHPEAUtagENUMLOGFONTW@@PEAUtagNEWTEXTMETRICW@@H_J@Z 00000001400af5e8 f   CPrintPreview.obj
 0001:000ae65c       ?CreatePrintPreviewControls@CPrintPreview@@QEAAXXZ 00000001400af65c f   CPrintPreview.obj
 0001:000ae8d0       ?DestroyPrintPreviewControls@CPrintPreview@@QEAAXXZ 00000001400af8d0 f   CPrintPreview.obj
 0001:000ae930       ?PrintPreviewBar_DlgProc@CPrintPreview@@SA_JPEAUHWND__@@I_K_J@Z 00000001400af930 f   CPrintPreview.obj
 0001:000ae9c0       ?SetFocusToPrintPreviewBar@CPrintPreview@@QEAAXXZ 00000001400af9c0 f   CPrintPreview.obj
 0001:000ae9d8       ?DispatchEvent_PPB@CPrintPreview@@QEAA_JPEAUHWND__@@I_K_J@Z 00000001400af9d8 f   CPrintPreview.obj
 0001:000aebf4       ?CreateFonts@CPrintPreview@@IEAAXPEAUHDC__@@@Z 00000001400afbf4 f   CPrintPreview.obj
 0001:000aef74       ?DestroyFonts@CPrintPreview@@IEAAXXZ 00000001400aff74 f   CPrintPreview.obj
 0001:000af000       ??9MYDEVMODE@@QEBA_NAEBU0@@Z 00000001400b0000 f i CPrintPreview.obj
 0001:000af0ec       ?DlgProc_page@CPropBackup@@SA_JPEAUHWND__@@I_K_J@Z 00000001400b00ec f   CPropComBackup.obj
 0001:000af110       ?DispatchEvent@CPropBackup@@IEAA_JPEAUHWND__@@I_K_J@Z 00000001400b0110 f   CPropComBackup.obj
 0001:000af3f4       ?SetData@CPropBackup@@IEAAXPEAUHWND__@@@Z 00000001400b03f4 f   CPropComBackup.obj
 0001:000af684       ?GetData@CPropBackup@@IEAAHPEAUHWND__@@@Z 00000001400b0684 f   CPropComBackup.obj
 0001:000af964       ?EnableBackupInput@CPropBackup@@AEAAXPEAUHWND__@@@Z 00000001400b0964 f   CPropComBackup.obj
 0001:000b0074       ?UpdateBackupFile@CPropBackup@@AEAAXPEAUHWND__@@@Z 00000001400b1074 f   CPropComBackup.obj
 0001:000b028c       ?GetDefaultExtension@CImpExpCustMenu@@UEAAPEB_WXZ 00000001400b128c f i CPropComCustmenu.obj
 0001:000b0294       ?GetOriginExtension@CImpExpCustMenu@@UEAAPEB_WXZ 00000001400b1294 f i CPropComCustmenu.obj
 0001:000b029c       ?DlgProc_page@CPropCustmenu@@SA_JPEAUHWND__@@I_K_J@Z 00000001400b129c f   CPropComCustmenu.obj
 0001:000b0568       ?DispatchEvent@CPropCustmenu@@IEAA_JPEAUHWND__@@I_K_J@Z 00000001400b1568 f   CPropComCustmenu.obj
 0001:000b136c       ?SetData@CPropCustmenu@@IEAAXPEAUHWND__@@@Z 00000001400b236c f   CPropComCustmenu.obj
 0001:000b1494       ?SetDataMenuList@CPropCustmenu@@IEAAXPEAUHWND__@@H@Z 00000001400b2494 f   CPropComCustmenu.obj
 0001:000b165c       ?Import@CPropCustmenu@@IEAAXPEAUHWND__@@@Z 00000001400b265c f   CPropComCustmenu.obj
 0001:000b1730       ?Export@CPropCustmenu@@IEAAXPEAUHWND__@@@Z 00000001400b2730 f   CPropComCustmenu.obj
 0001:000b17c4       ??$List_GetText@$0BCM@@ApiWrap@@YA_JPEAUHWND__@@HAEAY0BCM@_W@Z 00000001400b27c4 f i CPropComCustmenu.obj
 0001:000b17d0       ?DlgProc_page@CPropEdit@@SA_JPEAUHWND__@@I_K_J@Z 00000001400b27d0 f   CPropComEdit.obj
 0001:000b17f4       ?DispatchEvent@CPropEdit@@IEAA_JPEAUHWND__@@I_K_J@Z 00000001400b27f4 f   CPropComEdit.obj
 0001:000b1a90       ?SetData@CPropEdit@@IEAAXPEAUHWND__@@@Z 00000001400b2a90 f   CPropComEdit.obj
 0001:000b1cbc       ?GetData@CPropEdit@@IEAAHPEAUHWND__@@@Z 00000001400b2cbc f   CPropComEdit.obj
 0001:000b1e80       ?EnableEditPropInput@CPropEdit@@AEAAXPEAUHWND__@@@Z 00000001400b2e80 f   CPropComEdit.obj
 0001:000b1efc       ?DlgProc_page@CPropFile@@SA_JPEAUHWND__@@I_K_J@Z 00000001400b2efc f   CPropComFile.obj
 0001:000b1f44       ?DispatchEvent@CPropFile@@IEAA_JPEAUHWND__@@I_K_J@Z 00000001400b2f44 f   CPropComFile.obj
 0001:000b2244       ?SetData@CPropFile@@IEAAXPEAUHWND__@@@Z 00000001400b3244 f   CPropComFile.obj
 0001:000b24f4       ?GetData@CPropFile@@IEAAHPEAUHWND__@@@Z 00000001400b34f4 f   CPropComFile.obj
 0001:000b2788       ?EnableFilePropInput@CPropFile@@AEAAXPEAUHWND__@@@Z 00000001400b3788 f   CPropComFile.obj
 0001:000b2aac       ?DlgProc_page@CPropFileName@@SA_JPEAUHWND__@@I_K_J@Z 00000001400b3aac f   CPropComFileName.obj
 0001:000b2b50       ?DispatchEvent@CPropFileName@@IEAA_JPEAUHWND__@@I_K_J@Z 00000001400b3b50 f   CPropComFileName.obj
 0001:000b3058       ?SetData@CPropFileName@@IEAAXPEAUHWND__@@@Z 00000001400b4058 f   CPropComFileName.obj
 0001:000b3234       ?GetData@CPropFileName@@IEAAHPEAUHWND__@@@Z 00000001400b4234 f   CPropComFileName.obj
 0001:000b33b8       ?SetListViewItem_FILENAME@CPropFileName@@CAHPEAUHWND__@@HPEA_W1_N@Z 00000001400b43b8 f   CPropComFileName.obj
 0001:000b3504       ?GetListViewItem_FILENAME@CPropFileName@@CAXPEAUHWND__@@HPEA_W1@Z 00000001400b4504 f   CPropComFileName.obj
 0001:000b3598       ?MoveListViewItem_FILENAME@CPropFileName@@CAHPEAUHWND__@@HH@Z 00000001400b4598 f   CPropComFileName.obj
 0001:000b3660       ?DlgProc_page@CPropFormat@@SA_JPEAUHWND__@@I_K_J@Z 00000001400b4660 f   CPropComFormat.obj
 0001:000b3684       ?ChangeDateExample@CPropFormat@@AEAAXPEAUHWND__@@@Z 00000001400b4684 f   CPropComFormat.obj
 0001:000b3714       ?ChangeTimeExample@CPropFormat@@AEAAXPEAUHWND__@@@Z 00000001400b4714 f   CPropComFormat.obj
 0001:000b37a4       ?DispatchEvent@CPropFormat@@IEAA_JPEAUHWND__@@I_K_J@Z 00000001400b47a4 f   CPropComFormat.obj
 0001:000b3998       ?SetData@CPropFormat@@IEAAXPEAUHWND__@@@Z 00000001400b4998 f   CPropComFormat.obj
 0001:000b3a54       ?GetData@CPropFormat@@IEAAHPEAUHWND__@@@Z 00000001400b4a54 f   CPropComFormat.obj
 0001:000b3b1c       ?EnableFormatPropInput@CPropFormat@@AEAAXPEAUHWND__@@@Z 00000001400b4b1c f   CPropComFormat.obj
 0001:000b3c08       ?DlgProc_page@CPropGeneral@@SA_JPEAUHWND__@@I_K_J@Z 00000001400b4c08 f   CPropComGeneral.obj
 0001:000b3c4c       ?DispatchEvent@CPropGeneral@@IEAA_JPEAUHWND__@@I_K_J@Z 00000001400b4c4c f   CPropComGeneral.obj
 0001:000b4064       ?SetData@CPropGeneral@@IEAAXPEAUHWND__@@@Z 00000001400b5064 f   CPropComGeneral.obj
 0001:000b4340       ?GetData@CPropGeneral@@IEAAHPEAUHWND__@@@Z 00000001400b5340 f   CPropComGeneral.obj
 0001:000b4608       ?DlgProc_page@CPropGrep@@SA_JPEAUHWND__@@I_K_J@Z 00000001400b5608 f   CPropComGrep.obj
 0001:000b462c       ?DispatchEvent@CPropGrep@@IEAA_JPEAUHWND__@@I_K_J@Z 00000001400b562c f   CPropComGrep.obj
 0001:000b46f0       ?SetData@CPropGrep@@IEAAXPEAUHWND__@@@Z 00000001400b56f0 f   CPropComGrep.obj
 0001:000b49a0       ?GetData@CPropGrep@@IEAAHPEAUHWND__@@@Z 00000001400b59a0 f   CPropComGrep.obj
 0001:000b4adc       ?SetRegexpVersion@CPropGrep@@AEAAXPEAUHWND__@@@Z 00000001400b5adc f   CPropComGrep.obj
 0001:000b4ba8       ?DlgProc_page@CPropHelper@@SA_JPEAUHWND__@@I_K_J@Z 00000001400b5ba8 f   CPropComHelper.obj
 0001:000b4bcc       ?DispatchEvent@CPropHelper@@IEAA_JPEAUHWND__@@I_K_J@Z 00000001400b5bcc f   CPropComHelper.obj
 0001:000b4f5c       ?SetData@CPropHelper@@IEAAXPEAUHWND__@@@Z 00000001400b5f5c f   CPropComHelper.obj
 0001:000b504c       ?GetData@CPropHelper@@IEAAHPEAUHWND__@@@Z 00000001400b604c f   CPropComHelper.obj
 0001:000b512c       ?GetDefaultExtension@CImpExpKeybind@@UEAAPEB_WXZ 00000001400b612c f i CPropComKeybind.obj
 0001:000b5134       ?GetOriginExtension@CImpExpKeybind@@UEAAPEB_WXZ 00000001400b6134 f i CPropComKeybind.obj
 0001:000b513c       ?DlgProc_page@CPropKeybind@@SA_JPEAUHWND__@@I_K_J@Z 00000001400b613c f   CPropComKeybind.obj
 0001:000b5160       ?DispatchEvent@CPropKeybind@@IEAA_JPEAUHWND__@@I_K_J@Z 00000001400b6160 f   CPropComKeybind.obj
 0001:000b5b44       ?SetData@CPropKeybind@@IEAAXPEAUHWND__@@@Z 00000001400b6b44 f   CPropComKeybind.obj
 0001:000b5be4       ?ChangeKeyList@CPropKeybind@@AEAAXPEAUHWND__@@@Z 00000001400b6be4 f   CPropComKeybind.obj
 0001:000b5db8       ?Import@CPropKeybind@@IEAAXPEAUHWND__@@@Z 00000001400b6db8 f   CPropComKeybind.obj
 0001:000b5e94       ?Export@CPropKeybind@@IEAAXPEAUHWND__@@@Z 00000001400b6e94 f   CPropComKeybind.obj
 0001:000b5f28       ??$List_GetText@$0EAA@@ApiWrap@@YA_JPEAUHWND__@@HAEAY0EAA@_W@Z 00000001400b6f28 f i CPropComKeybind.obj
 0001:000b5f34       ?GetDefaultExtension@CImpExpKeyWord@@UEAAPEB_WXZ 00000001400b6f34 f i CPropComKeyword.obj
 0001:000b5f3c       ?GetOriginExtension@CImpExpKeyWord@@UEAAPEB_WXZ 00000001400b6f3c f i CPropComKeyword.obj
 0001:000b5f44       ?DlgProc_page@CPropKeyword@@SA_JPEAUHWND__@@I_K_J@Z 00000001400b6f44 f   CPropComKeyword.obj
 0001:000b5f68       ?DlgProc_dialog@CPropKeyword@@SA_JPEAUHWND__@@I_K_J@Z 00000001400b6f68 f   CPropComKeyword.obj
 0001:000b5f84       ?DispatchEvent@CPropKeyword@@IEAA_JPEAUHWND__@@I_K_J@Z 00000001400b6f84 f   CPropComKeyword.obj
 0001:000b6b4c       ?Edit_List_KeyWord@CPropKeyword@@AEAAXPEAUHWND__@@0@Z 00000001400b7b4c f   CPropComKeyword.obj
 0001:000b6cdc       ?Delete_List_KeyWord@CPropKeyword@@AEAAXPEAUHWND__@@0@Z 00000001400b7cdc f   CPropComKeyword.obj
 0001:000b6de0       ?Import_List_KeyWord@CPropKeyword@@AEAAXPEAUHWND__@@0@Z 00000001400b7de0 f   CPropComKeyword.obj
 0001:000b6ed0       ?Export_List_KeyWord@CPropKeyword@@AEAAXPEAUHWND__@@0@Z 00000001400b7ed0 f   CPropComKeyword.obj
 0001:000b6f9c       ?Clean_List_KeyWord@CPropKeyword@@AEAAXPEAUHWND__@@0@Z 00000001400b7f9c f   CPropComKeyword.obj
 0001:000b700c       ?SetData@CPropKeyword@@IEAAXPEAUHWND__@@@Z 00000001400b800c f   CPropComKeyword.obj
 0001:000b70cc       ?SetKeyWordSet@CPropKeyword@@AEAAXPEAUHWND__@@H@Z 00000001400b80cc f   CPropComKeyword.obj
 0001:000b73c4       ?DispKeywordCount@CPropKeyword@@AEAAXPEAUHWND__@@@Z 00000001400b83c4 f   CPropComKeyword.obj
 0001:000b74a8       ?DlgProc_page@CPropMacro@@SA_JPEAUHWND__@@I_K_J@Z 00000001400b84a8 f   CPropComMacro.obj
 0001:000b74d8       ?DispatchEvent@CPropMacro@@IEAA_JPEAUHWND__@@I_K_J@Z 00000001400b84d8 f   CPropComMacro.obj
 0001:000b7784       ?SetData@CPropMacro@@IEAAXPEAUHWND__@@@Z 00000001400b8784 f   CPropComMacro.obj
 0001:000b7a04       ?GetData@CPropMacro@@IEAAHPEAUHWND__@@@Z 00000001400b8a04 f   CPropComMacro.obj
 0001:000b7c8c       ?InitDialog@CPropMacro@@AEAAXPEAUHWND__@@@Z 00000001400b8c8c f   CPropComMacro.obj
 0001:000b7ec8       ?SetMacro2List_Macro@CPropMacro@@AEAAXPEAUHWND__@@@Z 00000001400b8ec8 f   CPropComMacro.obj
 0001:000b822c       ?SelectBaseDir_Macro@CPropMacro@@AEAAXPEAUHWND__@@@Z 00000001400b922c f   CPropComMacro.obj
 0001:000b8300       ?OnFileDropdown_Macro@CPropMacro@@AEAAXPEAUHWND__@@@Z 00000001400b9300 f   CPropComMacro.obj
 0001:000b8438       ?CheckListPosition_Macro@CPropMacro@@AEAAXPEAUHWND__@@@Z 00000001400b9438 f   CPropComMacro.obj
 0001:000b8714       ?DlgProc_page@CPropMainMenu@@SA_JPEAUHWND__@@I_K_J@Z 00000001400b9714 f   CPropComMainMenu.obj
 0001:000b8be4       ?DispatchEvent@CPropMainMenu@@IEAA_JPEAUHWND__@@I_K_J@Z 00000001400b9be4 f   CPropComMainMenu.obj
 0001:000b9f60       ?SetData@CPropMainMenu@@IEAAXPEAUHWND__@@@Z 00000001400baf60 f   CPropComMainMenu.obj
 0001:000ba29c       ?GetData@CPropMainMenu@@IEAAHPEAUHWND__@@@Z 00000001400bb29c f   CPropComMainMenu.obj
 0001:000ba33c       ?GetDataTree@CPropMainMenu@@AEAA_NPEAUHWND__@@PEAU_TREEITEM@@H@Z 00000001400bb33c f   CPropComMainMenu.obj
 0001:000ba640       ?Import@CPropMainMenu@@IEAAXPEAUHWND__@@@Z 00000001400bb640 f   CPropComMainMenu.obj
 0001:000ba6f8       ?Export@CPropMainMenu@@IEAAXPEAUHWND__@@@Z 00000001400bb6f8 f   CPropComMainMenu.obj
 0001:000baa70       ?Check_MainMenu@CPropMainMenu@@AEAA_NPEAUHWND__@@AEAV?$basic_string@_WU?$char_traits@_W@std@@V?$allocator@_W@2@@std@@@Z 00000001400bba70 f   CPropComMainMenu.obj
 0001:000baadc       ?Check_MainMenu_Sub@CPropMainMenu@@AEAA_NPEAUHWND__@@PEAU_TREEITEM@@HAEAV?$basic_string@_WU?$char_traits@_W@std@@V?$allocator@_W@2@@std@@@Z 00000001400bbadc f   CPropComMainMenu.obj
 0001:000bb014       ??1?$map@_WPEAU_TREEITEM@@U?$less@_W@std@@V?$allocator@U?$pair@$$CB_WPEAU_TREEITEM@@@std@@@3@@std@@QEAA@XZ 00000001400bc014 f i CPropComMainMenu.obj
 0001:000bb068       ??A?$map@_WPEAU_TREEITEM@@U?$less@_W@std@@V?$allocator@U?$pair@$$CB_WPEAU_TREEITEM@@@std@@@3@@std@@QEAAAEAPEAU_TREEITEM@@AEB_W@Z 00000001400bc068 f i CPropComMainMenu.obj
 0001:000bb150       ??A?$map@HUSMainMenuWork@@U?$less@H@std@@V?$allocator@U?$pair@$$CBHUSMainMenuWork@@@std@@@3@@std@@QEAAAEAUSMainMenuWork@@AEBH@Z 00000001400bc150 f i CPropComMainMenu.obj
 0001:000bb25c       ??A?$map@HUSMainMenuWork@@U?$less@H@std@@V?$allocator@U?$pair@$$CBHUSMainMenuWork@@@std@@@3@@std@@QEAAAEAUSMainMenuWork@@$$QEAH@Z 00000001400bc25c f i CPropComMainMenu.obj
 0001:000bb374       ?clear@?$_Tree@V?$_Tmap_traits@HUSMainMenuWork@@U?$less@H@std@@V?$allocator@U?$pair@$$CBHUSMainMenuWork@@@std@@@3@$0A@@std@@@std@@QEAAXXZ 00000001400bc374 f i CPropComMainMenu.obj
 0001:000bb3ec       ?erase@?$_Tree@V?$_Tmap_traits@HUSMainMenuWork@@U?$less@H@std@@V?$allocator@U?$pair@$$CBHUSMainMenuWork@@@std@@@3@$0A@@std@@@std@@QEAA_KAEBH@Z 00000001400bc3ec f i CPropComMainMenu.obj
 0001:000bb5b0       ??1?$_Tree@V?$_Tmap_traits@HUSMainMenuWork@@U?$less@H@std@@V?$allocator@U?$pair@$$CBHUSMainMenuWork@@@std@@@3@$0A@@std@@@std@@QEAA@XZ 00000001400bc5b0 f i CPropComMainMenu.obj
 0001:000bb618       ?replace@?$basic_string@_WU?$char_traits@_W@std@@V?$allocator@_W@2@@std@@QEAAAEAV12@_K_KQEB_W0@Z 00000001400bc618 f i CPropComMainMenu.obj
 0001:000bb92c       ??$List_GetText@$0BAK@@ApiWrap@@YA_JPEAUHWND__@@HAEAY0BAK@_W@Z 00000001400bc92c f i CPropComMainMenu.obj
 0001:000bb940       ??$_Erase_tree@V?$allocator@U?$_Tree_node@U?$pair@$$CB_WPEAU_TREEITEM@@@std@@PEAX@std@@@std@@@?$_Tree_val@U?$_Tree_simple_types@U?$pair@$$CB_WPEAU_TREEITEM@@@std@@@std@@@std@@QEAAXAEAV?$allocator@U?$_Tree_node@U?$pair@$$CB_WPEAU_TREEITEM@@@std@@PEAX@std@@@1@PEAU?$_Tree_node@U?$pair@$$CB_WPEAU_TREEITEM@@@std@@PEAX@1@@Z 00000001400bc940 f i CPropComMainMenu.obj
 0001:000bb988       ??$_Erase_tree@V?$allocator@U?$_Tree_node@U?$pair@$$CBHUSMainMenuWork@@@std@@PEAX@std@@@std@@@?$_Tree_val@U?$_Tree_simple_types@U?$pair@$$CBHUSMainMenuWork@@@std@@@std@@@std@@QEAAXAEAV?$allocator@U?$_Tree_node@U?$pair@$$CBHUSMainMenuWork@@@std@@PEAX@std@@@1@PEAU?$_Tree_node@U?$pair@$$CBHUSMainMenuWork@@@std@@PEAX@1@@Z 00000001400bc988 f i CPropComMainMenu.obj
 0001:000bb9e4       ??1?$_Alloc_construct_ptr@V?$allocator@U?$_Tree_node@U?$pair@$$CBHUSMainMenuWork@@@std@@PEAX@std@@@std@@@std@@QEAA@XZ 00000001400bc9e4 f i CPropComMainMenu.obj
 0001:000bba00       ?DlgProc@CPropCommon@@KA_JP81@EAA_JPEAUHWND__@@I_K_J@Z0I12@Z 00000001400bca00 f   CPropCommon.obj
 0001:000bbaa8       ?DlgProc2@CPropCommon@@KA_JP81@EAA_JPEAUHWND__@@I_K_J@Z0I12@Z 00000001400bcaa8 f   CPropCommon.obj
 0001:000bbb38       ??0CPropCommon@@QEAA@XZ    00000001400bcb38 f   CPropCommon.obj
 0001:000bbc0c       ??1CPropCommon@@QEAA@XZ    00000001400bcc0c f   CPropCommon.obj
 0001:000bbc18       ?Create@CPropCommon@@QEAAXPEAUHWND__@@PEAVCImageListMgr@@PEAVCMenuDrawer@@@Z 00000001400bcc18 f   CPropCommon.obj
 0001:000bbc38       ?DoPropertySheet@CPropCommon@@QEAA_JH_N@Z 00000001400bcc38 f   CPropCommon.obj
 0001:000bbe7c       ?InitData@CPropCommon@@QEAAXPEBHPEB_W1@Z 00000001400bce7c f   CPropCommon.obj
 0001:000bc068       ?ApplyData@CPropCommon@@QEAAXPEAH@Z 00000001400bd068 f   CPropCommon.obj
 0001:000bc1ec       ?OnHelp@CPropCommon@@IEAAXPEAUHWND__@@H@Z 00000001400bd1ec f   CPropCommon.obj
 0001:000bc300       ?SetCtrlFont@CPropCommon@@IEAAPEAUHFONT__@@PEAUHWND__@@HAEBUtagLOGFONTW@@@Z 00000001400bd300 f   CPropCommon.obj
 0001:000bc350       ?SetFontLabel@CPropCommon@@IEAAPEAUHFONT__@@PEAUHWND__@@HAEBUtagLOGFONTW@@H@Z 00000001400bd350 f   CPropCommon.obj
 0001:000bc47c       ??1?$vector@USKeywordSetIndex@CPropCommon@@V?$allocator@USKeywordSetIndex@CPropCommon@@@std@@@std@@QEAA@XZ 00000001400bd47c f i CPropCommon.obj
 0001:000bc4f4       ??$_Emplace_reallocate@AEBUSKeywordSetIndex@CPropCommon@@@?$vector@USKeywordSetIndex@CPropCommon@@V?$allocator@USKeywordSetIndex@CPropCommon@@@std@@@std@@AEAAPEAUSKeywordSetIndex@CPropCommon@@QEAU23@AEBU23@@Z 00000001400bd4f4 f i CPropCommon.obj
 0001:000bc6cc       ?DlgProc_page@CPropPlugin@@SA_JPEAUHWND__@@I_K_J@Z 00000001400bd6cc f   CPropComPlugin.obj
 0001:000bc6f0       ?DispatchEvent@CPropPlugin@@IEAA_JPEAUHWND__@@I_K_J@Z 00000001400bd6f0 f   CPropComPlugin.obj
 0001:000bd28c       ?SetData@CPropPlugin@@IEAAXPEAUHWND__@@@Z 00000001400be28c f   CPropComPlugin.obj
 0001:000bd2d0       ?SetData_LIST@CPropPlugin@@AEAAXPEAUHWND__@@@Z 00000001400be2d0 f   CPropComPlugin.obj
 0001:000bd67c       ?GetData@CPropPlugin@@IEAAHPEAUHWND__@@@Z 00000001400be67c f   CPropComPlugin.obj
 0001:000bd6a8       ?InitDialog@CPropPlugin@@AEAAXPEAUHWND__@@@Z 00000001400be6a8 f   CPropComPlugin.obj
 0001:000bd7d0       ?EnablePluginPropInput@CPropPlugin@@AEAAXPEAUHWND__@@@Z 00000001400be7d0 f   CPropComPlugin.obj
 0001:000bd8a8       ?GetReadMeFile@CPropPlugin@@QEAA?AV?$basic_string@_WU?$char_traits@_W@std@@V?$allocator@_W@2@@std@@AEBV23@@Z 00000001400be8a8 f   CPropComPlugin.obj
 0001:000bdea4       ?BrowseReadMe@CPropPlugin@@QEAA_NAEBV?$basic_string@_WU?$char_traits@_W@std@@V?$allocator@_W@2@@std@@@Z 00000001400beea4 f   CPropComPlugin.obj
 0001:000be100       ?AppendF@CCommandLineString@@QEAAXPEB_WZZ 00000001400bf100 f i CPropComPlugin.obj
 0001:000be180       ?DlgProc_page@CPropStatusbar@@SA_JPEAUHWND__@@I_K_J@Z 00000001400bf180 f   CPropComStatusbar.obj
 0001:000be1a4       ?DispatchEvent@CPropStatusbar@@IEAA_JPEAUHWND__@@I_K_J@Z 00000001400bf1a4 f   CPropComStatusbar.obj
 0001:000be254       ?SetData@CPropStatusbar@@IEAAXPEAUHWND__@@@Z 00000001400bf254 f   CPropComStatusbar.obj
 0001:000be304       ?GetData@CPropStatusbar@@IEAAHPEAUHWND__@@@Z 00000001400bf304 f   CPropComStatusbar.obj
 0001:000be3b0       ?DlgProc_page@CPropTab@@SA_JPEAUHWND__@@I_K_J@Z 00000001400bf3b0 f   CPropComTab.obj
 0001:000be3d4       ?DispatchEvent@CPropTab@@IEAA_JPEAUHWND__@@I_K_J@Z 00000001400bf3d4 f   CPropComTab.obj
 0001:000be624       ?SetData@CPropTab@@IEAAXPEAUHWND__@@@Z 00000001400bf624 f   CPropComTab.obj
 0001:000be8d0       ?GetData@CPropTab@@IEAAHPEAUHWND__@@@Z 00000001400bf8d0 f   CPropComTab.obj
 0001:000bea54       ?EnableTabPropInput@CPropTab@@AEAAXPEAUHWND__@@@Z 00000001400bfa54 f   CPropComTab.obj
 0001:000bec48       ?DlgProc_page@CPropToolbar@@SA_JPEAUHWND__@@I_K_J@Z 00000001400bfc48 f   CPropComToolbar.obj
 0001:000bec6c       ?Listbox_INSERTDATA@@YAHPEAUHWND__@@HH@Z 00000001400bfc6c f   CPropComToolbar.obj
 0001:000bed18       ?Listbox_ADDDATA@@YAHPEAUHWND__@@H@Z 00000001400bfd18 f   CPropComToolbar.obj
 0001:000bef58       ?DispatchEvent@CPropToolbar@@IEAA_JPEAUHWND__@@I_K_J@Z 00000001400bff58 f   CPropComToolbar.obj
 0001:000bf600       ?SetData@CPropToolbar@@IEAAXPEAUHWND__@@@Z 00000001400c0600 f   CPropComToolbar.obj
 0001:000bf734       ?GetData@CPropToolbar@@IEAAHPEAUHWND__@@@Z 00000001400c0734 f   CPropComToolbar.obj
 0001:000bf7f0       ?DrawToolBarItemList@CPropToolbar@@AEAAXPEAUtagDRAWITEMSTRUCT@@@Z 00000001400c07f0 f   CPropComToolbar.obj
 0001:000bfaf4       ?DlgProc_page@CPropWin@@SA_JPEAUHWND__@@I_K_J@Z 00000001400c0af4 f   CPropComWin.obj
 0001:000bfb3c       ?DispatchEvent@CPropWin@@IEAA_JPEAUHWND__@@I_K_J@Z 00000001400c0b3c f   CPropComWin.obj
 0001:000bff08       ?SetData@CPropWin@@IEAAXPEAUHWND__@@@Z 00000001400c0f08 f   CPropComWin.obj
 0001:000c01a8       ?GetData@CPropWin@@IEAAHPEAUHWND__@@@Z 00000001400c11a8 f   CPropComWin.obj
 0001:000c0408       ?EnableWinPropInput@CPropWin@@AEAAXPEAUHWND__@@@Z 00000001400c1408 f   CPropComWin.obj
 0001:000c04bc       ??0CMRUFile@@QEAA@XZ       00000001400c14bc f   CMRUFile.obj
 0001:000c04e4       ??1CMRUFile@@QEAA@XZ       00000001400c14e4 f   CMRUFile.obj
 0001:000c04e4       ??1CMRUFolder@@QEAA@XZ     00000001400c14e4 f   CMRUFolder.obj
 0001:000c0510       ?CreateMenu@CMRUFile@@QEBAPEAUHMENU__@@PEAVCMenuDrawer@@@Z 00000001400c1510 f   CMRUFile.obj
 0001:000c0540       ?CreateMenu@CMRUFile@@QEBAPEAUHMENU__@@PEAU2@PEAVCMenuDrawer@@@Z 00000001400c1540 f   CMRUFile.obj
 0001:000c0758       ?GetPathList@CMRUFile@@QEBA?AV?$vector@PEB_WV?$allocator@PEB_W@std@@@std@@XZ 00000001400c1758 f   CMRUFile.obj
 0001:000c081c       ?Length@CMRUFile@@QEBAHXZ  00000001400c181c f   CMRUFile.obj
 0001:000c081c       ?Length@CMRUFolder@@QEBAHXZ 00000001400c181c f   CMRUFolder.obj
 0001:000c0840       ?ClearAll@CMRUFile@@QEAAXXZ 00000001400c1840 f   CMRUFile.obj
 0001:000c084c       ?GetEditInfo@CMRUFile@@QEBA_NHPEAUEditInfo@@@Z 00000001400c184c f   CMRUFile.obj
 0001:000c087c       ?GetEditInfo@CMRUFile@@QEBA_NPEB_WPEAUEditInfo@@@Z 00000001400c187c f   CMRUFile.obj
 0001:000c08c4       ?Add@CMRUFile@@QEAAXPEAUEditInfo@@@Z 00000001400c18c4 f   CMRUFile.obj
 0001:000c0a54       ??0CMRUFolder@@QEAA@XZ     00000001400c1a54 f   CMRUFolder.obj
 0001:000c0a7c       ?CreateMenu@CMRUFolder@@QEBAPEAUHMENU__@@PEAVCMenuDrawer@@@Z 00000001400c1a7c f   CMRUFolder.obj
 0001:000c0aac       ?CreateMenu@CMRUFolder@@QEBAPEAUHMENU__@@PEAU2@PEAVCMenuDrawer@@@Z 00000001400c1aac f   CMRUFolder.obj
 0001:000c0cdc       ?GetPathList@CMRUFolder@@QEBA?AV?$vector@PEB_WV?$allocator@PEB_W@std@@@std@@XZ 00000001400c1cdc f   CMRUFolder.obj
 0001:000c0da0       ?ClearAll@CMRUFolder@@QEAAXXZ 00000001400c1da0 f   CMRUFolder.obj
 0001:000c0dac       ?Add@CMRUFolder@@QEAAXPEB_W@Z 00000001400c1dac f   CMRUFolder.obj
 0001:000c0ea8       ?GetPath@CMRUFolder@@QEBAPEB_WH@Z 00000001400c1ea8 f   CMRUFolder.obj
 0001:000c0eb4       ?OnAfterSave@CMruListener@@UEAAXAEBUSSaveInfo@@@Z 00000001400c1eb4 f   CMruListener.obj
 0001:000c0ebc       ?OnBeforeLoad@CMruListener@@UEAAXPEAUSLoadInfo@@@Z 00000001400c1ebc f   CMruListener.obj
 0001:000c11d8       ?OnAfterLoad@CMruListener@@UEAAXAEBUSLoadInfo@@@Z 00000001400c21d8 f   CMruListener.obj
 0001:000c1420       ?OnBeforeClose@CMruListener@@UEAA?AW4ECallbackResult@@XZ 00000001400c2420 f   CMruListener.obj
 0001:000c1430       ?_HoldBookmarks_And_AddToMRU@CMruListener@@IEAAXXZ 00000001400c2430 f   CMruListener.obj
 0001:000c14ec       ??0CRecentCmd@@QEAA@XZ     00000001400c24ec f   CRecentCmd.obj
 0001:000c1540       ?GetItemText@CRecentCmd@@UEBAPEB_WH@Z 00000001400c2540 f   CRecentCmd.obj
 0001:000c1548       ?DataToReceiveType@CRecentCmd@@UEBA_NPEAPEB_WPEBV?$StaticString@_W$0EAA@@@@Z 00000001400c2548 f   CRecentCmd.obj
 0001:000c1548       ?DataToReceiveType@CRecentCurDir@@UEBA_NPEAPEB_WPEBV?$StaticString@_W$0BAE@@@@Z 00000001400c2548 f   CRecentCurDir.obj
 0001:000c1548       ?DataToReceiveType@CRecentEditNode@@UEBA_NPEAPEBUEditNode@@PEBU2@@Z 00000001400c2548 f   CRecentEditNode.obj
 0001:000c1548       ?DataToReceiveType@CRecentExceptMRU@@UEBA_NPEAPEB_WPEBV?$StaticString@_W$0BAE@@@@Z 00000001400c2548 f   CRecentExceptMru.obj
 0001:000c1548       ?DataToReceiveType@CRecentExcludeFile@@UEBA_NPEAPEB_WPEBV?$StaticString@_W$0CAA@@@@Z 00000001400c2548 f   CRecentExcludeFile.obj
 0001:000c1548       ?DataToReceiveType@CRecentExcludeFolder@@UEBA_NPEAPEB_WPEBV?$StaticString@_W$0CAA@@@@Z 00000001400c2548 f   CRecentExcludeFolder.obj
 0001:000c1548       ?DataToReceiveType@CRecentFile@@UEBA_NPEAPEBUEditInfo@@PEBU2@@Z 00000001400c2548 f   CRecentFile.obj
 0001:000c1548       ?DataToReceiveType@CRecentFolder@@UEBA_NPEAPEB_WPEBV?$StaticString@_W$0BAE@@@@Z 00000001400c2548 f   CRecentFolder.obj
 0001:000c1548       ?DataToReceiveType@CRecentGrepFile@@UEBA_NPEAPEB_WPEBV?$StaticString@_W$0CAA@@@@Z 00000001400c2548 f   CRecentGrepFile.obj
 0001:000c1548       ?DataToReceiveType@CRecentGrepFolder@@UEBA_NPEAPEB_WPEBV?$StaticString@_W$0CAA@@@@Z 00000001400c2548 f   CRecentGrepFolder.obj
 0001:000c1548       ?DataToReceiveType@CRecentReplace@@UEBA_NPEAPEB_WPEBV?$StaticString@_W$0BAE@@@@Z 00000001400c2548 f   CRecentReplace.obj
 0001:000c1548       ?DataToReceiveType@CRecentSearch@@UEBA_NPEAPEB_WPEBV?$StaticString@_W$0BAE@@@@Z 00000001400c2548 f   CRecentSearch.obj
 0001:000c1548       ?DataToReceiveType@CRecentTagjumpKeyword@@UEBA_NPEAPEB_WPEBV?$StaticString@_W$0BAE@@@@Z 00000001400c2548 f   CRecentTagjumpKeyword.obj
 0001:000c1550       ?TextToDataType@CRecentCmd@@UEBA_NPEAV?$StaticString@_W$0EAA@@@PEB_W@Z 00000001400c2550 f   CRecentCmd.obj
 0001:000c1550       ?TextToDataType@CRecentCurDir@@UEBA_NPEAV?$StaticString@_W$0BAE@@@PEB_W@Z 00000001400c2550 f   CRecentCurDir.obj
 0001:000c1550       ?TextToDataType@CRecentExceptMRU@@UEBA_NPEAV?$StaticString@_W$0BAE@@@PEB_W@Z 00000001400c2550 f   CRecentExceptMru.obj
 0001:000c1550       ?TextToDataType@CRecentExcludeFile@@UEBA_NPEAV?$StaticString@_W$0CAA@@@PEB_W@Z 00000001400c2550 f   CRecentExcludeFile.obj
 0001:000c1550       ?TextToDataType@CRecentExcludeFolder@@UEBA_NPEAV?$StaticString@_W$0CAA@@@PEB_W@Z 00000001400c2550 f   CRecentExcludeFolder.obj
 0001:000c1550       ?TextToDataType@CRecentFolder@@UEBA_NPEAV?$StaticString@_W$0BAE@@@PEB_W@Z 00000001400c2550 f   CRecentFolder.obj
 0001:000c1550       ?TextToDataType@CRecentGrepFile@@UEBA_NPEAV?$StaticString@_W$0CAA@@@PEB_W@Z 00000001400c2550 f   CRecentGrepFile.obj
 0001:000c1550       ?TextToDataType@CRecentGrepFolder@@UEBA_NPEAV?$StaticString@_W$0CAA@@@PEB_W@Z 00000001400c2550 f   CRecentGrepFolder.obj
 0001:000c1550       ?TextToDataType@CRecentReplace@@UEBA_NPEAV?$StaticString@_W$0BAE@@@PEB_W@Z 00000001400c2550 f   CRecentReplace.obj
 0001:000c1550       ?TextToDataType@CRecentSearch@@UEBA_NPEAV?$StaticString@_W$0BAE@@@PEB_W@Z 00000001400c2550 f   CRecentSearch.obj
 0001:000c1550       ?TextToDataType@CRecentTagjumpKeyword@@UEBA_NPEAV?$StaticString@_W$0BAE@@@PEB_W@Z 00000001400c2550 f   CRecentTagjumpKeyword.obj
 0001:000c1594       ?CompareItem@CRecentCmd@@UEBAHPEBV?$StaticString@_W$0EAA@@@PEB_W@Z 00000001400c2594 f   CRecentCmd.obj
 0001:000c1594       ?CompareItem@CRecentCurDir@@UEBAHPEBV?$StaticString@_W$0BAE@@@PEB_W@Z 00000001400c2594 f   CRecentCurDir.obj
 0001:000c1594       ?CompareItem@CRecentReplace@@UEBAHPEBV?$StaticString@_W$0BAE@@@PEB_W@Z 00000001400c2594 f   CRecentReplace.obj
 0001:000c1594       ?CompareItem@CRecentSearch@@UEBAHPEBV?$StaticString@_W$0BAE@@@PEB_W@Z 00000001400c2594 f   CRecentSearch.obj
 0001:000c1594       ?CompareItem@CRecentTagjumpKeyword@@UEBAHPEBV?$StaticString@_W$0BAE@@@PEB_W@Z 00000001400c2594 f   CRecentTagjumpKeyword.obj
 0001:000c15a0       ?CopyItem@CRecentCmd@@UEBAXPEAV?$StaticString@_W$0EAA@@@PEB_W@Z 00000001400c25a0 f   CRecentCmd.obj
 0001:000c15a0       ?CopyItem@CRecentCurDir@@UEBAXPEAV?$StaticString@_W$0BAE@@@PEB_W@Z 00000001400c25a0 f   CRecentCurDir.obj
 0001:000c15a0       ?CopyItem@CRecentExceptMRU@@UEBAXPEAV?$StaticString@_W$0BAE@@@PEB_W@Z 00000001400c25a0 f   CRecentExceptMru.obj
 0001:000c15a0       ?CopyItem@CRecentExcludeFile@@UEBAXPEAV?$StaticString@_W$0CAA@@@PEB_W@Z 00000001400c25a0 f   CRecentExcludeFile.obj
 0001:000c15a0       ?CopyItem@CRecentExcludeFolder@@UEBAXPEAV?$StaticString@_W$0CAA@@@PEB_W@Z 00000001400c25a0 f   CRecentExcludeFolder.obj
 0001:000c15a0       ?CopyItem@CRecentFolder@@UEBAXPEAV?$StaticString@_W$0BAE@@@PEB_W@Z 00000001400c25a0 f   CRecentFolder.obj
 0001:000c15a0       ?CopyItem@CRecentGrepFile@@UEBAXPEAV?$StaticString@_W$0CAA@@@PEB_W@Z 00000001400c25a0 f   CRecentGrepFile.obj
 0001:000c15a0       ?CopyItem@CRecentGrepFolder@@UEBAXPEAV?$StaticString@_W$0CAA@@@PEB_W@Z 00000001400c25a0 f   CRecentGrepFolder.obj
 0001:000c15a0       ?CopyItem@CRecentReplace@@UEBAXPEAV?$StaticString@_W$0BAE@@@PEB_W@Z 00000001400c25a0 f   CRecentReplace.obj
 0001:000c15a0       ?CopyItem@CRecentSearch@@UEBAXPEAV?$StaticString@_W$0BAE@@@PEB_W@Z 00000001400c25a0 f   CRecentSearch.obj
 0001:000c15a0       ?CopyItem@CRecentTagjumpKeyword@@UEBAXPEAV?$StaticString@_W$0BAE@@@PEB_W@Z 00000001400c25a0 f   CRecentTagjumpKeyword.obj
 0001:000c15ac       ?ValidateReceiveType@CRecentCmd@@UEBA_NPEB_W@Z 00000001400c25ac f   CRecentCmd.obj
 0001:000c15ac       ?ValidateReceiveType@CRecentCurDir@@UEBA_NPEB_W@Z 00000001400c25ac f   CRecentCurDir.obj
 0001:000c15ac       ?ValidateReceiveType@CRecentExceptMRU@@UEBA_NPEB_W@Z 00000001400c25ac f   CRecentExceptMru.obj
 0001:000c15ac       ?ValidateReceiveType@CRecentExcludeFile@@UEBA_NPEB_W@Z 00000001400c25ac f   CRecentExcludeFile.obj
 0001:000c15ac       ?ValidateReceiveType@CRecentExcludeFolder@@UEBA_NPEB_W@Z 00000001400c25ac f   CRecentExcludeFolder.obj
 0001:000c15ac       ?ValidateReceiveType@CRecentFolder@@UEBA_NPEB_W@Z 00000001400c25ac f   CRecentFolder.obj
 0001:000c15ac       ?ValidateReceiveType@CRecentGrepFile@@UEBA_NPEB_W@Z 00000001400c25ac f   CRecentGrepFile.obj
 0001:000c15ac       ?ValidateReceiveType@CRecentGrepFolder@@UEBA_NPEB_W@Z 00000001400c25ac f   CRecentGrepFolder.obj
 0001:000c15ac       ?ValidateReceiveType@CRecentReplace@@UEBA_NPEB_W@Z 00000001400c25ac f   CRecentReplace.obj
 0001:000c15ac       ?ValidateReceiveType@CRecentSearch@@UEBA_NPEB_W@Z 00000001400c25ac f   CRecentSearch.obj
 0001:000c15ac       ?ValidateReceiveType@CRecentTagjumpKeyword@@UEBA_NPEB_W@Z 00000001400c25ac f   CRecentTagjumpKeyword.obj
 0001:000c15e0       ?GetTextMaxLength@CRecentCmd@@UEBA_KXZ 00000001400c25e0 f   CRecentCmd.obj
 0001:000c15e0       ?GetTextMaxLength@CRecentCurDir@@UEBA_KXZ 00000001400c25e0 f   CRecentCurDir.obj
 0001:000c15e0       ?GetTextMaxLength@CRecentEditNode@@UEBA_KXZ 00000001400c25e0 f   CRecentEditNode.obj
 0001:000c15e0       ?GetTextMaxLength@CRecentExceptMRU@@UEBA_KXZ 00000001400c25e0 f   CRecentExceptMru.obj
 0001:000c15e0       ?GetTextMaxLength@CRecentExcludeFile@@UEBA_KXZ 00000001400c25e0 f   CRecentExcludeFile.obj
 0001:000c15e0       ?GetTextMaxLength@CRecentExcludeFolder@@UEBA_KXZ 00000001400c25e0 f   CRecentExcludeFolder.obj
 0001:000c15e0       ?GetTextMaxLength@CRecentFile@@UEBA_KXZ 00000001400c25e0 f   CRecentFile.obj
 0001:000c15e0       ?GetTextMaxLength@CRecentFolder@@UEBA_KXZ 00000001400c25e0 f   CRecentFolder.obj
 0001:000c15e0       ?GetTextMaxLength@CRecentGrepFile@@UEBA_KXZ 00000001400c25e0 f   CRecentGrepFile.obj
 0001:000c15e0       ?GetTextMaxLength@CRecentGrepFolder@@UEBA_KXZ 00000001400c25e0 f   CRecentGrepFolder.obj
 0001:000c15e0       ?GetTextMaxLength@CRecentReplace@@UEBA_KXZ 00000001400c25e0 f   CRecentReplace.obj
 0001:000c15e0       ?GetTextMaxLength@CRecentSearch@@UEBA_KXZ 00000001400c25e0 f   CRecentSearch.obj
 0001:000c15e0       ?GetTextMaxLength@CRecentTagjumpKeyword@@UEBA_KXZ 00000001400c25e0 f   CRecentTagjumpKeyword.obj
 0001:000c15e8       ??0CRecentCurDir@@QEAA@XZ  00000001400c25e8 f   CRecentCurDir.obj
 0001:000c1650       ?GetItemText@CRecentCurDir@@UEBAPEB_WH@Z 00000001400c2650 f   CRecentCurDir.obj
 0001:000c1650       ?GetItemText@CRecentExceptMRU@@UEBAPEB_WH@Z 00000001400c2650 f   CRecentExceptMru.obj
 0001:000c1650       ?GetItemText@CRecentFolder@@UEBAPEB_WH@Z 00000001400c2650 f   CRecentFolder.obj
 0001:000c1650       ?GetItemText@CRecentReplace@@UEBAPEB_WH@Z 00000001400c2650 f   CRecentReplace.obj
 0001:000c1650       ?GetItemText@CRecentSearch@@UEBAPEB_WH@Z 00000001400c2650 f   CRecentSearch.obj
 0001:000c1650       ?GetItemText@CRecentTagjumpKeyword@@UEBAPEB_WH@Z 00000001400c2650 f   CRecentTagjumpKeyword.obj
 0001:000c1658       ??0CRecentEditNode@@QEAA@XZ 00000001400c2658 f   CRecentEditNode.obj
 0001:000c16a8       ?GetItemText@CRecentEditNode@@UEBAPEB_WH@Z 00000001400c26a8 f   CRecentEditNode.obj
 0001:000c16b0       ?CompareItem@CRecentEditNode@@UEBAHPEBUEditNode@@0@Z 00000001400c26b0 f   CRecentEditNode.obj
 0001:000c16c0       ?CopyItem@CRecentEditNode@@UEBAXPEAUEditNode@@PEBU2@@Z 00000001400c26c0 f   CRecentEditNode.obj
 0001:000c1734       ?FindItemByHwnd@CRecentEditNode@@QEBAHPEAUHWND__@@@Z 00000001400c2734 f   CRecentEditNode.obj
 0001:000c177c       ?DeleteItemByHwnd@CRecentEditNode@@QEAAXPEAUHWND__@@@Z 00000001400c277c f   CRecentEditNode.obj
 0001:000c1798       ??0CRecentExceptMRU@@QEAA@XZ 00000001400c2798 f   CRecentExceptMru.obj
 0001:000c1800       ?CompareItem@CRecentExceptMRU@@UEBAHPEBV?$StaticString@_W$0BAE@@@PEB_W@Z 00000001400c2800 f   CRecentExceptMru.obj
 0001:000c1800       ?CompareItem@CRecentExcludeFile@@UEBAHPEBV?$StaticString@_W$0CAA@@@PEB_W@Z 00000001400c2800 f   CRecentExcludeFile.obj
 0001:000c1800       ?CompareItem@CRecentExcludeFolder@@UEBAHPEBV?$StaticString@_W$0CAA@@@PEB_W@Z 00000001400c2800 f   CRecentExcludeFolder.obj
 0001:000c1800       ?CompareItem@CRecentFile@@UEBAHPEBUEditInfo@@0@Z 00000001400c2800 f   CRecentFile.obj
 0001:000c1800       ?CompareItem@CRecentFolder@@UEBAHPEBV?$StaticString@_W$0BAE@@@PEB_W@Z 00000001400c2800 f   CRecentFolder.obj
 0001:000c1800       ?CompareItem@CRecentGrepFile@@UEBAHPEBV?$StaticString@_W$0CAA@@@PEB_W@Z 00000001400c2800 f   CRecentGrepFile.obj
 0001:000c1800       ?CompareItem@CRecentGrepFolder@@UEBAHPEBV?$StaticString@_W$0CAA@@@PEB_W@Z 00000001400c2800 f   CRecentGrepFolder.obj
 0001:000c180c       ??0CRecentExcludeFile@@QEAA@XZ 00000001400c280c f   CRecentExcludeFile.obj
 0001:000c1860       ?GetItemText@CRecentExcludeFile@@UEBAPEB_WH@Z 00000001400c2860 f   CRecentExcludeFile.obj
 0001:000c1860       ?GetItemText@CRecentExcludeFolder@@UEBAPEB_WH@Z 00000001400c2860 f   CRecentExcludeFolder.obj
 0001:000c1860       ?GetItemText@CRecentGrepFile@@UEBAPEB_WH@Z 00000001400c2860 f   CRecentGrepFile.obj
 0001:000c1860       ?GetItemText@CRecentGrepFolder@@UEBAPEB_WH@Z 00000001400c2860 f   CRecentGrepFolder.obj
 0001:000c1868       ??0CRecentExcludeFolder@@QEAA@XZ 00000001400c2868 f   CRecentExcludeFolder.obj
 0001:000c18bc       ?GetItemText@CRecentFile@@UEBAPEB_WH@Z 00000001400c28bc f   CRecentFile.obj
 0001:000c18c4       ??0CRecentFile@@QEAA@XZ    00000001400c28c4 f   CRecentFile.obj
 0001:000c192c       ?TextToDataType@CRecentFile@@UEBA_NPEAUEditInfo@@PEB_W@Z 00000001400c292c f   CRecentFile.obj
 0001:000c196c       ?CopyItem@CRecentFile@@UEBAXPEAUEditInfo@@PEBU2@@Z 00000001400c296c f   CRecentFile.obj
 0001:000c1980       ?FindItemByPath@CRecentFile@@QEBAHPEB_W@Z 00000001400c2980 f   CRecentFile.obj
 0001:000c19ec       ??0CRecentFolder@@QEAA@XZ  00000001400c29ec f   CRecentFolder.obj
 0001:000c1a60       ??0CRecentGrepFile@@QEAA@XZ 00000001400c2a60 f   CRecentGrepFile.obj
 0001:000c1ab4       ??0CRecentGrepFolder@@QEAA@XZ 00000001400c2ab4 f   CRecentGrepFolder.obj
 0001:000c1b08       ?Create@?$CRecentImp@V?$StaticString@_W$0EAA@@@PEB_W@@IEAA_NPEAV?$StaticString@_W$0EAA@@@_KPEAHPEA_NH2@Z 00000001400c2b08 f i CRecentImp.obj
 0001:000c1b80       ?Terminate@?$CRecentImp@UEditInfo@@PEBU1@@@UEAAXXZ 00000001400c2b80 f i CRecentImp.obj
 0001:000c1b80       ?Terminate@?$CRecentImp@UEditNode@@PEBU1@@@UEAAXXZ 00000001400c2b80 f i CRecentImp.obj
 0001:000c1b80       ?Terminate@?$CRecentImp@V?$StaticString@_W$0BAE@@@PEB_W@@UEAAXXZ 00000001400c2b80 f i CRecentImp.obj
 0001:000c1b80       ?Terminate@?$CRecentImp@V?$StaticString@_W$0CAA@@@PEB_W@@UEAAXXZ 00000001400c2b80 f i CRecentImp.obj
 0001:000c1b80       ?Terminate@?$CRecentImp@V?$StaticString@_W$0EAA@@@PEB_W@@UEAAXXZ 00000001400c2b80 f i CRecentImp.obj
 0001:000c1b9c       ?IsAvailable@?$CRecentImp@UEditInfo@@PEBU1@@@QEBA_NXZ 00000001400c2b9c f i CRecentImp.obj
 0001:000c1b9c       ?IsAvailable@?$CRecentImp@UEditNode@@PEBU1@@@QEBA_NXZ 00000001400c2b9c f i CRecentImp.obj
 0001:000c1b9c       ?IsAvailable@?$CRecentImp@V?$StaticString@_W$0BAE@@@PEB_W@@QEBA_NXZ 00000001400c2b9c f i CRecentImp.obj
 0001:000c1b9c       ?IsAvailable@?$CRecentImp@V?$StaticString@_W$0CAA@@@PEB_W@@QEBA_NXZ 00000001400c2b9c f i CRecentImp.obj
 0001:000c1b9c       ?IsAvailable@?$CRecentImp@V?$StaticString@_W$0EAA@@@PEB_W@@QEBA_NXZ 00000001400c2b9c f i CRecentImp.obj
 0001:000c1bb8       ?_Recovery@?$CRecentImp@UEditInfo@@PEBU1@@@QEAAXXZ 00000001400c2bb8 f i CRecentImp.obj
 0001:000c1bb8       ?_Recovery@?$CRecentImp@UEditNode@@PEBU1@@@QEAAXXZ 00000001400c2bb8 f i CRecentImp.obj
 0001:000c1bb8       ?_Recovery@?$CRecentImp@V?$StaticString@_W$0BAE@@@PEB_W@@QEAAXXZ 00000001400c2bb8 f i CRecentImp.obj
 0001:000c1bb8       ?_Recovery@?$CRecentImp@V?$StaticString@_W$0CAA@@@PEB_W@@QEAAXXZ 00000001400c2bb8 f i CRecentImp.obj
 0001:000c1bb8       ?_Recovery@?$CRecentImp@V?$StaticString@_W$0EAA@@@PEB_W@@QEAAXXZ 00000001400c2bb8 f i CRecentImp.obj
 0001:000c1bf4       ?ChangeViewCount@?$CRecentImp@V?$StaticString@_W$0EAA@@@PEB_W@@QEAA_NH@Z 00000001400c2bf4 f i CRecentImp.obj
 0001:000c1ca0       ?UpdateView@?$CRecentImp@V?$StaticString@_W$0EAA@@@PEB_W@@UEAA_NXZ 00000001400c2ca0 f i CRecentImp.obj
 0001:000c1ccc       ?SetFavorite@?$CRecentImp@UEditInfo@@PEBU1@@@UEAA_NH_N@Z 00000001400c2ccc f i CRecentImp.obj
 0001:000c1ccc       ?SetFavorite@?$CRecentImp@UEditNode@@PEBU1@@@UEAA_NH_N@Z 00000001400c2ccc f i CRecentImp.obj
 0001:000c1ccc       ?SetFavorite@?$CRecentImp@V?$StaticString@_W$0BAE@@@PEB_W@@UEAA_NH_N@Z 00000001400c2ccc f i CRecentImp.obj
 0001:000c1ccc       ?SetFavorite@?$CRecentImp@V?$StaticString@_W$0CAA@@@PEB_W@@UEAA_NH_N@Z 00000001400c2ccc f i CRecentImp.obj
 0001:000c1ccc       ?SetFavorite@?$CRecentImp@V?$StaticString@_W$0EAA@@@PEB_W@@UEAA_NH_N@Z 00000001400c2ccc f i CRecentImp.obj
 0001:000c1d08       ?IsFavorite@?$CRecentImp@UEditInfo@@PEBU1@@@UEBA_NH@Z 00000001400c2d08 f i CRecentImp.obj
 0001:000c1d08       ?IsFavorite@?$CRecentImp@UEditNode@@PEBU1@@@UEBA_NH@Z 00000001400c2d08 f i CRecentImp.obj
 0001:000c1d08       ?IsFavorite@?$CRecentImp@V?$StaticString@_W$0BAE@@@PEB_W@@UEBA_NH@Z 00000001400c2d08 f i CRecentImp.obj
 0001:000c1d08       ?IsFavorite@?$CRecentImp@V?$StaticString@_W$0CAA@@@PEB_W@@UEBA_NH@Z 00000001400c2d08 f i CRecentImp.obj
 0001:000c1d08       ?IsFavorite@?$CRecentImp@V?$StaticString@_W$0EAA@@@PEB_W@@UEBA_NH@Z 00000001400c2d08 f i CRecentImp.obj
 0001:000c1d3c       ?AppendItem@?$CRecentImp@V?$StaticString@_W$0EAA@@@PEB_W@@QEAA_NPEB_W@Z 00000001400c2d3c f i CRecentImp.obj
 0001:000c1e5c       ?AppendItemText@?$CRecentImp@V?$StaticString@_W$0EAA@@@PEB_W@@UEAA_NPEB_W@Z 00000001400c2e5c f i CRecentImp.obj
 0001:000c1ef8       ?EditItemText@?$CRecentImp@V?$StaticString@_W$0EAA@@@PEB_W@@UEAA_NHPEB_W@Z 00000001400c2ef8 f i CRecentImp.obj
 0001:000c1fd4       ?DeleteItem@?$CRecentImp@V?$StaticString@_W$0EAA@@@PEB_W@@UEAA_NH@Z 00000001400c2fd4 f i CRecentImp.obj
 0001:000c2054       ?DeleteItemsNoFavorite@?$CRecentImp@UEditInfo@@PEBU1@@@UEAA_NXZ 00000001400c3054 f i CRecentImp.obj
 0001:000c2054       ?DeleteItemsNoFavorite@?$CRecentImp@UEditNode@@PEBU1@@@UEAA_NXZ 00000001400c3054 f i CRecentImp.obj
 0001:000c2054       ?DeleteItemsNoFavorite@?$CRecentImp@V?$StaticString@_W$0BAE@@@PEB_W@@UEAA_NXZ 00000001400c3054 f i CRecentImp.obj
 0001:000c2054       ?DeleteItemsNoFavorite@?$CRecentImp@V?$StaticString@_W$0CAA@@@PEB_W@@UEAA_NXZ 00000001400c3054 f i CRecentImp.obj
 0001:000c2054       ?DeleteItemsNoFavorite@?$CRecentImp@V?$StaticString@_W$0EAA@@@PEB_W@@UEAA_NXZ 00000001400c3054 f i CRecentImp.obj
 0001:000c20c4       ?DeleteAllItem@?$CRecentImp@V?$StaticString@_W$0EAA@@@PEB_W@@UEAAXXZ 00000001400c30c4 f i CRecentImp.obj
 0001:000c2104       ?GetItem@?$CRecentImp@V?$StaticString@_W$0EAA@@@PEB_W@@QEBAPEBV?$StaticString@_W$0EAA@@@H@Z 00000001400c3104 f i CRecentImp.obj
 0001:000c2138       ?FindItem@?$CRecentImp@V?$StaticString@_W$0EAA@@@PEB_W@@QEBAHPEB_W@Z 00000001400c3138 f i CRecentImp.obj
 0001:000c21a4       ?MoveItem@?$CRecentImp@V?$StaticString@_W$0EAA@@@PEB_W@@QEAA_NHH@Z 00000001400c31a4 f i CRecentImp.obj
 0001:000c22c0       ?CopyItem@?$CRecentImp@V?$StaticString@_W$0EAA@@@PEB_W@@AEAA_NHH@Z 00000001400c32c0 f i CRecentImp.obj
 0001:000c2340       ?GetItemPointer@?$CRecentImp@V?$StaticString@_W$0EAA@@@PEB_W@@AEBAPEBV?$StaticString@_W$0EAA@@@H@Z 00000001400c3340 f i CRecentImp.obj
 0001:000c2370       ?ZeroItem@?$CRecentImp@V?$StaticString@_W$0EAA@@@PEB_W@@AEAAXH@Z 00000001400c3370 f i CRecentImp.obj
 0001:000c23c4       ?GetOldestItem@?$CRecentImp@UEditInfo@@PEBU1@@@AEAAHH_N@Z 00000001400c33c4 f i CRecentImp.obj
 0001:000c23c4       ?GetOldestItem@?$CRecentImp@UEditNode@@PEBU1@@@AEAAHH_N@Z 00000001400c33c4 f i CRecentImp.obj
 0001:000c23c4       ?GetOldestItem@?$CRecentImp@V?$StaticString@_W$0BAE@@@PEB_W@@AEAAHH_N@Z 00000001400c33c4 f i CRecentImp.obj
 0001:000c23c4       ?GetOldestItem@?$CRecentImp@V?$StaticString@_W$0CAA@@@PEB_W@@AEAAHH_N@Z 00000001400c33c4 f i CRecentImp.obj
 0001:000c23c4       ?GetOldestItem@?$CRecentImp@V?$StaticString@_W$0EAA@@@PEB_W@@AEAAHH_N@Z 00000001400c33c4 f i CRecentImp.obj
 0001:000c2424       ?Create@?$CRecentImp@V?$StaticString@_W$0BAE@@@PEB_W@@IEAA_NPEAV?$StaticString@_W$0BAE@@@_KPEAHPEA_NH2@Z 00000001400c3424 f i CRecentImp.obj
 0001:000c24b4       ?ChangeViewCount@?$CRecentImp@V?$StaticString@_W$0BAE@@@PEB_W@@QEAA_NH@Z 00000001400c34b4 f i CRecentImp.obj
 0001:000c2560       ?UpdateView@?$CRecentImp@V?$StaticString@_W$0BAE@@@PEB_W@@UEAA_NXZ 00000001400c3560 f i CRecentImp.obj
 0001:000c258c       ?AppendItem@?$CRecentImp@V?$StaticString@_W$0BAE@@@PEB_W@@QEAA_NPEB_W@Z 00000001400c358c f i CRecentImp.obj
 0001:000c26ac       ?AppendItemText@?$CRecentImp@V?$StaticString@_W$0BAE@@@PEB_W@@UEAA_NPEB_W@Z 00000001400c36ac f i CRecentImp.obj
 0001:000c2748       ?EditItemText@?$CRecentImp@V?$StaticString@_W$0BAE@@@PEB_W@@UEAA_NHPEB_W@Z 00000001400c3748 f i CRecentImp.obj
 0001:000c2824       ?DeleteItem@?$CRecentImp@V?$StaticString@_W$0BAE@@@PEB_W@@UEAA_NH@Z 00000001400c3824 f i CRecentImp.obj
 0001:000c28a4       ?DeleteAllItem@?$CRecentImp@V?$StaticString@_W$0BAE@@@PEB_W@@UEAAXXZ 00000001400c38a4 f i CRecentImp.obj
 0001:000c28e4       ?GetItem@?$CRecentImp@V?$StaticString@_W$0BAE@@@PEB_W@@QEBAPEBV?$StaticString@_W$0BAE@@@H@Z 00000001400c38e4 f i CRecentImp.obj
 0001:000c2918       ?FindItem@?$CRecentImp@V?$StaticString@_W$0BAE@@@PEB_W@@QEBAHPEB_W@Z 00000001400c3918 f i CRecentImp.obj
 0001:000c2984       ?MoveItem@?$CRecentImp@V?$StaticString@_W$0BAE@@@PEB_W@@QEAA_NHH@Z 00000001400c3984 f i CRecentImp.obj
 0001:000c2aa0       ?CopyItem@?$CRecentImp@V?$StaticString@_W$0BAE@@@PEB_W@@AEAA_NHH@Z 00000001400c3aa0 f i CRecentImp.obj
 0001:000c2b20       ?GetItemPointer@?$CRecentImp@V?$StaticString@_W$0BAE@@@PEB_W@@AEBAPEBV?$StaticString@_W$0BAE@@@H@Z 00000001400c3b20 f i CRecentImp.obj
 0001:000c2b50       ?ZeroItem@?$CRecentImp@V?$StaticString@_W$0BAE@@@PEB_W@@AEAAXH@Z 00000001400c3b50 f i CRecentImp.obj
 0001:000c2ba4       ?Create@?$CRecentImp@UEditNode@@PEBU1@@@IEAA_NPEAUEditNode@@_KPEAHPEA_NH2@Z 00000001400c3ba4 f i CRecentImp.obj
 0001:000c2c08       ?ChangeViewCount@?$CRecentImp@UEditNode@@PEBU1@@@QEAA_NH@Z 00000001400c3c08 f i CRecentImp.obj
 0001:000c2cb4       ?UpdateView@?$CRecentImp@UEditNode@@PEBU1@@@UEAA_NXZ 00000001400c3cb4 f i CRecentImp.obj
 0001:000c2ce0       ?AppendItem@?$CRecentImp@UEditNode@@PEBU1@@@QEAA_NPEBUEditNode@@@Z 00000001400c3ce0 f i CRecentImp.obj
 0001:000c2e00       ?AppendItemText@?$CRecentImp@UEditNode@@PEBU1@@@UEAA_NPEB_W@Z 00000001400c3e00 f i CRecentImp.obj
 0001:000c2ea0       ?EditItemText@?$CRecentImp@UEditNode@@PEBU1@@@UEAA_NHPEB_W@Z 00000001400c3ea0 f i CRecentImp.obj
 0001:000c2f80       ?DeleteItem@?$CRecentImp@UEditNode@@PEBU1@@@UEAA_NH@Z 00000001400c3f80 f i CRecentImp.obj
 0001:000c3000       ?DeleteAllItem@?$CRecentImp@UEditNode@@PEBU1@@@UEAAXXZ 00000001400c4000 f i CRecentImp.obj
 0001:000c3040       ?GetItem@?$CRecentImp@UEditNode@@PEBU1@@@QEBAPEBUEditNode@@H@Z 00000001400c4040 f i CRecentImp.obj
 0001:000c3074       ?FindItem@?$CRecentImp@UEditNode@@PEBU1@@@QEBAHPEBUEditNode@@@Z 00000001400c4074 f i CRecentImp.obj
 0001:000c30e0       ?MoveItem@?$CRecentImp@UEditNode@@PEBU1@@@QEAA_NHH@Z 00000001400c40e0 f i CRecentImp.obj
 0001:000c3200       ?CopyItem@?$CRecentImp@UEditNode@@PEBU1@@@AEAA_NHH@Z 00000001400c4200 f i CRecentImp.obj
 0001:000c3280       ?GetItemPointer@?$CRecentImp@UEditNode@@PEBU1@@@AEBAPEBUEditNode@@H@Z 00000001400c4280 f i CRecentImp.obj
 0001:000c32b0       ?ZeroItem@?$CRecentImp@UEditNode@@PEBU1@@@AEAAXH@Z 00000001400c42b0 f i CRecentImp.obj
 0001:000c3304       ?Create@?$CRecentImp@V?$StaticString@_W$0CAA@@@PEB_W@@IEAA_NPEAV?$StaticString@_W$0CAA@@@_KPEAHPEA_NH2@Z 00000001400c4304 f i CRecentImp.obj
 0001:000c337c       ?ChangeViewCount@?$CRecentImp@V?$StaticString@_W$0CAA@@@PEB_W@@QEAA_NH@Z 00000001400c437c f i CRecentImp.obj
 0001:000c3428       ?UpdateView@?$CRecentImp@V?$StaticString@_W$0CAA@@@PEB_W@@UEAA_NXZ 00000001400c4428 f i CRecentImp.obj
 0001:000c3454       ?AppendItem@?$CRecentImp@V?$StaticString@_W$0CAA@@@PEB_W@@QEAA_NPEB_W@Z 00000001400c4454 f i CRecentImp.obj
 0001:000c3574       ?AppendItemText@?$CRecentImp@V?$StaticString@_W$0CAA@@@PEB_W@@UEAA_NPEB_W@Z 00000001400c4574 f i CRecentImp.obj
 0001:000c3610       ?EditItemText@?$CRecentImp@V?$StaticString@_W$0CAA@@@PEB_W@@UEAA_NHPEB_W@Z 00000001400c4610 f i CRecentImp.obj
 0001:000c36ec       ?DeleteItem@?$CRecentImp@V?$StaticString@_W$0CAA@@@PEB_W@@UEAA_NH@Z 00000001400c46ec f i CRecentImp.obj
 0001:000c376c       ?DeleteAllItem@?$CRecentImp@V?$StaticString@_W$0CAA@@@PEB_W@@UEAAXXZ 00000001400c476c f i CRecentImp.obj
 0001:000c37ac       ?GetItem@?$CRecentImp@V?$StaticString@_W$0CAA@@@PEB_W@@QEBAPEBV?$StaticString@_W$0CAA@@@H@Z 00000001400c47ac f i CRecentImp.obj
 0001:000c37e0       ?FindItem@?$CRecentImp@V?$StaticString@_W$0CAA@@@PEB_W@@QEBAHPEB_W@Z 00000001400c47e0 f i CRecentImp.obj
 0001:000c384c       ?MoveItem@?$CRecentImp@V?$StaticString@_W$0CAA@@@PEB_W@@QEAA_NHH@Z 00000001400c484c f i CRecentImp.obj
 0001:000c3968       ?CopyItem@?$CRecentImp@V?$StaticString@_W$0CAA@@@PEB_W@@AEAA_NHH@Z 00000001400c4968 f i CRecentImp.obj
 0001:000c39e8       ?GetItemPointer@?$CRecentImp@V?$StaticString@_W$0CAA@@@PEB_W@@AEBAPEBV?$StaticString@_W$0CAA@@@H@Z 00000001400c49e8 f i CRecentImp.obj
 0001:000c3a18       ?ZeroItem@?$CRecentImp@V?$StaticString@_W$0CAA@@@PEB_W@@AEAAXH@Z 00000001400c4a18 f i CRecentImp.obj
 0001:000c3a6c       ?Create@?$CRecentImp@UEditInfo@@PEBU1@@@IEAA_NPEAUEditInfo@@_KPEAHPEA_NH2@Z 00000001400c4a6c f i CRecentImp.obj
 0001:000c3aec       ?ChangeViewCount@?$CRecentImp@UEditInfo@@PEBU1@@@QEAA_NH@Z 00000001400c4aec f i CRecentImp.obj
 0001:000c3b98       ?UpdateView@?$CRecentImp@UEditInfo@@PEBU1@@@UEAA_NXZ 00000001400c4b98 f i CRecentImp.obj
 0001:000c3bc4       ?AppendItem@?$CRecentImp@UEditInfo@@PEBU1@@@QEAA_NPEBUEditInfo@@@Z 00000001400c4bc4 f i CRecentImp.obj
 0001:000c3ce4       ?AppendItemText@?$CRecentImp@UEditInfo@@PEBU1@@@UEAA_NPEB_W@Z 00000001400c4ce4 f i CRecentImp.obj
 0001:000c3d90       ?EditItemText@?$CRecentImp@UEditInfo@@PEBU1@@@UEAA_NHPEB_W@Z 00000001400c4d90 f i CRecentImp.obj
 0001:000c3e70       ?DeleteItem@?$CRecentImp@UEditInfo@@PEBU1@@@UEAA_NH@Z 00000001400c4e70 f i CRecentImp.obj
 0001:000c3ef0       ?DeleteAllItem@?$CRecentImp@UEditInfo@@PEBU1@@@UEAAXXZ 00000001400c4ef0 f i CRecentImp.obj
 0001:000c3f30       ?GetItem@?$CRecentImp@UEditInfo@@PEBU1@@@QEBAPEBUEditInfo@@H@Z 00000001400c4f30 f i CRecentImp.obj
 0001:000c3f64       ?FindItem@?$CRecentImp@UEditInfo@@PEBU1@@@QEBAHPEBUEditInfo@@@Z 00000001400c4f64 f i CRecentImp.obj
 0001:000c3fd0       ?MoveItem@?$CRecentImp@UEditInfo@@PEBU1@@@QEAA_NHH@Z 00000001400c4fd0 f i CRecentImp.obj
 0001:000c40f4       ?CopyItem@?$CRecentImp@UEditInfo@@PEBU1@@@AEAA_NHH@Z 00000001400c50f4 f i CRecentImp.obj
 0001:000c4174       ?GetItemPointer@?$CRecentImp@UEditInfo@@PEBU1@@@AEBAPEBUEditInfo@@H@Z 00000001400c5174 f i CRecentImp.obj
 0001:000c41a4       ?ZeroItem@?$CRecentImp@UEditInfo@@PEBU1@@@AEAAXH@Z 00000001400c51a4 f i CRecentImp.obj
 0001:000c41f8       ??0CRecentReplace@@QEAA@XZ 00000001400c51f8 f   CRecentReplace.obj
 0001:000c4260       ??0CRecentSearch@@QEAA@XZ  00000001400c5260 f   CRecentSearch.obj
 0001:000c42c8       ??0CRecentTagjumpKeyword@@QEAA@XZ 00000001400c52c8 f   CRecentTagjumpKeyword.obj
 0001:000c4330       ??0CDlgKeywordSelect@@QEAA@XZ 00000001400c5330 f   CDlgKeywordSelect.obj
 0001:000c4360       ??_ECDlgKeywordSelect@@UEAAPEAXI@Z 00000001400c5360 f i * CIL library *:* CIL module *
 0001:000c4360       ??_GCDlgKeywordSelect@@UEAAPEAXI@Z 00000001400c5360 f i CDlgKeywordSelect.obj
 0001:000c4394       ??1CDlgKeywordSelect@@UEAA@XZ 00000001400c5394 f   CDlgKeywordSelect.obj
 0001:000c43a4       ?DoModal@CDlgKeywordSelect@@QEAAHPEAUHINSTANCE__@@PEAUHWND__@@PEAH@Z 00000001400c53a4 f   CDlgKeywordSelect.obj
 0001:000c440c       ?OnBnClicked@CDlgKeywordSelect@@MEAAHH@Z 00000001400c540c f   CDlgKeywordSelect.obj
 0001:000c443c       ?SetData@CDlgKeywordSelect@@MEAAXXZ 00000001400c543c f   CDlgKeywordSelect.obj
 0001:000c4538       ?GetData@CDlgKeywordSelect@@MEAAHXZ 00000001400c5538 f   CDlgKeywordSelect.obj
 0001:000c45bc       ?GetHelpIdTable@CDlgKeywordSelect@@MEAAPEAXXZ 00000001400c55bc f   CDlgKeywordSelect.obj
 0001:000c45c4       ?GetHelpIdTable@CDlgSameColor@@MEAAPEAXXZ 00000001400c55c4 f   CDlgSameColor.obj
 0001:000c45cc       ??0CDlgSameColor@@QEAA@XZ  00000001400c55cc f   CDlgSameColor.obj
 0001:000c4608       ??_ECDlgSameColor@@UEAAPEAXI@Z 00000001400c5608 f i * CIL library *:* CIL module *
 0001:000c4608       ??_GCDlgSameColor@@UEAAPEAXI@Z 00000001400c5608 f i CDlgSameColor.obj
 0001:000c463c       ??1CDlgSameColor@@UEAA@XZ  00000001400c563c f   CDlgSameColor.obj
 0001:000c464c       ?DispatchEvent@CDlgSameColor@@MEAA_JPEAUHWND__@@I_K_J@Z 00000001400c564c f   CDlgSameColor.obj
 0001:000c4708       ?DoModal@CDlgSameColor@@QEAAHPEAUHINSTANCE__@@PEAUHWND__@@GPEAUSTypeConfig@@K@Z 00000001400c5708 f   CDlgSameColor.obj
 0001:000c4748       ?OnInitDialog@CDlgSameColor@@MEAAHPEAUHWND__@@_K_J@Z 00000001400c5748 f   CDlgSameColor.obj
 0001:000c49cc       ?OnBnClicked@CDlgSameColor@@MEAAHH@Z 00000001400c59cc f   CDlgSameColor.obj
 0001:000c4bb0       ?OnDrawItem@CDlgSameColor@@MEAAH_K_J@Z 00000001400c5bb0 f   CDlgSameColor.obj
 0001:000c4e10       ?OnSelChangeListColors@CDlgSameColor@@IEAAHPEAUHWND__@@@Z 00000001400c5e10 f   CDlgSameColor.obj
 0001:000c4fa4       ?ColorStatic_SubclassProc@CDlgSameColor@@KA_JPEAUHWND__@@I_K_J@Z 00000001400c5fa4 f   CDlgSameColor.obj
 0001:000c516c       ?ColorList_SubclassProc@CDlgSameColor@@KA_JPEAUHWND__@@I_K_J@Z 00000001400c616c f   CDlgSameColor.obj
 0001:000c5368       ??$List_GetText@$0BO@@ApiWrap@@YA_JPEAUHWND__@@HAEAY0BO@_W@Z 00000001400c6368 f i CDlgSameColor.obj
 0001:000c5374       ??0CDlgTypeAscertain@@QEAA@XZ 00000001400c6374 f   CDlgTypeAscertain.obj
 0001:000c5398       ?DoModal@CDlgTypeAscertain@@QEAAHPEAUHINSTANCE__@@PEAUHWND__@@PEAUSAscertainInfo@1@@Z 00000001400c6398 f   CDlgTypeAscertain.obj
 0001:000c53bc       ?OnBnClicked@CDlgTypeAscertain@@MEAAHH@Z 00000001400c63bc f   CDlgTypeAscertain.obj
 0001:000c553c       ?SetData@CDlgTypeAscertain@@MEAAXXZ 00000001400c653c f   CDlgTypeAscertain.obj
 0001:000c57f4       ?GetHelpIdTable@CDlgTypeAscertain@@MEAAPEAXXZ 00000001400c67f4 f   CDlgTypeAscertain.obj
 0001:000c57fc       ??1CRegKey@@UEAA@XZ        00000001400c67fc f i CDlgTypeList.obj
 0001:000c5830       ?ExistsKey@CRegKey@@SA_NPEAUHKEY__@@PEB_WI@Z 00000001400c6830 f i CDlgTypeList.obj
 0001:000c58b8       ??_ECRegKey@@UEAAPEAXI@Z   00000001400c68b8 f i * CIL library *:* CIL module *
 0001:000c58b8       ??_GCRegKey@@UEAAPEAXI@Z   00000001400c68b8 f i CDlgTypeList.obj
 0001:000c590c       ?DoModal@CDlgTypeList@@QEAAHPEAUHINSTANCE__@@PEAUHWND__@@PEAUSResult@1@@Z 00000001400c690c f   CDlgTypeList.obj
 0001:000c5964       ?OnLbnDblclk@CDlgTypeList@@MEAAHH@Z 00000001400c6964 f   CDlgTypeList.obj
 0001:000c59b8       ?OnBnClicked@CDlgTypeList@@MEAAHH@Z 00000001400c69b8 f   CDlgTypeList.obj
 0001:000c5b1c       ?OnActivate@CDlgTypeList@@MEAAH_K_J@Z 00000001400c6b1c f   CDlgTypeList.obj
 0001:000c5b48       ?DispatchEvent@CDlgTypeList@@MEAA_JPEAUHWND__@@I_K_J@Z 00000001400c6b48 f   CDlgTypeList.obj
 0001:000c6274       ?SetData@CDlgTypeList@@MEAAXXZ 00000001400c7274 f   CDlgTypeList.obj
 0001:000c627c       ?SetData@CDlgTypeList@@IEAAXH@Z 00000001400c727c f   CDlgTypeList.obj
 0001:000c6580       ?GetHelpIdTable@CDlgTypeList@@MEAAPEAXXZ 00000001400c7580 f   CDlgTypeList.obj
 0001:000c6634       ?Import@CDlgTypeList@@IEAA_NXZ 00000001400c7634 f   CDlgTypeList.obj
 0001:000c68e4       ??1CImpExpType@@QEAA@XZ    00000001400c78e4 f i CDlgTypeList.obj
 0001:000c6928       ?Export@CDlgTypeList@@IEAA_NXZ 00000001400c7928 f   CDlgTypeList.obj
 0001:000c6b04       ?InitializeType@CDlgTypeList@@IEAA_NXZ 00000001400c7b04 f   CDlgTypeList.obj
 0001:000c6da8       ??1CType_Basis@@UEAA@XZ    00000001400c7da8 f i CDlgTypeList.obj
 0001:000c6db4       ??_ECType@@UEAAPEAXI@Z     00000001400c7db4 f i * CIL library *:* CIL module *
 0001:000c6db4       ??_ECType_Asm@@UEAAPEAXI@Z 00000001400c7db4 f i * CIL library *:* CIL module *
 0001:000c6db4       ??_ECType_Awk@@UEAAPEAXI@Z 00000001400c7db4 f i * CIL library *:* CIL module *
 0001:000c6db4       ??_ECType_Basis@@UEAAPEAXI@Z 00000001400c7db4 f i * CIL library *:* CIL module *
 0001:000c6db4       ??_ECType_Cobol@@UEAAPEAXI@Z 00000001400c7db4 f i * CIL library *:* CIL module *
 0001:000c6db4       ??_ECType_Cpp@@UEAAPEAXI@Z 00000001400c7db4 f i * CIL library *:* CIL module *
 0001:000c6db4       ??_ECType_Dos@@UEAAPEAXI@Z 00000001400c7db4 f i * CIL library *:* CIL module *
 0001:000c6db4       ??_ECType_Html@@UEAAPEAXI@Z 00000001400c7db4 f i * CIL library *:* CIL module *
 0001:000c6db4       ??_ECType_Ini@@UEAAPEAXI@Z 00000001400c7db4 f i * CIL library *:* CIL module *
 0001:000c6db4       ??_ECType_Java@@UEAAPEAXI@Z 00000001400c7db4 f i * CIL library *:* CIL module *
 0001:000c6db4       ??_ECType_Pascal@@UEAAPEAXI@Z 00000001400c7db4 f i * CIL library *:* CIL module *
 0001:000c6db4       ??_ECType_Perl@@UEAAPEAXI@Z 00000001400c7db4 f i * CIL library *:* CIL module *
 0001:000c6db4       ??_ECType_Python@@UEAAPEAXI@Z 00000001400c7db4 f i * CIL library *:* CIL module *
 0001:000c6db4       ??_ECType_Rich@@UEAAPEAXI@Z 00000001400c7db4 f i * CIL library *:* CIL module *
 0001:000c6db4       ??_ECType_Sql@@UEAAPEAXI@Z 00000001400c7db4 f i * CIL library *:* CIL module *
 0001:000c6db4       ??_ECType_Tex@@UEAAPEAXI@Z 00000001400c7db4 f i * CIL library *:* CIL module *
 0001:000c6db4       ??_ECType_Text@@UEAAPEAXI@Z 00000001400c7db4 f i * CIL library *:* CIL module *
 0001:000c6db4       ??_ECType_Vb@@UEAAPEAXI@Z  00000001400c7db4 f i * CIL library *:* CIL module *
 0001:000c6db4       ??_GCType@@UEAAPEAXI@Z     00000001400c7db4 f i CDlgTypeList.obj
 0001:000c6db4       ??_GCType_Asm@@UEAAPEAXI@Z 00000001400c7db4 f i CType.obj
 0001:000c6db4       ??_GCType_Awk@@UEAAPEAXI@Z 00000001400c7db4 f i CType.obj
 0001:000c6db4       ??_GCType_Basis@@UEAAPEAXI@Z 00000001400c7db4 f i CDlgTypeList.obj
 0001:000c6db4       ??_GCType_Cobol@@UEAAPEAXI@Z 00000001400c7db4 f i CType.obj
 0001:000c6db4       ??_GCType_Cpp@@UEAAPEAXI@Z 00000001400c7db4 f i CType.obj
 0001:000c6db4       ??_GCType_Dos@@UEAAPEAXI@Z 00000001400c7db4 f i CType.obj
 0001:000c6db4       ??_GCType_Html@@UEAAPEAXI@Z 00000001400c7db4 f i CType.obj
 0001:000c6db4       ??_GCType_Ini@@UEAAPEAXI@Z 00000001400c7db4 f i CType.obj
 0001:000c6db4       ??_GCType_Java@@UEAAPEAXI@Z 00000001400c7db4 f i CType.obj
 0001:000c6db4       ??_GCType_Pascal@@UEAAPEAXI@Z 00000001400c7db4 f i CType.obj
 0001:000c6db4       ??_GCType_Perl@@UEAAPEAXI@Z 00000001400c7db4 f i CType.obj
 0001:000c6db4       ??_GCType_Python@@UEAAPEAXI@Z 00000001400c7db4 f i CType.obj
 0001:000c6db4       ??_GCType_Rich@@UEAAPEAXI@Z 00000001400c7db4 f i CType.obj
 0001:000c6db4       ??_GCType_Sql@@UEAAPEAXI@Z 00000001400c7db4 f i CType.obj
 0001:000c6db4       ??_GCType_Tex@@UEAAPEAXI@Z 00000001400c7db4 f i CType.obj
 0001:000c6db4       ??_GCType_Text@@UEAAPEAXI@Z 00000001400c7db4 f i CType.obj
 0001:000c6db4       ??_GCType_Vb@@UEAAPEAXI@Z  00000001400c7db4 f i CType.obj
 0001:000c6de0       ?CopyType@CDlgTypeList@@IEAA_NXZ 00000001400c7de0 f   CDlgTypeList.obj
 0001:000c7078       ?UpType@CDlgTypeList@@IEAA_NXZ 00000001400c8078 f   CDlgTypeList.obj
 0001:000c71dc       ?DownType@CDlgTypeList@@IEAA_NXZ 00000001400c81dc f   CDlgTypeList.obj
 0001:000c7350       ?AddType@CDlgTypeList@@IEAA_NXZ 00000001400c8350 f   CDlgTypeList.obj
 0001:000c7398       ?DelType@CDlgTypeList@@IEAA_NXZ 00000001400c8398 f   CDlgTypeList.obj
 0001:000c7528       ?CopyRegistry@@YAHPEAUHKEY__@@AEBV?$basic_string@_WU?$char_traits@_W@std@@V?$allocator@_W@2@@std@@01@Z 00000001400c8528 f   CDlgTypeList.obj
 0001:000c78e4       ?DeleteRegistry@@YAHPEAUHKEY__@@AEBV?$basic_string@_WU?$char_traits@_W@std@@V?$allocator@_W@2@@std@@@Z 00000001400c88e4 f   CDlgTypeList.obj
 0001:000c7acc       ?RegistExt@@YAHPEB_W_N@Z   00000001400c8acc f   CDlgTypeList.obj
 0001:000c86cc       ?UnregistExt@@YAHPEB_W@Z   00000001400c96cc f   CDlgTypeList.obj
 0001:000c8d30       ?CheckExt@@YAHPEB_WPEA_N1@Z 00000001400c9d30 f   CDlgTypeList.obj
 0001:000c9128       ?AlertFileAssociation@CDlgTypeList@@IEAA_NXZ 00000001400ca128 f   CDlgTypeList.obj
 0001:000c9180       ??$wcsncmp_literal@$0O@@@YAHPEB_WAEAY0O@$$CB_W@Z 00000001400ca180 f i CDlgTypeList.obj
 0001:000c9194       ?MakeFullPath@CImpExpManager@@QEAA?AV?$basic_string@_WU?$char_traits@_W@std@@V?$allocator@_W@2@@std@@V23@@Z 00000001400ca194 f i CImpExpManager.obj
 0001:000c9240       ?GetDefaultExtension@CImpExpColors@@UEAAPEB_WXZ 00000001400ca240 f i CImpExpManager.obj
 0001:000c9248       ?GetOriginExtension@CImpExpColors@@UEAAPEB_WXZ 00000001400ca248 f i CImpExpManager.obj
 0001:000c930c       ?ImportUI@CImpExpManager@@QEAA_NPEAUHINSTANCE__@@PEAUHWND__@@@Z 00000001400ca30c f   CImpExpManager.obj
 0001:000c970c       ?ExportUI@CImpExpManager@@QEAA_NPEAUHINSTANCE__@@PEAUHWND__@@@Z 00000001400ca70c f   CImpExpManager.obj
 0001:000c9b74       ?SetBaseName@CImpExpManager@@QEAAXAEBV?$basic_string@_WU?$char_traits@_W@std@@V?$allocator@_W@2@@std@@@Z 00000001400cab74 f   CImpExpManager.obj
 0001:000c9bf4       ?ImportAscertain@CImpExpType@@UEAA_NPEAUHINSTANCE__@@PEAUHWND__@@AEBV?$basic_string@_WU?$char_traits@_W@std@@V?$allocator@_W@2@@std@@AEAV45@@Z 00000001400cabf4 f   CImpExpManager.obj
 0001:000ca000       ??1SAscertainInfo@CDlgTypeAscertain@@QEAA@XZ 00000001400cb000 f i CImpExpManager.obj
 0001:000ca034       ?Import@CImpExpType@@UEAA_NAEBV?$basic_string@_WU?$char_traits@_W@std@@V?$allocator@_W@2@@std@@AEAV23@@Z 00000001400cb034 f   CImpExpManager.obj
 0001:000caa88       ?Export@CImpExpType@@UEAA_NAEBV?$basic_string@_WU?$char_traits@_W@std@@V?$allocator@_W@2@@std@@AEAV23@@Z 00000001400cba88 f   CImpExpManager.obj
 0001:000cb5f4       ?Import@CImpExpColors@@UEAA_NAEBV?$basic_string@_WU?$char_traits@_W@std@@V?$allocator@_W@2@@std@@AEAV23@@Z 00000001400cc5f4 f   CImpExpManager.obj
 0001:000cb7d8       ?Export@CImpExpColors@@UEAA_NAEBV?$basic_string@_WU?$char_traits@_W@std@@V?$allocator@_W@2@@std@@AEAV23@@Z 00000001400cc7d8 f   CImpExpManager.obj
 0001:000cb8d8       ?Import@CImpExpRegex@@UEAA_NAEBV?$basic_string@_WU?$char_traits@_W@std@@V?$allocator@_W@2@@std@@AEAV23@@Z 00000001400cc8d8 f   CImpExpManager.obj
 0001:000cbc58       ?Export@CImpExpRegex@@UEAA_NAEBV?$basic_string@_WU?$char_traits@_W@std@@V?$allocator@_W@2@@std@@AEAV23@@Z 00000001400ccc58 f   CImpExpManager.obj
 0001:000cbd90       ?Import@CImpExpKeyHelp@@UEAA_NAEBV?$basic_string@_WU?$char_traits@_W@std@@V?$allocator@_W@2@@std@@AEAV23@@Z 00000001400ccd90 f   CImpExpManager.obj
 0001:000cc1b0       ?Export@CImpExpKeyHelp@@UEAA_NAEBV?$basic_string@_WU?$char_traits@_W@std@@V?$allocator@_W@2@@std@@AEAV23@@Z 00000001400cd1b0 f   CImpExpManager.obj
 0001:000cc30c       ?Import@CImpExpKeybind@@UEAA_NAEBV?$basic_string@_WU?$char_traits@_W@std@@V?$allocator@_W@2@@std@@AEAV23@@Z 00000001400cd30c f   CImpExpManager.obj
 0001:000ccb4c       ?Export@CImpExpKeybind@@UEAA_NAEBV?$basic_string@_WU?$char_traits@_W@std@@V?$allocator@_W@2@@std@@AEAV23@@Z 00000001400cdb4c f   CImpExpManager.obj
 0001:000ccdc8       ?Import@CImpExpCustMenu@@UEAA_NAEBV?$basic_string@_WU?$char_traits@_W@std@@V?$allocator@_W@2@@std@@AEAV23@@Z 00000001400cddc8 f   CImpExpManager.obj
 0001:000cd028       ?Export@CImpExpCustMenu@@UEAA_NAEBV?$basic_string@_WU?$char_traits@_W@std@@V?$allocator@_W@2@@std@@AEAV23@@Z 00000001400ce028 f   CImpExpManager.obj
 0001:000cd27c       ?Import@CImpExpKeyWord@@UEAA_NAEBV?$basic_string@_WU?$char_traits@_W@std@@V?$allocator@_W@2@@std@@AEAV23@@Z 00000001400ce27c f   CImpExpManager.obj
 0001:000cd4bc       ?Export@CImpExpKeyWord@@UEAA_NAEBV?$basic_string@_WU?$char_traits@_W@std@@V?$allocator@_W@2@@std@@AEAV23@@Z 00000001400ce4bc f   CImpExpManager.obj
 0001:000cd668       ?Import@CImpExpMainMenu@@UEAA_NAEBV?$basic_string@_WU?$char_traits@_W@std@@V?$allocator@_W@2@@std@@AEAV23@@Z 00000001400ce668 f   CImpExpManager.obj
 0001:000cd8c8       ?Export@CImpExpMainMenu@@UEAA_NAEBV?$basic_string@_WU?$char_traits@_W@std@@V?$allocator@_W@2@@std@@AEAV23@@Z 00000001400ce8c8 f   CImpExpManager.obj
 0001:000cdabc       ?Import@CImpExpFileTree@@UEAA_NAEBV?$basic_string@_WU?$char_traits@_W@std@@V?$allocator@_W@2@@std@@AEAV23@@Z 00000001400ceabc f   CImpExpManager.obj
 0001:000cdb80       ?Export@CImpExpFileTree@@UEAA_NAEBV?$basic_string@_WU?$char_traits@_W@std@@V?$allocator@_W@2@@std@@AEAV23@@Z 00000001400ceb80 f   CImpExpManager.obj
 0001:000cdc78       ?IO_FileTreeIni@CImpExpFileTree@@SAXAEAVCDataProfile@@AEAV?$vector@USFileTreeItem@@V?$allocator@USFileTreeItem@@@std@@@std@@@Z 00000001400cec78 f   CImpExpManager.obj
 0001:000cdd6c       ?PropTypesCommonProc@@YA_JPEAUHWND__@@I_K_JP8CPropTypes@@EAA_J0I12@Z@Z 00000001400ced6c f   CPropTypes.obj
 0001:000cddf8       ?PropTypesScreen@@YA_JPEAUHWND__@@I_K_J@Z 00000001400cedf8 f   CPropTypes.obj
 0001:000cde14       ?PropTypesWindow@@YA_JPEAUHWND__@@I_K_J@Z 00000001400cee14 f   CPropTypes.obj
 0001:000cde30       ?PropTypesColor@@YA_JPEAUHWND__@@I_K_J@Z 00000001400cee30 f   CPropTypes.obj
 0001:000cde4c       ?PropTypesSupport@@YA_JPEAUHWND__@@I_K_J@Z 00000001400cee4c f   CPropTypes.obj
 0001:000cde68       ?PropTypesRegex@@YA_JPEAUHWND__@@I_K_J@Z 00000001400cee68 f   CPropTypes.obj
 0001:000cde84       ?PropTypesKeyHelp@@YA_JPEAUHWND__@@I_K_J@Z 00000001400cee84 f   CPropTypes.obj
 0001:000cdea0       ??0CPropTypes@@QEAA@XZ     00000001400ceea0 f   CPropTypes.obj
 0001:000cdf0c       ??1CPropTypes@@QEAA@XZ     00000001400cef0c f   CPropTypes.obj
 0001:000cdf50       ?Create@CPropTypes@@QEAAXPEAUHINSTANCE__@@PEAUHWND__@@@Z 00000001400cef50 f   CPropTypes.obj
 0001:000cdf58       ?DoPropertySheet@CPropTypes@@QEAA_JH@Z 00000001400cef58 f   CPropTypes.obj
 0001:000ce1ec       ?OnHelp@CPropTypes@@IEAAXPEAUHWND__@@H@Z 00000001400cf1ec f   CPropTypes.obj
 0001:000ce264       ?SetCtrlFont@CPropTypes@@IEAAPEAUHFONT__@@PEAUHWND__@@HAEBUtagLOGFONTW@@@Z 00000001400cf264 f   CPropTypes.obj
 0001:000ce2b4       ?SetFontLabel@CPropTypes@@IEAAPEAUHFONT__@@PEAUHWND__@@HAEBUtagLOGFONTW@@H_N@Z 00000001400cf2b4 f   CPropTypes.obj
 0001:000ce3f0       ??1?$shared_ptr@VCViewFont@@@std@@QEAA@XZ 00000001400cf3f0 f i CPropTypes.obj
 0001:000ce430       ?Import@CPropTypesColor@@IEAA_NPEAUHWND__@@@Z 00000001400cf430 f   CPropTypesColor.obj
 0001:000ce680       ?Export@CPropTypesColor@@IEAA_NPEAUHWND__@@@Z 00000001400cf680 f   CPropTypesColor.obj
 0001:000ce73c       ?ColorList_SubclassProc@@YA_JPEAUHWND__@@I_K_J@Z 00000001400cf73c f   CPropTypesColor.obj
 0001:000ceb70       ?DispatchEvent@CPropTypesColor@@QEAA_JPEAUHWND__@@I_K_J@Z 00000001400cfb70 f   CPropTypesColor.obj
 0001:000cf59c       ?SetData@CPropTypesColor@@IEAAXPEAUHWND__@@@Z 00000001400d059c f   CPropTypesColor.obj
 0001:000cfaec       ?SetDataKeyword@CPropTypesColor@@IEAAXPEAUHWND__@@@Z 00000001400d0aec f   CPropTypesColor.obj
 0001:000cfbac       ?GetData@CPropTypesColor@@IEAAHPEAUHWND__@@@Z 00000001400d0bac f   CPropTypesColor.obj
 0001:000cff80       ?DrawColorButton@CPropTypesColor@@IEAAXPEAUtagDRAWITEMSTRUCT@@K@Z 00000001400d0f80 f   CPropTypesColor.obj
 0001:000d03a4       ?EnableTypesPropInput@CPropTypesColor@@IEAAXPEAUHWND__@@@Z 00000001400d13a4 f   CPropTypesColor.obj
 0001:000d058c       ?RearrangeKeywordSet@CPropTypesColor@@IEAAXPEAUHWND__@@@Z 00000001400d158c f   CPropTypesColor.obj
 0001:000d06c8       ?DrawColorListItem@CPropTypesColor@@IEAAXPEAUtagDRAWITEMSTRUCT@@@Z 00000001400d16c8 f   CPropTypesColor.obj
 0001:000d0c68       ?SelectColor@CPropTypesColor@@SAHPEAUHWND__@@PEAK1@Z 00000001400d1c68 f   CPropTypesColor.obj
 0001:000d0ce8       ?_Destroy@?$_Ref_count_obj2@VCViewFont@@@std@@EEAAXXZ 00000001400d1ce8 f i CPropTypesColor.obj
 0001:000d0cf4       ??_E?$_Ref_count_obj2@VCViewFont@@@std@@UEAAPEAXI@Z 00000001400d1cf4 f i * CIL library *:* CIL module *
 0001:000d0cf4       ??_G?$_Ref_count_obj2@VCViewFont@@@std@@UEAAPEAXI@Z 00000001400d1cf4 f i CPropTypesColor.obj
 0001:000d0d20       ?GetDefaultExtension@CImpExpKeyHelp@@UEAAPEB_WXZ 00000001400d1d20 f i CPropTypesKeyHelp.obj
 0001:000d0d28       ?GetOriginExtension@CImpExpKeyHelp@@UEAAPEB_WXZ 00000001400d1d28 f i CPropTypesKeyHelp.obj
 0001:000d0d30       ?DispatchEvent@CPropTypesKeyHelp@@QEAA_JPEAUHWND__@@I_K_J@Z 00000001400d1d30 f   CPropTypesKeyHelp.obj
 0001:000d1ed8       ?CheckDlgButtonBOOL@@YAXPEAUHWND__@@HH@Z 00000001400d2ed8 f   CPropTypesKeyHelp.obj
 0001:000d1eec       ?SetData@CPropTypesKeyHelp@@IEAAXPEAUHWND__@@@Z 00000001400d2eec f   CPropTypesKeyHelp.obj
 0001:000d21a8       ?GetData@CPropTypesKeyHelp@@IEAAHPEAUHWND__@@@Z 00000001400d31a8 f   CPropTypesKeyHelp.obj
 0001:000d23d0       ?Import@CPropTypesKeyHelp@@IEAA_NPEAUHWND__@@@Z 00000001400d33d0 f   CPropTypesKeyHelp.obj
 0001:000d248c       ?Export@CPropTypesKeyHelp@@IEAA_NPEAUHWND__@@@Z 00000001400d348c f   CPropTypesKeyHelp.obj
 0001:000d259c       ?GetDefaultExtension@CImpExpRegex@@UEAAPEB_WXZ 00000001400d359c f i CPropTypesRegex.obj
 0001:000d25a4       ?GetOriginExtension@CImpExpRegex@@UEAAPEB_WXZ 00000001400d35a4 f i CPropTypesRegex.obj
 0001:000d25ac       ?Import@CPropTypesRegex@@IEAA_NPEAUHWND__@@@Z 00000001400d35ac f   CPropTypesRegex.obj
 0001:000d2674       ?Export@CPropTypesRegex@@IEAA_NPEAUHWND__@@@Z 00000001400d3674 f   CPropTypesRegex.obj
 0001:000d2724       ?DispatchEvent@CPropTypesRegex@@QEAA_JPEAUHWND__@@I_K_J@Z 00000001400d3724 f   CPropTypesRegex.obj
 0001:000d35a8       ?SetData@CPropTypesRegex@@IEAAXPEAUHWND__@@@Z 00000001400d45a8 f   CPropTypesRegex.obj
 0001:000d3720       ?SetDataKeywordList@CPropTypesRegex@@IEAAXPEAUHWND__@@@Z 00000001400d4720 f   CPropTypesRegex.obj
 0001:000d3870       ?GetData@CPropTypesRegex@@IEAAHPEAUHWND__@@@Z 00000001400d4870 f   CPropTypesRegex.obj
 0001:000d3a78       ?RegexKakomiCheck@CPropTypesRegex@@AEAAHPEB_W@Z 00000001400d4a78 f   CPropTypesRegex.obj
 0001:000d3a80       ?CheckKeywordList@CPropTypesRegex@@AEAA_NPEAUHWND__@@PEB_WH@Z 00000001400d4a80 f   CPropTypesRegex.obj
 0001:000d3c2c       ?CPropTypes_Screen@CPropTypesScreen@@QEAAXXZ 00000001400d4c2c f   CPropTypesScreen.obj
 0001:000d3c80       ?DispatchEvent@CPropTypesScreen@@QEAA_JPEAUHWND__@@I_K_J@Z 00000001400d4c80 f   CPropTypesScreen.obj
 0001:000d4424       ?SetData@CPropTypesScreen@@IEAAXPEAUHWND__@@@Z 00000001400d5424 f   CPropTypesScreen.obj
 0001:000d4c00       ?GetData@CPropTypesScreen@@IEAAHPEAUHWND__@@@Z 00000001400d5c00 f   CPropTypesScreen.obj
 0001:000d5078       ?AddOutlineMethod@CPropTypesScreen@@SAXHPEB_W@Z 00000001400d6078 f   CPropTypesScreen.obj
 0001:000d50ec       ?RemoveOutlineMethod@CPropTypesScreen@@SAXHPEB_W@Z 00000001400d60ec f   CPropTypesScreen.obj
 0001:000d5184       ?AddSIndentMethod@CPropTypesScreen@@SAXHPEB_W@Z 00000001400d6184 f   CPropTypesScreen.obj
 0001:000d51f8       ?RemoveSIndentMethod@CPropTypesScreen@@SAXHPEB_W@Z 00000001400d61f8 f   CPropTypesScreen.obj
 0001:000d5290       ??$InitTypeNameId2@W4EOutlineType@@@@YAXAEAV?$vector@U?$TYPE_NAME_ID2@W4EOutlineType@@@@V?$allocator@U?$TYPE_NAME_ID2@W4EOutlineType@@@@@std@@@std@@PEAU?$TYPE_NAME_ID@W4EOutlineType@@@@_K@Z 00000001400d6290 f i CPropTypesScreen.obj
 0001:000d5300       ??$InitTypeNameId2@W4ESmartIndentType@@@@YAXAEAV?$vector@U?$TYPE_NAME_ID2@W4ESmartIndentType@@@@V?$allocator@U?$TYPE_NAME_ID2@W4ESmartIndentType@@@@@std@@@std@@PEAU?$TYPE_NAME_ID@W4ESmartIndentType@@@@_K@Z 00000001400d6300 f i CPropTypesScreen.obj
 0001:000d536c       ??$_Emplace_reallocate@AEBU?$TYPE_NAME_ID2@W4ESmartIndentType@@@@@?$vector@U?$TYPE_NAME_ID2@W4ESmartIndentType@@@@V?$allocator@U?$TYPE_NAME_ID2@W4ESmartIndentType@@@@@std@@@std@@AEAAPEAU?$TYPE_NAME_ID2@W4ESmartIndentType@@@@QEAU2@AEBU2@@Z 00000001400d636c f i CPropTypesScreen.obj
 0001:000d54fc       ??$_Emplace_reallocate@AEBU?$TYPE_NAME_ID2@W4EOutlineType@@@@@?$vector@U?$TYPE_NAME_ID2@W4EOutlineType@@@@V?$allocator@U?$TYPE_NAME_ID2@W4EOutlineType@@@@@std@@@std@@AEAAPEAU?$TYPE_NAME_ID2@W4EOutlineType@@@@QEAU2@AEBU2@@Z 00000001400d64fc f i CPropTypesScreen.obj
 0001:000d56f8       ?DispatchEvent@CPropTypesSupport@@QEAA_JPEAUHWND__@@I_K_J@Z 00000001400d66f8 f   CPropTypesSupport.obj
 0001:000d588c       ?SetData@CPropTypesSupport@@IEAAXPEAUHWND__@@@Z 00000001400d688c f   CPropTypesSupport.obj
 0001:000d5ad8       ?GetData@CPropTypesSupport@@IEAAHPEAUHWND__@@@Z 00000001400d6ad8 f   CPropTypesSupport.obj
 0001:000d5c74       ?AddHokanMethod@CPropTypesSupport@@SAXHPEB_W@Z 00000001400d6c74 f   CPropTypesSupport.obj
 0001:000d5d3c       ?RemoveHokanMethod@CPropTypesSupport@@SAXHPEB_W@Z 00000001400d6d3c f   CPropTypesSupport.obj
 0001:000d5e64       ??$_Emplace_reallocate@AEBUSHokanMethod@@@?$vector@USHokanMethod@@V?$allocator@USHokanMethod@@@std@@@std@@AEAAPEAUSHokanMethod@@QEAU2@AEBU2@@Z 00000001400d6e64 f i CPropTypesSupport.obj
 0001:000d60bc       ?DispatchEvent@CPropTypesWindow@@QEAA_JPEAUHWND__@@I_K_J@Z 00000001400d70bc f   CPropTypesWindow.obj
 0001:000d6534       ?SetCombobox@CPropTypesWindow@@IEAAXPEAUHWND__@@PEBHHH@Z 00000001400d7534 f   CPropTypesWindow.obj
 0001:000d65b4       ?SetData@CPropTypesWindow@@IEAAXPEAUHWND__@@@Z 00000001400d75b4 f   CPropTypesWindow.obj
 0001:000d6bf4       ?GetData@CPropTypesWindow@@IEAAHPEAUHWND__@@@Z 00000001400d7bf4 f   CPropTypesWindow.obj
 0001:000d6f28       ?EnableTypesPropInput@CPropTypesWindow@@IEAAXPEAUHWND__@@@Z 00000001400d7f28 f   CPropTypesWindow.obj
 0001:000d6fa4       ?InitTypeConfig@CType@@QEAAXHAEAUSTypeConfig@@@Z 00000001400d7fa4 f   CType.obj
 0001:000d7050       ?InitTypeConfigs@CShareData@@IEAAXPEAUDLLSHAREDATA@@AEAV?$vector@PEAUSTypeConfig@@V?$allocator@PEAUSTypeConfig@@@std@@@std@@@Z 00000001400d8050 f   CType.obj
 0001:000d7324       ?InitKeyword@CShareData@@IEAAXPEAUDLLSHAREDATA@@@Z 00000001400d8324 f   CType.obj
 0001:000d762c       ?_DefaultConfig@@YAXPEAUSTypeConfig@@@Z 00000001400d862c f   CType.obj
 0001:000d795c       ?InitTypeConfigImp@CType_Asm@@MEAAXPEAUSTypeConfig@@@Z 00000001400d895c f   CType_Asm.obj
 0001:000d79b8       ?MakeTopicList_asm@CDocOutline@@QEAAXPEAVCFuncInfoArr@@@Z 00000001400d89b8 f   CType_Asm.obj
 0001:000d7bbc       ?InitTypeConfigImp@CType_Awk@@MEAAXPEAUSTypeConfig@@@Z 00000001400d8bbc f   CType_Awk.obj
 0001:000d7c1c       ?InitTypeConfigImp@CType_Basis@@MEAAXPEAUSTypeConfig@@@Z 00000001400d8c1c f   CType_Basis.obj
 0001:000d7c64       ?InitTypeConfigImp@CType_Cobol@@MEAAXPEAUSTypeConfig@@@Z 00000001400d8c64 f   CType_Cobol.obj
 0001:000d7d38       ?MakeTopicList_cobol@CDocOutline@@QEAAXPEAVCFuncInfoArr@@@Z 00000001400d8d38 f   CType_Cobol.obj
 0001:000d7fb8       ?GetCLangOutlineType@@YA?AW4EOutlineType@@PEB_W@Z 00000001400d8fb8 f   CType_Cpp.obj
 0001:000d8064       ?InitTypeConfigImp@CType_Cpp@@MEAAXPEAUSTypeConfig@@@Z 00000001400d9064 f   CType_Cpp.obj
 0001:000d82ec       ?ScanLine@CCppPreprocessMng@@QEAAHPEB_WH@Z 00000001400d92ec f   CType_Cpp.obj
 0001:000d8624       ?MakeFuncList_C@CDocOutline@@QEAAXPEAVCFuncInfoArr@@AEAW4EOutlineType@@PEB_W_N@Z 00000001400d9624 f   CType_Cpp.obj
 0001:000da2e0       ?SmartIndent_CPP@CEditView@@QEAAX_W@Z 00000001400db2e0 f   CType_Cpp.obj
 0001:000db268       ??$wcsncmp_literal@$04@@YAHPEB_WAEAY04$$CB_W@Z 00000001400dc268 f i CType_Cpp.obj
 0001:000db274       ??$wcsncmp_literal@$08@@YAHPEB_WAEAY08$$CB_W@Z 00000001400dc274 f i CType_Cpp.obj
 0001:000db280       ??$wcsncmp_literal@$07@@YAHPEB_WAEAY07$$CB_W@Z 00000001400dc280 f i CType_Cpp.obj
 0001:000db294       ??$wcsncmp_literal@$0L@@@YAHPEB_WAEAY0L@$$CB_W@Z 00000001400dc294 f i CType_Cpp.obj
 0001:000db2a0       ??$wcsncmp_literal@$06@@YAHPEB_WAEAY06$$CB_W@Z 00000001400dc2a0 f i CType_Cpp.obj
 0001:000db2b4       ?InitTypeConfigImp@CType_Dos@@MEAAXPEAUSTypeConfig@@@Z 00000001400dc2b4 f   CType_Dos.obj
 0001:000db314       ?ScanFuncName@COutlineErlang@@QEAAPEB_WPEB_W00@Z 00000001400dc314 f   CType_Erlang.obj
 0001:000db3ec       ?EnterArgs@COutlineErlang@@QEAAPEB_WPEB_W0@Z 00000001400dc3ec f   CType_Erlang.obj
 0001:000db474       ?ScanArgs1@COutlineErlang@@QEAAPEB_WPEB_W0@Z 00000001400dc474 f   CType_Erlang.obj
 0001:000db4f0       ?ScanArgs@COutlineErlang@@QEAAPEB_WPEB_W0@Z 00000001400dc4f0 f   CType_Erlang.obj
 0001:000db69c       ?EnterCond@COutlineErlang@@QEAAPEB_WPEB_W0@Z 00000001400dc69c f   CType_Erlang.obj
 0001:000db738       ?parse@COutlineErlang@@QEAA_NPEB_WHH@Z 00000001400dc738 f   CType_Erlang.obj
 0001:000db830       ?build_arity@COutlineErlang@@AEAAXH@Z 00000001400dc830 f   CType_Erlang.obj
 0001:000db88c       ?MakeFuncList_Erlang@CDocOutline@@QEAAXPEAVCFuncInfoArr@@@Z 00000001400dc88c f   CType_Erlang.obj
 0001:000db9a8       ??$_snwprintf_s@$0M@@@YAHAEAY0M@_W_KPEB_WZZ 00000001400dc9a8 f i CType_Erlang.obj
 0001:000dba04       ?InitTypeConfigImp@CType_Html@@MEAAXPEAUSTypeConfig@@@Z 00000001400dca04 f   CType_Html.obj
 0001:000dba7c       ?MakeTopicList_html@CDocOutline@@QEAAXPEAVCFuncInfoArr@@_N@Z 00000001400dca7c f   CType_Html.obj
 0001:000dc750       ?InitTypeConfigImp@CType_Ini@@MEAAXPEAUSTypeConfig@@@Z 00000001400dd750 f   CType_Ini.obj
 0001:000dc7d8       ?InitTypeConfigImp@CType_Java@@MEAAXPEAUSTypeConfig@@@Z 00000001400dd7d8 f   CType_Java.obj
 0001:000dc870       ?MakeFuncList_Java@CDocOutline@@QEAAXPEAVCFuncInfoArr@@@Z 00000001400dd870 f   CType_Java.obj
 0001:000dd7d0       ??0?$vector@HV?$allocator@H@std@@@std@@QEAA@_KAEBV?$allocator@H@1@@Z 00000001400de7d0 f i CType_Java.obj
 0001:000dd878       ??1?$_Tidy_guard@V?$vector@HV?$allocator@H@std@@@std@@@std@@QEAA@XZ 00000001400de878 f i CType_Java.obj
 0001:000dd878       ??1?$_Tidy_guard@V?$vector@IV?$allocator@I@std@@@std@@@std@@QEAA@XZ 00000001400de878 f i file.obj
 0001:000dd8dc       ?InitTypeConfigImp@CType_Pascal@@MEAAXPEAUSTypeConfig@@@Z 00000001400de8dc f   CType_Pascal.obj
 0001:000dd980       ?InitTypeConfigImp@CType_Perl@@MEAAXPEAUSTypeConfig@@@Z 00000001400de980 f   CType_Perl.obj
 0001:000dda00       ?MakeFuncList_Perl@CDocOutline@@QEAAXPEAVCFuncInfoArr@@@Z 00000001400dea00 f   CType_Perl.obj
 0001:000ddd4c       ?InitTypeConfigImp@CType_Python@@MEAAXPEAUSTypeConfig@@@Z 00000001400ded4c f   CType_Python.obj
 0001:000dddcc       ?EnterString@COutlinePython@@QEAAHPEB_WHH@Z 00000001400dedcc f   CType_Python.obj
 0001:000dde50       ?ScanNormal@COutlinePython@@QEAAHPEB_WHH@Z 00000001400dee50 f   CType_Python.obj
 0001:000ddf60       ?ScanString@COutlinePython@@QEAAHPEB_WHH@Z 00000001400def60 f   CType_Python.obj
 0001:000de0e4       ?DoScanLine@COutlinePython@@QEAAXPEB_WHH@Z 00000001400df0e4 f   CType_Python.obj
 0001:000de14c       ?MakeFuncList_python@CDocOutline@@QEAAXPEAVCFuncInfoArr@@@Z 00000001400df14c f   CType_Python.obj
 0001:000de560       ?InitTypeConfigImp@CType_Rich@@MEAAXPEAUSTypeConfig@@@Z 00000001400df560 f   CType_Rich.obj
 0001:000de5c4       ?InitTypeConfigImp@CType_Sql@@MEAAXPEAUSTypeConfig@@@Z 00000001400df5c4 f   CType_Sql.obj
 0001:000de658       ?MakeFuncList_PLSQL@CDocOutline@@QEAAXPEAVCFuncInfoArr@@@Z 00000001400df658 f   CType_Sql.obj
 0001:000df09c       ?InitTypeConfigImp@CType_Tex@@MEAAXPEAUSTypeConfig@@@Z 00000001400e009c f   CType_Tex.obj
 0001:000df114       ?MakeTopicList_tex@CDocOutline@@QEAAXPEAVCFuncInfoArr@@@Z 00000001400e0114 f   CType_Tex.obj
 0001:000df320       ??R?$TagProcessor@$03@@QEAAPEB_WHPEB_W00000@Z 00000001400e0320 f i CType_Tex.obj
 0001:000df65c       ?InitTypeConfigImp@CType_Text@@MEAAXPEAUSTypeConfig@@@Z 00000001400e065c f   CType_Text.obj
 0001:000df788       ?MakeTopicList_txt@CDocOutline@@QEAAXPEAVCFuncInfoArr@@@Z 00000001400e0788 f   CType_Text.obj
 0001:000dfdc0       ?MakeTopicList_wztxt@CDocOutline@@QEAAXPEAVCFuncInfoArr@@@Z 00000001400e0dc0 f   CType_Text.obj
 0001:000dffd0       ?InitTypeConfigImp@CType_Vb@@MEAAXPEAUSTypeConfig@@@Z 00000001400e0fd0 f   CType_Vb.obj
 0001:000e0058       ?MakeFuncList_VisualBasic@CDocOutline@@QEAAXPEAVCFuncInfoArr@@@Z 00000001400e1058 f   CType_Vb.obj
 0001:000e0be8       ??1CGDIStock@@QEAA@XZ      00000001400e1be8 f i CGraphics.obj
 0001:000e0c68       ?Init@CGraphics@@QEAAXPEAUHDC__@@@Z 00000001400e1c68 f   CGraphics.obj
 0001:000e0c88       ??1CGraphics@@QEAA@XZ      00000001400e1c88 f   CGraphics.obj
 0001:000e0e90       ?_InitClipping@CGraphics@@AEAAXXZ 00000001400e1e90 f   CGraphics.obj
 0001:000e0f3c       ?PushClipping@CGraphics@@QEAAXAEBUtagRECT@@@Z 00000001400e1f3c f   CGraphics.obj
 0001:000e0f9c       ?PopClipping@CGraphics@@QEAAXXZ 00000001400e1f9c f   CGraphics.obj
 0001:000e0fe4       ?ClearClipping@CGraphics@@QEAAXXZ 00000001400e1fe4 f   CGraphics.obj
 0001:000e1058       ?PushTextForeColor@CGraphics@@QEAAXK@Z 00000001400e2058 f   CGraphics.obj
 0001:000e10e8       ?PopTextForeColor@CGraphics@@QEAAXXZ 00000001400e20e8 f   CGraphics.obj
 0001:000e1118       ?ClearTextForeColor@CGraphics@@QEAAXXZ 00000001400e2118 f   CGraphics.obj
 0001:000e114c       ?PushTextBackColor@CGraphics@@QEAAXK@Z 00000001400e214c f   CGraphics.obj
 0001:000e11dc       ?PopTextBackColor@CGraphics@@QEAAXXZ 00000001400e21dc f   CGraphics.obj
 0001:000e120c       ?ClearTextBackColor@CGraphics@@QEAAXXZ 00000001400e220c f   CGraphics.obj
 0001:000e1240       ?RestoreTextColors@CGraphics@@QEAAXXZ 00000001400e2240 f   CGraphics.obj
 0001:000e1278       ?PushMyFont@CGraphics@@QEAAXAEBUSFONT@@@Z 00000001400e2278 f   CGraphics.obj
 0001:000e1308       ?PopMyFont@CGraphics@@QEAAXXZ 00000001400e2308 f   CGraphics.obj
 0001:000e133c       ?ClearMyFont@CGraphics@@QEAAXXZ 00000001400e233c f   CGraphics.obj
 0001:000e1370       ?PushPen@CGraphics@@QEAAXKHH@Z 00000001400e2370 f   CGraphics.obj
 0001:000e13f0       ?PopPen@CGraphics@@QEAAXXZ 00000001400e23f0 f   CGraphics.obj
 0001:000e1464       ?ClearPen@CGraphics@@QEAAXXZ 00000001400e2464 f   CGraphics.obj
 0001:000e14e0       ?_InitBrushColor@CGraphics@@QEAAXXZ 00000001400e24e0 f   CGraphics.obj
 0001:000e1560       ?PushBrushColor@CGraphics@@QEAAXK@Z 00000001400e2560 f   CGraphics.obj
 0001:000e15dc       ?ClearBrush@CGraphics@@QEAAXXZ 00000001400e25dc f   CGraphics.obj
 0001:000e1860       ?DrawDropRect@CGraphics@@SAXPEBUtagRECT@@UtagSIZE@@01@Z 00000001400e2860 f   CGraphics.obj
 0001:000e19dc       ?DrawRect@CGraphics@@QEAAXHHHH@Z 00000001400e29dc f   CGraphics.obj
 0001:000e1a68       ??$_Emplace_reallocate@AEBQEAX@?$vector@PEAXV?$allocator@PEAX@std@@@std@@AEAAPEAPEAXQEAPEAXAEBQEAX@Z 00000001400e2a68 f i CGraphics.obj
 0001:000e1bf8       ??0CImageListMgr@@QEAA@XZ  00000001400e2bf8 f   CImageListMgr.obj
 0001:000e1ca8       ??1CImageListMgr@@QEAA@XZ  00000001400e2ca8 f   CImageListMgr.obj
 0001:000e1e4c       ?Create@CImageListMgr@@QEAA_NPEAUHINSTANCE__@@@Z 00000001400e2e4c f   CImageListMgr.obj
 0001:000e1f84       ?ToHLS@@YA?AV?$tuple@NNN@std@@K@Z 00000001400e2f84 f   CImageListMgr.obj
 0001:000e2184       ?FromHLS@@YAKAEBV?$tuple@NNN@std@@@Z 00000001400e3184 f   CImageListMgr.obj
 0001:000e2428       ?MyBitBlt@CImageListMgr@@IEBAXPEAUHDC__@@HHHHHH@Z 00000001400e3428 f   CImageListMgr.obj
 0001:000e24ec       ?MyDitherBlt@CImageListMgr@@IEBAXPEAUHDC__@@HHHHHH@Z 00000001400e34ec f   CImageListMgr.obj
 0001:000e285c       ?DrawToolIcon@CImageListMgr@@QEBA_NPEAUHDC__@@JJHKJJ@Z 00000001400e385c f   CImageListMgr.obj
 0001:000e28c8       ?Add@CImageListMgr@@QEAAHPEB_W@Z 00000001400e38c8 f   CImageListMgr.obj
 0001:000e2a94       ?ResizeToolIcons@CImageListMgr@@IEBAPEAUHBITMAP__@@PEAU2@AEAK@Z 00000001400e3a94 f   CImageListMgr.obj
 0001:000e2d2c       ?Extend@CImageListMgr@@IEAAX_N@Z 00000001400e3d2c f   CImageListMgr.obj
 0001:000e2e70       ?ResetExtend@CImageListMgr@@QEAAXXZ 00000001400e3e70 f   CImageListMgr.obj
 0001:000e2e80       ??0CMenuDrawer@@QEAA@XZ    00000001400e3e80 f   CMenuDrawer.obj
 0001:000e303c       ??1CMenuDrawer@@QEAA@XZ    00000001400e403c f   CMenuDrawer.obj
 0001:000e30c0       ?Create@CMenuDrawer@@QEAAXPEAUHINSTANCE__@@PEAUHWND__@@PEAVCImageListMgr@@@Z 00000001400e40c0 f   CMenuDrawer.obj
 0001:000e30d0       ?ResetContents@CMenuDrawer@@QEAAXXZ 00000001400e40d0 f   CMenuDrawer.obj
 0001:000e323c       ?MyAppendMenu@CMenuDrawer@@QEAAXPEAUHMENU__@@H_KPEB_W2HH@Z 00000001400e423c f   CMenuDrawer.obj
 0001:000e34a4       ??1MyMenuItemInfo@CMenuDrawer@@QEAA@XZ 00000001400e44a4 f i CMenuDrawer.obj
 0001:000e34b0       ?MeasureItem@CMenuDrawer@@QEAAHHPEAH@Z 00000001400e44b0 f   CMenuDrawer.obj
 0001:000e3664       ?DrawItem@CMenuDrawer@@QEAAXPEAUtagDRAWITEMSTRUCT@@@Z 00000001400e4664 f   CMenuDrawer.obj
 0001:000e4328       ?EndDrawMenu@CMenuDrawer@@QEAAXXZ 00000001400e5328 f   CMenuDrawer.obj
 0001:000e4330       ?DeleteCompDC@CMenuDrawer@@AEAAXXZ 00000001400e5330 f   CMenuDrawer.obj
 0001:000e4378       ?FindToolbarNoFromCommandId@CMenuDrawer@@QEBAHH_N@Z 00000001400e5378 f   CMenuDrawer.obj
 0001:000e4398       ?FindIndexFromCommandId@CMenuDrawer@@AEBAHH_N@Z 00000001400e5398 f   CMenuDrawer.obj
 0001:000e43f0       ?getButton@CMenuDrawer@@QEBA?AU_TBBUTTON@@H@Z 00000001400e53f0 f   CMenuDrawer.obj
 0001:000e4470       ?Find@CMenuDrawer@@AEAAHH@Z 00000001400e5470 f   CMenuDrawer.obj
 0001:000e44cc       ?GetLabel@CMenuDrawer@@AEAAPEB_WH@Z 00000001400e54cc f   CMenuDrawer.obj
 0001:000e44f8       ?GetAccelCharFromLabel@CMenuDrawer@@AEAA_WPEB_W@Z 00000001400e54f8 f   CMenuDrawer.obj
 0001:000e4564       ?OnMenuChar@CMenuDrawer@@QEAA_JPEAUHWND__@@I_K_J@Z 00000001400e5564 f   CMenuDrawer.obj
 0001:000e47ec       ?SetTBBUTTONVal@CMenuDrawer@@IEBAXPEAU_TBBUTTON@@HHEE_K_J@Z 00000001400e57ec f   CMenuDrawer.obj
 0001:000e480c       ?AddToolButton@CMenuDrawer@@QEAAXHH@Z 00000001400e580c f   CMenuDrawer.obj
 0001:000e4a30       ??1?$vector@UWorkData@@V?$allocator@UWorkData@@@std@@@std@@QEAA@XZ 00000001400e5a30 f i CMenuDrawer.obj
 0001:000e4aa8       ??1?$vector@UMyMenuItemInfo@CMenuDrawer@@V?$allocator@UMyMenuItemInfo@CMenuDrawer@@@std@@@std@@QEAA@XZ 00000001400e5aa8 f i CMenuDrawer.obj
 0001:000e4b54       ??1?$vector@U_TBBUTTON@@V?$allocator@U_TBBUTTON@@@std@@@std@@QEAA@XZ 00000001400e5b54 f i CMenuDrawer.obj
 0001:000e4bb0       ?deallocate@?$allocator@UMyMenuItemInfo@CMenuDrawer@@@std@@QEAAXQEAUMyMenuItemInfo@CMenuDrawer@@_K@Z 00000001400e5bb0 f i CMenuDrawer.obj
 0001:000e4bf4       ??$_Destroy_range@V?$allocator@UMyMenuItemInfo@CMenuDrawer@@@std@@@std@@YAXPEAUMyMenuItemInfo@CMenuDrawer@@QEAU12@AEAV?$allocator@UMyMenuItemInfo@CMenuDrawer@@@0@@Z 00000001400e5bf4 f i CMenuDrawer.obj
 0001:000e4c28       ??$_Emplace_reallocate@AEBUWorkData@@@?$vector@UWorkData@@V?$allocator@UWorkData@@@std@@@std@@AEAAPEAUWorkData@@QEAU2@AEBU2@@Z 00000001400e5c28 f i CMenuDrawer.obj
 0001:000e4e0c       ??$_Emplace_reallocate@AEBUMyMenuItemInfo@CMenuDrawer@@@?$vector@UMyMenuItemInfo@CMenuDrawer@@V?$allocator@UMyMenuItemInfo@CMenuDrawer@@@std@@@std@@AEAAPEAUMyMenuItemInfo@CMenuDrawer@@QEAU23@AEBU23@@Z 00000001400e5e0c f i CMenuDrawer.obj
 0001:000e50dc       ??$_Resize_reallocate@U_Value_init_tag@std@@@?$vector@U_TBBUTTON@@V?$allocator@U_TBBUTTON@@@std@@@std@@AEAAX_KAEBU_Value_init_tag@1@@Z 00000001400e60dc f i CMenuDrawer.obj
 0001:000e5210       ??$_Emplace_reallocate@AEBU_TBBUTTON@@@?$vector@U_TBBUTTON@@V?$allocator@U_TBBUTTON@@@std@@@std@@AEAAPEAU_TBBUTTON@@QEAU2@AEBU2@@Z 00000001400e6210 f i CMenuDrawer.obj
 0001:000e5378       ?NeedlessToSaveBeep@CSoundSet@@QEAAXXZ 00000001400e6378 f   CSoundSet.obj
 0001:000e5394       ??_ECProgressListener@@UEAAPEAXI@Z 00000001400e6394 f i * CIL library *:* CIL module *
 0001:000e5394       ??_GCProgressListener@@UEAAPEAXI@Z 00000001400e6394 f i CVisualProgress.obj
 0001:000e53d4       ??0CVisualProgress@@QEAA@XZ 00000001400e63d4 f   CVisualProgress.obj
 0001:000e5414       ??1CVisualProgress@@UEAA@XZ 00000001400e6414 f   CVisualProgress.obj
 0001:000e548c       ?OnBeforeLoad@CVisualProgress@@UEAAXPEAUSLoadInfo@@@Z 00000001400e648c f   CVisualProgress.obj
 0001:000e548c       ?OnBeforeSave@CVisualProgress@@UEAAXAEBUSSaveInfo@@@Z 00000001400e648c f   CVisualProgress.obj
 0001:000e5494       ?OnAfterLoad@CVisualProgress@@UEAAXAEBUSLoadInfo@@@Z 00000001400e6494 f   CVisualProgress.obj
 0001:000e5494       ?OnFinalSave@CVisualProgress@@UEAAXW4ESaveResult@@@Z 00000001400e6494 f   CVisualProgress.obj
 0001:000e549c       ?OnProgress@CVisualProgress@@UEAAXH@Z 00000001400e649c f   CVisualProgress.obj
 0001:000e54a8       ?_Begin@CVisualProgress@@IEAAXXZ 00000001400e64a8 f   CVisualProgress.obj
 0001:000e5550       ?_Doing@CVisualProgress@@IEAAXH@Z 00000001400e6550 f   CVisualProgress.obj
 0001:000e55bc       ?_End@CVisualProgress@@IEAAXXZ 00000001400e65bc f   CVisualProgress.obj
 0001:000e562c       ??_ECVisualProgress@@WBA@EAAPEAXI@Z 00000001400e662c f i CVisualProgress.obj
 0001:000e5638       ??0CWaitCursor@@QEAA@PEAUHWND__@@_N@Z 00000001400e6638 f   CWaitCursor.obj
 0001:000e567c       ??1CWaitCursor@@QEAA@XZ    00000001400e667c f   CWaitCursor.obj
 0001:000e56a4       ??_E_Node_base@std@@UEAAPEAXI@Z 00000001400e66a4 f i * CIL library *:* CIL module *
 0001:000e56a4       ??_E_Node_endif@std@@UEAAPEAXI@Z 00000001400e66a4 f i * CIL library *:* CIL module *
 0001:000e56a4       ??_G_Node_base@std@@UEAAPEAXI@Z 00000001400e66a4 f i file.obj
 0001:000e56a4       ??_G_Node_endif@std@@UEAAPEAXI@Z 00000001400e66a4 f i file.obj
 0001:000e56d0       ??_E_Root_node@std@@UEAAPEAXI@Z 00000001400e66d0 f i * CIL library *:* CIL module *
 0001:000e56d0       ??_G_Root_node@std@@UEAAPEAXI@Z 00000001400e66d0 f i file.obj
 0001:000e56fc       ??_E_Node_back@std@@UEAAPEAXI@Z 00000001400e66fc f i * CIL library *:* CIL module *
 0001:000e56fc       ??_E_Node_capture@std@@UEAAPEAXI@Z 00000001400e66fc f i * CIL library *:* CIL module *
 0001:000e56fc       ??_E_Node_end_group@std@@UEAAPEAXI@Z 00000001400e66fc f i * CIL library *:* CIL module *
 0001:000e56fc       ??_E_Node_end_rep@std@@UEAAPEAXI@Z 00000001400e66fc f i * CIL library *:* CIL module *
 0001:000e56fc       ??_G_Node_back@std@@UEAAPEAXI@Z 00000001400e66fc f i file.obj
 0001:000e56fc       ??_G_Node_capture@std@@UEAAPEAXI@Z 00000001400e66fc f i file.obj
 0001:000e56fc       ??_G_Node_end_group@std@@UEAAPEAXI@Z 00000001400e66fc f i file.obj
 0001:000e56fc       ??_G_Node_end_rep@std@@UEAAPEAXI@Z 00000001400e66fc f i file.obj
 0001:000e5728       ??_E_Node_assert@std@@UEAAPEAXI@Z 00000001400e6728 f i * CIL library *:* CIL module *
 0001:000e5728       ??_G_Node_assert@std@@UEAAPEAXI@Z 00000001400e6728 f i file.obj
 0001:000e5798       ??1_Node_if@std@@UEAA@XZ   00000001400e6798 f i file.obj
 0001:000e581c       ??_E_Node_if@std@@UEAAPEAXI@Z 00000001400e681c f i * CIL library *:* CIL module *
 0001:000e581c       ??_G_Node_if@std@@UEAAPEAXI@Z 00000001400e681c f i file.obj
 0001:000e5850       ??_E_Node_rep@std@@UEAAPEAXI@Z 00000001400e6850 f i * CIL library *:* CIL module *
 0001:000e5850       ??_G_Node_rep@std@@UEAAPEAXI@Z 00000001400e6850 f i file.obj
 0001:000e587c       ?_Calculate_loop_simplicity@std@@YAXPEAV_Node_base@1@0PEAV_Node_rep@1@@Z 00000001400e687c f i file.obj
 0001:000e5948       ?fexist@@YA_NPEB_W@Z       00000001400e6948 f   file.obj
 0001:000e5960       ?IsInvalidFilenameChars@@YA_NAEBV?$basic_string_view@_WU?$char_traits@_W@std@@@std@@@Z 00000001400e6960 f   file.obj
 0001:000e59dc       ?IsFilePath@@YA_NPEB_WPEA_K1_N@Z 00000001400e69dc f   file.obj
 0001:000e5bf4       ?IsLocalDrive@@YA_NPEB_W@Z 00000001400e6bf4 f   file.obj
 0001:000e5c78       ?GetFileTitlePointer@@YAPEB_WPEB_W@Z 00000001400e6c78 f   file.obj
 0001:000e5cdc       ?_wfopen_absini@@YAPEAU_iobuf@@PEB_W0H@Z 00000001400e6cdc f   file.obj
 0001:000e5d38       ?CutLastYenFromDirectoryPath@@YAXPEA_W@Z 00000001400e6d38 f   file.obj
 0001:000e5db4       ?AddLastYenFromDirectoryPath@@YAXPEA_W@Z 00000001400e6db4 f   file.obj
 0001:000e5e10       ?AddLastYenPath@@YA?AV?$basic_string@_WU?$char_traits@_W@std@@V?$allocator@_W@2@@std@@V?$basic_string_view@_WU?$char_traits@_W@std@@@2@@Z 00000001400e6e10 f   file.obj
 0001:000e5e90       ?SplitPath_FolderAndFile@@YAXPEB_WPEA_W1@Z 00000001400e6e90 f   file.obj
 0001:000e5f74       ?Concat_FolderAndFile@@YAXPEB_W0PEA_W@Z 00000001400e6f74 f   file.obj
 0001:000e5fcc       ?GetLongFileName@@YAHPEB_WPEA_W@Z 00000001400e6fcc f   file.obj
 0001:000e6078       ?CheckEXT@@YAHPEB_W0@Z     00000001400e7078 f   file.obj
 0001:000e60ec       ?_IS_REL_PATH@@YA_NPEB_W@Z 00000001400e70ec f   file.obj
 0001:000e6128       ?CalcDirectoryDepth@@YAHPEB_W@Z 00000001400e7128 f   file.obj
 0001:000e621c       ?GetExeFileName@@YA?AVpath@filesystem@std@@XZ 00000001400e721c f   file.obj
 0001:000e62c0       ?GetExedir@@YAXPEA_WPEB_W@Z 00000001400e72c0 f   file.obj
 0001:000e6444       ?GetIniFileName@@YA?AVpath@filesystem@std@@XZ 00000001400e7444 f   file.obj
 0001:000e64e0       ?GetInidir@@YAXPEA_WPEB_W@Z 00000001400e74e0 f   file.obj
 0001:000e6664       ?GetInidirOrExedir@@YAXPEA_WPEB_WH@Z 00000001400e7664 f   file.obj
 0001:000e6730       ?GetRelPath@@YAPEB_WPEB_W@Z 00000001400e7730 f   file.obj
 0001:000e67e0       ?IsValidPathAvailableChar@@YA_NV?$basic_string_view@_WU?$char_traits@_W@std@@@std@@@Z 00000001400e77e0 f   file.obj
 0001:000e689c       ?IsFileExists@@YA_NPEB_W_N@Z 00000001400e789c f   file.obj
 0001:000e6944       ?IsDirectory@@YA_NPEB_W@Z  00000001400e7944 f   file.obj
 0001:000e69d8       ?GetLastWriteTimestamp@@YA_NPEB_WPEAVCFileTime@@@Z 00000001400e79d8 f   file.obj
 0001:000e6a80       ?wcsrchr2@@YAPEA_WPEB_W_W1@Z 00000001400e7a80 f   file.obj
 0001:000e6acc       ?GetExistPathW@@YAXPEA_WPEB_W@Z 00000001400e7acc f   file.obj
 0001:000e6c44       ?my_splitpath_w@@YAXPEB_WPEA_W111@Z 00000001400e7c44 f   file.obj
 0001:000e6efc       ?FileMatchScoreSepExt@@YAHV?$basic_string_view@_WU?$char_traits@_W@std@@@std@@0@Z 00000001400e7efc f   file.obj
 0001:000e7020       ?FileMatchScore@@YAHPEB_W0@Z 00000001400e8020 f   file.obj
 0001:000e71e4       ?GetStrTrancateWidth@@YAXPEA_WHPEB_WPEAUHDC__@@H@Z 00000001400e81e4 f   file.obj
 0001:000e7430       ?GetShortViewPath@@YAXPEA_WHPEB_WPEAUHDC__@@H_N@Z 00000001400e8430 f   file.obj
 0001:000e7a78       ??1?$basic_regex@_WV?$regex_traits@_W@std@@@std@@QEAA@XZ 00000001400e8a78 f i file.obj
 0001:000e7af0       ??0?$basic_regex@_WV?$regex_traits@_W@std@@@std@@QEAA@PEB_WW4syntax_option_type@regex_constants@1@@Z 00000001400e8af0 f i file.obj
 0001:000e7c64       ??1?$regex_traits@_W@std@@QEAA@XZ 00000001400e8c64 f i file.obj
 0001:000e7c90       ?insert@?$basic_string@_WU?$char_traits@_W@std@@V?$allocator@_W@2@@std@@QEAAAEAV12@_K0_W@Z 00000001400e8c90 f i file.obj
 0001:000e7d44       ??R<lambda_1>@?1??insert@?$basic_string@_WU?$char_traits@_W@std@@V?$allocator@_W@2@@std@@QEAAAEAV23@_K0_W@Z@QEBA@QEA_WQEB_W0001@Z 00000001400e8d44 f i file.obj
 0001:000e7dcc       ??$regex_search@_WV?$regex_traits@_W@std@@@std@@YA_NPEB_WAEBV?$basic_regex@_WV?$regex_traits@_W@std@@@0@W4match_flag_type@regex_constants@0@@Z 00000001400e8dcc f i file.obj
 0001:000e7e00       ??$_Reallocate_grow_by@V<lambda_1>@?1??insert@?$basic_string@_WU?$char_traits@_W@std@@V?$allocator@_W@2@@std@@QEAAAEAV34@_K0_W@Z@_K_K_W@?$basic_string@_WU?$char_traits@_W@std@@V?$allocator@_W@2@@std@@AEAAAEAV01@_KV<lambda_1>@?1??insert@01@QEAAAEAV01@00_W@Z@_K3_W@Z 00000001400e8e00 f i file.obj
 0001:000e7f7c       ??$use_facet@V?$collate@_W@std@@@std@@YAAEBV?$collate@_W@0@AEBVlocale@0@@Z 00000001400e8f7c f i file.obj
 0001:000e807c       ??$use_facet@V?$ctype@_W@std@@@std@@YAAEBV?$ctype@_W@0@AEBVlocale@0@@Z 00000001400e907c f i file.obj
 0001:000e817c       ??1?$_Parser@PEB_W_WV?$regex_traits@_W@std@@@std@@QEAA@XZ 00000001400e917c f i file.obj
 0001:000e81dc       ?do_hash@?$collate@_W@std@@MEBAJPEB_W0@Z 00000001400e91dc f i file.obj
 0001:000e81f0       ?do_transform@?$collate@_W@std@@MEBA?AV?$basic_string@_WU?$char_traits@_W@std@@V?$allocator@_W@2@@2@PEB_W0@Z 00000001400e91f0 f i file.obj
 0001:000e82f0       ?do_compare@?$collate@_W@std@@MEBAHPEB_W000@Z 00000001400e92f0 f i file.obj
 0001:000e8334       ?_Getcat@?$collate@_W@std@@SA_KPEAPEBVfacet@locale@2@PEBV42@@Z 00000001400e9334 f i file.obj
 0001:000e842c       ??_E?$collate@_W@std@@MEAAPEAXI@Z 00000001400e942c f i * CIL library *:* CIL module *
 0001:000e842c       ??_G?$collate@_W@std@@MEAAPEAXI@Z 00000001400e942c f i file.obj
 0001:000e8478       ??$_Regex_search2@PEB_WV?$allocator@V?$sub_match@PEB_W@std@@@std@@_WV?$regex_traits@_W@2@PEB_W@std@@YA_NPEB_W0PEAV?$match_results@PEB_WV?$allocator@V?$sub_match@PEB_W@std@@@std@@@0@AEBV?$basic_regex@_WV?$regex_traits@_W@std@@@0@W4match_flag_type@regex_constants@0@0@Z 00000001400e9478 f i file.obj
 0001:000e8638       ??0?$_Parser@PEB_W_WV?$regex_traits@_W@std@@@std@@QEAA@AEBV?$regex_traits@_W@1@PEB_W1W4syntax_option_type@regex_constants@1@@Z 00000001400e9638 f i file.obj
 0001:000e8730       ?_Compile@?$_Parser@PEB_W_WV?$regex_traits@_W@std@@@std@@QEAAPEAV_Root_node@2@XZ 00000001400e9730 f i file.obj
 0001:000e87b4       ??$_Hash_array_representation@_W@std@@YA_KQEB_W_K@Z 00000001400e97b4 f i file.obj
 0001:000e87ec       ??1?$_Matcher@PEB_W_WV?$regex_traits@_W@std@@PEB_W@std@@QEAA@XZ 00000001400e97ec f i file.obj
 0001:000e87ec       ??1?$_Matcher@V?$_String_const_iterator@V?$_String_val@U?$_Simple_types@_W@std@@@std@@@std@@_WV?$regex_traits@_W@2@V12@@std@@QEAA@XZ 00000001400e97ec f i shell.obj
 0001:000e886c       ??1?$_Tgt_state_t@PEB_W@std@@QEAA@XZ 00000001400e986c f i file.obj
 0001:000e886c       ??1?$_Tgt_state_t@V?$_String_const_iterator@V?$_String_val@U?$_Simple_types@_W@std@@@std@@@std@@@std@@QEAA@XZ 00000001400e986c f i shell.obj
 0001:000e8914       ??1?$_Tidy_guard@V?$_Builder@PEB_W_WV?$regex_traits@_W@std@@@std@@@std@@QEAA@XZ 00000001400e9914 f i file.obj
 0001:000e892c       ?_Xlen@?$vector@_NV?$allocator@_N@std@@@std@@QEBAXXZ 00000001400e992c f i file.obj
 0001:000e8940       ?_Error@?$_Parser@PEB_W_WV?$regex_traits@_W@std@@@std@@AEAAXW4error_type@regex_constants@2@@Z 00000001400e9940 f i file.obj
 0001:000e894c       ?_Trans@?$_Parser@PEB_W_WV?$regex_traits@_W@std@@@std@@AEAAXXZ 00000001400e994c f i file.obj
 0001:000e8aa4       ?_Disjunction@?$_Parser@PEB_W_WV?$regex_traits@_W@std@@@std@@AEAAXXZ 00000001400e9aa4 f i file.obj
 0001:000e8b5c       ??0?$_Builder@PEB_W_WV?$regex_traits@_W@std@@@std@@QEAA@AEBV?$regex_traits@_W@1@W4syntax_option_type@regex_constants@1@@Z 00000001400e9b5c f i file.obj
 0001:000e8bf0       ?_Setlong@?$_Builder@PEB_W_WV?$regex_traits@_W@std@@@std@@QEAAXXZ 00000001400e9bf0 f i file.obj
 0001:000e8bf8       ?_Tidy@?$_Builder@PEB_W_WV?$regex_traits@_W@std@@@std@@QEAAXXZ 00000001400e9bf8 f i file.obj
 0001:000e8c38       ?_End_group@?$_Builder@PEB_W_WV?$regex_traits@_W@std@@@std@@QEAAXPEAV_Node_base@2@@Z 00000001400e9c38 f i file.obj
 0001:000e8cbc       ?_Begin_capture_group@?$_Builder@PEB_W_WV?$regex_traits@_W@std@@@std@@QEAAPEAV_Node_base@2@I@Z 00000001400e9cbc f i file.obj
 0001:000e8d1c       ?_End_pattern@?$_Builder@PEB_W_WV?$regex_traits@_W@std@@@std@@QEAAPEAV_Root_node@2@XZ 00000001400e9d1c f i file.obj
 0001:000e8d38       ?_Skip@?$_Matcher@PEB_W_WV?$regex_traits@_W@std@@PEB_W@std@@QEAAPEB_WPEB_W0PEAV_Node_base@2@@Z 00000001400e9d38 f i file.obj
 0001:000e901c       ??$_Match@V?$allocator@V?$sub_match@PEB_W@std@@@std@@@?$_Matcher@PEB_W_WV?$regex_traits@_W@std@@PEB_W@std@@QEAA_NPEAV?$match_results@PEB_WV?$allocator@V?$sub_match@PEB_W@std@@@std@@@1@_N@Z 00000001400ea01c f i file.obj
 0001:000e9238       ??1?$_Node_class@_WV?$regex_traits@_W@std@@@std@@UEAA@XZ 00000001400ea238 f i file.obj
 0001:000e9314       ?_Resize@?$match_results@PEB_WV?$allocator@V?$sub_match@PEB_W@std@@@std@@@std@@QEAAXI@Z 00000001400ea314 f i file.obj
 0001:000e9314       ?_Resize@?$match_results@V?$_String_const_iterator@V?$_String_val@U?$_Simple_types@_W@std@@@std@@@std@@V?$allocator@V?$sub_match@V?$_String_const_iterator@V?$_String_val@U?$_Simple_types@_W@std@@@std@@@std@@@std@@@2@@std@@QEAAXI@Z 00000001400ea314 f i shell.obj
 0001:000e93c0       ?resize@?$vector@_NV?$allocator@_N@std@@@std@@QEAAX_K_N@Z 00000001400ea3c0 f i file.obj
 0001:000e94b8       ?translate@?$_Regex_traits@_W@std@@QEBA_W_W@Z 00000001400ea4b8 f i file.obj
 0001:000e9530       ??_E?$_Node_class@_WV?$regex_traits@_W@std@@@std@@UEAAPEAXI@Z 00000001400ea530 f i * CIL library *:* CIL module *
 0001:000e9530       ??_G?$_Node_class@_WV?$regex_traits@_W@std@@@std@@UEAAPEAXI@Z 00000001400ea530 f i file.obj
 0001:000e9564       ?_Insert_n@?$vector@_NV?$allocator@_N@std@@@std@@QEAA?AV?$_Vb_iterator@U?$_Wrap_alloc@V?$allocator@I@std@@@std@@@2@V?$_Vb_const_iterator@U?$_Wrap_alloc@V?$allocator@I@std@@@std@@@2@_KAEB_N@Z 00000001400ea564 f i file.obj
 0001:000e970c       ?erase@?$vector@_NV?$allocator@_N@std@@@std@@QEAA?AV?$_Vb_iterator@U?$_Wrap_alloc@V?$allocator@I@std@@@std@@@2@V?$_Vb_const_iterator@U?$_Wrap_alloc@V?$allocator@I@std@@@std@@@2@0@Z 00000001400ea70c f i file.obj
 0001:000e999c       ?end@?$vector@_NV?$allocator@_N@std@@@std@@QEAA?AV?$_Vb_iterator@U?$_Wrap_alloc@V?$allocator@I@std@@@std@@@2@XZ 00000001400ea99c f i file.obj
 0001:000e9a18       ?_Insert_x@?$vector@_NV?$allocator@_N@std@@@std@@QEAA_KV?$_Vb_const_iterator@U?$_Wrap_alloc@V?$allocator@I@std@@@std@@@2@_K@Z 00000001400eaa18 f i file.obj
 0001:000e9c14       ?_Is_esc@?$_Parser@PEB_W_WV?$regex_traits@_W@std@@@std@@AEBA_NXZ 00000001400eac14 f i file.obj
 0001:000e9c5c       ?_Next@?$_Parser@PEB_W_WV?$regex_traits@_W@std@@@std@@AEAAXXZ 00000001400eac5c f i file.obj
 0001:000e9c98       ?_Alternative@?$_Parser@PEB_W_WV?$regex_traits@_W@std@@@std@@AEAA_NXZ 00000001400eac98 f i file.obj
 0001:000e9e60       ?_Beg_expr@?$_Builder@PEB_W_WV?$regex_traits@_W@std@@@std@@QEBA_NXZ 00000001400eae60 f i file.obj
 0001:000e9e94       ?_Begin_group@?$_Builder@PEB_W_WV?$regex_traits@_W@std@@@std@@QEAAPEAV_Node_base@2@XZ 00000001400eae94 f i file.obj
 0001:000e9ea0       ?_Begin_if@?$_Builder@PEB_W_WV?$regex_traits@_W@std@@@std@@QEAAPEAV_Node_base@2@PEAV32@@Z 00000001400eaea0 f i file.obj
 0001:000e9f60       ?_Else_if@?$_Builder@PEB_W_WV?$regex_traits@_W@std@@@std@@QEAAXPEAV_Node_base@2@0@Z 00000001400eaf60 f i file.obj
 0001:000ea000       ?_Link_node@?$_Builder@PEB_W_WV?$regex_traits@_W@std@@@std@@AEAAPEAV_Node_base@2@PEAV32@@Z 00000001400eb000 f i file.obj
 0001:000ea038       ?_New_node@?$_Builder@PEB_W_WV?$regex_traits@_W@std@@@std@@AEAAPEAV_Node_base@2@W4_Node_type@2@@Z 00000001400eb038 f i file.obj
 0001:000ea090       ?_Match_pat@?$_Matcher@PEB_W_WV?$regex_traits@_W@std@@PEB_W@std@@AEAA_NPEAV_Node_base@2@@Z 00000001400eb090 f i file.obj
 0001:000ea5b0       ?_Get_ncap@?$_Matcher@PEB_W_WV?$regex_traits@_W@std@@PEB_W@std@@AEBAIXZ 00000001400eb5b0 f i file.obj
 0001:000ea5b0       ?_Get_ncap@?$_Matcher@V?$_String_const_iterator@V?$_String_val@U?$_Simple_types@_W@std@@@std@@@std@@_WV?$regex_traits@_W@2@V12@@std@@AEBAIXZ 00000001400eb5b0 f i shell.obj
 0001:000ea5b8       ??$_Compare@PEB_WPEB_WV?$regex_traits@_W@std@@@std@@YAPEB_WPEB_W000AEBV?$regex_traits@_W@0@W4syntax_option_type@regex_constants@0@@Z 00000001400eb5b8 f i file.obj
 0001:000ea5dc       ??$_Lookup_coll@PEB_W_W@std@@YAPEB_WPEB_W0PEBU?$_Sequence@_W@0@@Z 00000001400eb5dc f i file.obj
 0001:000ea650       ??$_Lookup_range@_W@std@@YA_NIPEBU?$_Buf@_W@0@@Z 00000001400eb650 f i file.obj
 0001:000ea688       ??$_Lookup_equiv@_WV?$regex_traits@_W@std@@@std@@YA_NGPEBU?$_Sequence@_W@0@AEBV?$regex_traits@_W@0@@Z 00000001400eb688 f i file.obj
 0001:000ea8b4       ??$_Resize_reallocate@U_Value_init_tag@std@@@?$vector@U_Grp_t@?$_Tgt_state_t@PEB_W@std@@V?$allocator@U_Grp_t@?$_Tgt_state_t@PEB_W@std@@@3@@std@@AEAAX_KAEBU_Value_init_tag@1@@Z 00000001400eb8b4 f i file.obj
 0001:000ea8b4       ??$_Resize_reallocate@U_Value_init_tag@std@@@?$vector@U_Loop_vals_t@std@@V?$allocator@U_Loop_vals_t@std@@@2@@std@@AEAAX_KAEBU_Value_init_tag@1@@Z 00000001400eb8b4 f i file.obj
 0001:000ea9f0       ??4?$_Tgt_state_t@PEB_W@std@@QEAAAEAV01@AEBV01@@Z 00000001400eb9f0 f i file.obj
 0001:000ea9f0       ??4?$_Tgt_state_t@V?$_String_const_iterator@V?$_String_val@U?$_Simple_types@_W@std@@@std@@@std@@@std@@QEAAAEAV01@AEBV01@@Z 00000001400eb9f0 f i shell.obj
 0001:000eab90       ??4?$vector@_NV?$allocator@_N@std@@@std@@QEAAAEAV01@AEBV01@@Z 00000001400ebb90 f i file.obj
 0001:000eac34       ??0?$vector@_NV?$allocator@_N@std@@@std@@QEAA@AEBV01@@Z 00000001400ebc34 f i file.obj
 0001:000ead20       ?_Expect@?$_Parser@PEB_W_WV?$regex_traits@_W@std@@@std@@AEAAXW4_Meta_type@2@W4error_type@regex_constants@2@@Z 00000001400ebd20 f i file.obj
 0001:000ead3c       ?_CharacterClass@?$_Parser@PEB_W_WV?$regex_traits@_W@std@@@std@@AEAAXXZ 00000001400ebd3c f i file.obj
 0001:000eada4       ?_AtomEscape@?$_Parser@PEB_W_WV?$regex_traits@_W@std@@@std@@AEAAXXZ 00000001400ebda4 f i file.obj
 0001:000eae8c       ?_Wrapped_disjunction@?$_Parser@PEB_W_WV?$regex_traits@_W@std@@@std@@AEAA_NXZ 00000001400ebe8c f i file.obj
 0001:000eaf2c       ?_Quantifier@?$_Parser@PEB_W_WV?$regex_traits@_W@std@@@std@@AEAAXXZ 00000001400ebf2c f i file.obj
 0001:000eb044       ?_Beg_expr@?$_Builder@PEB_W_WV?$regex_traits@_W@std@@@std@@AEBA_NPEAV_Node_base@2@@Z 00000001400ec044 f i file.obj
 0001:000eb05c       ?_Add_bol@?$_Builder@PEB_W_WV?$regex_traits@_W@std@@@std@@QEAAXXZ 00000001400ec05c f i file.obj
 0001:000eb068       ?_Add_eol@?$_Builder@PEB_W_WV?$regex_traits@_W@std@@@std@@QEAAXXZ 00000001400ec068 f i file.obj
 0001:000eb074       ?_Add_wbound@?$_Builder@PEB_W_WV?$regex_traits@_W@std@@@std@@QEAAXXZ 00000001400ec074 f i file.obj
 0001:000eb080       ?_Add_dot@?$_Builder@PEB_W_WV?$regex_traits@_W@std@@@std@@QEAAXXZ 00000001400ec080 f i file.obj
 0001:000eb08c       ?_Add_char@?$_Builder@PEB_W_WV?$regex_traits@_W@std@@@std@@QEAAX_W@Z 00000001400ec08c f i file.obj
 0001:000eb144       ?_Negate@?$_Builder@PEB_W_WV?$regex_traits@_W@std@@@std@@QEAAXXZ 00000001400ec144 f i file.obj
 0001:000eb150       ?_Insert_node@?$_Builder@PEB_W_WV?$regex_traits@_W@std@@@std@@CAXPEAV_Node_base@2@0@Z 00000001400ec150 f i file.obj
 0001:000eb16c       ?_Do_if@?$_Matcher@PEB_W_WV?$regex_traits@_W@std@@PEB_W@std@@AEAA_NPEAV_Node_if@2@@Z 00000001400ec16c f i file.obj
 0001:000eb2a8       ?_Do_rep@?$_Matcher@PEB_W_WV?$regex_traits@_W@std@@PEB_W@std@@AEAA_NPEAV_Node_rep@2@_NH@Z 00000001400ec2a8 f i file.obj
 0001:000eb44c       ?_Do_class@?$_Matcher@PEB_W_WV?$regex_traits@_W@std@@PEB_W@std@@AEAA_NPEAV_Node_base@2@@Z 00000001400ec44c f i file.obj
 0001:000eb5c8       ?_Better_match@?$_Matcher@PEB_W_WV?$regex_traits@_W@std@@PEB_W@std@@AEAA_NXZ 00000001400ec5c8 f i file.obj
 0001:000eb680       ?_Is_wbound@?$_Matcher@PEB_W_WV?$regex_traits@_W@std@@PEB_W@std@@AEBA_NXZ 00000001400ec680 f i file.obj
 0001:000eb680       ?_Is_wbound@?$_Matcher@V?$_String_const_iterator@V?$_String_val@U?$_Simple_types@_W@std@@@std@@@std@@_WV?$regex_traits@_W@2@V12@@std@@AEBA_NXZ 00000001400ec680 f i shell.obj
 0001:000eb700       ??$_Cmp_chrange@PEB_WPEB_WU?$_Cmp_icase@V?$regex_traits@_W@std@@@std@@@std@@YAPEB_WPEB_W000U?$_Cmp_icase@V?$regex_traits@_W@std@@@0@@Z 00000001400ec700 f i file.obj
 0001:000eb788       ??$_Cmp_chrange@PEB_WPEB_WU?$_Cmp_collate@V?$regex_traits@_W@std@@@std@@@std@@YAPEB_WPEB_W000U?$_Cmp_collate@V?$regex_traits@_W@std@@@0@@Z 00000001400ec788 f i file.obj
 0001:000eb80c       ??$_Cmp_chrange@PEB_WPEB_WU?$_Cmp_cs@V?$regex_traits@_W@std@@@std@@@std@@YAPEB_WPEB_W000U?$_Cmp_cs@V?$regex_traits@_W@std@@@0@@Z 00000001400ec80c f i file.obj
 0001:000eb840       ??$transform_primary@V?$_String_iterator@V?$_String_val@U?$_Simple_types@_W@std@@@std@@@std@@@?$_Regex_traits@_W@std@@QEBA?AV?$basic_string@_WU?$char_traits@_W@std@@V?$allocator@_W@2@@1@V?$_String_iterator@V?$_String_val@U?$_Simple_types@_W@std@@@std@@@1@0@Z 00000001400ec840 f i file.obj
 0001:000eb9a4       ??$_Is_all_bits_zero@H@std@@YA_NAEBH@Z 00000001400ec9a4 f i CTextMetrics.obj
 0001:000eb9a4       ??$_Is_all_bits_zero@I@std@@YA_NAEBI@Z 00000001400ec9a4 f i file.obj
 0001:000eb9a4       ??$_Is_all_bits_zero@K@std@@YA_NAEBK@Z 00000001400ec9a4 f i CRuler.obj
 0001:000eb9e4       ??$_Fill_zero_memset@PEAH@std@@YAXPEAH_K@Z 00000001400ec9e4 f i CTextMetrics.obj
 0001:000eb9e4       ??$_Fill_zero_memset@PEAI@std@@YAXPEAI_K@Z 00000001400ec9e4 f i file.obj
